 BugSplat

 Timestamp is 662ad8d3 (Thu Apr 25 22:27:31 2024)

 Preferred load address is 10000000

 Start         Length     Name                   Class
 0001:00000000 000001b0H .text$di                CODE
 0001:000001b0 0005c7daH .text$mn                CODE
 0001:0005c98a 00001173H .text$x                 CODE
 0001:0005dafd 00000123H .text$yd                CODE
 0002:00000000 000002b8H .idata$5                DATA
 0002:000002b8 00000008H .00cfg                  DATA
 0002:000002c0 00000004H .CRT$XCA                DATA
 0002:000002c4 00000004H .CRT$XCL                DATA
 0002:000002c8 00000028H .CRT$XCU                DATA
 0002:000002f0 00000004H .CRT$XCZ                DATA
 0002:000002f4 00000004H .CRT$XIA                DATA
 0002:000002f8 00000018H .CRT$XIC                DATA
 0002:00000310 00000004H .CRT$XIZ                DATA
 0002:00000314 00000004H .CRT$XLA                DATA
 0002:00000318 00000004H .CRT$XLZ                DATA
 0002:0000031c 00000004H .CRT$XPA                DATA
 0002:00000320 00000008H .CRT$XPX                DATA
 0002:00000328 00000004H .CRT$XPXA               DATA
 0002:0000032c 00000004H .CRT$XPZ                DATA
 0002:00000330 00000004H .CRT$XTA                DATA
 0002:00000334 0000000cH .CRT$XTZ                DATA
 0002:00000338 00000000H .gfids$y                DATA
 0002:00000340 0000ad80H .rdata                  DATA
 0002:0000b0c0 00000004H .rdata$CastGuardVftablesA DATA
 0002:0000b0c4 00000004H .rdata$CastGuardVftablesC DATA
 0002:0000b0c8 00000018H .rdata$T                DATA
 0002:0000b0e0 000009b4H .rdata$r                DATA
 0002:0000ba94 00000178H .rdata$sxdata           DATA
 0002:0000bc0c 000002b0H .rdata$voltmd           DATA
 0002:0000bebc 0000046cH .rdata$zzzdbg           DATA
 0002:0000c328 00000004H .rtc$IAA                DATA
 0002:0000c32c 00000004H .rtc$IZZ                DATA
 0002:0000c330 00000004H .rtc$TAA                DATA
 0002:0000c334 00000004H .rtc$TZZ                DATA
 0002:0000c338 00000008H .tls                    DATA
 0002:0000c340 00000014H .tls$                   DATA
 0002:0000c354 00000004H .tls$ZZZ                DATA
 0002:0000c358 0000211cH .xdata$x                DATA
 0002:0000e474 00000004H ATL$__a                 DATA
 0002:0000e478 00000008H ATL$__z                 DATA
 0002:0000e480 00000a1cH .edata                  DATA
 0002:0000ee9c 000000a0H .idata$2                DATA
 0002:0000ef3c 00000014H .idata$3                DATA
 0002:0000ef50 000002b8H .idata$4                DATA
 0002:0000f208 00000c2cH .idata$6                DATA
 0003:00000000 00000a80H .data                   DATA
 0003:00000a80 000001b8H .data$r                 DATA
 0003:00000c38 00000298H .data$rs                DATA
 0003:00000ed0 00004afcH .bss                    DATA
 0004:00000000 00000120H .rsrc$01                DATA
 0004:00000120 00000b30H .rsrc$02                DATA

  Address         Publics by Value              Rva+Base       Lib:Object

 0000:00000000       ___guard_fids_count        00000000     <absolute>
 0000:00000000       ___arm64x_extra_rfe_table_size 00000000     <absolute>
 0000:00000000       ___guard_longjmp_count     00000000     <absolute>
 0000:00000000       ___guard_check_icall_a64n_fptr 00000000     <absolute>
 0000:00000000       ___x64_code_ranges_to_entry_points_count 00000000     <absolute>
 0000:00000000       ___arm64x_redirection_metadata_count 00000000     <absolute>
 0000:00000000       ___x64_code_ranges_to_entry_points 00000000     <absolute>
 0000:00000000       ___hybrid_auxiliary_iat    00000000     <absolute>
 0000:00000000       ___dynamic_value_reloc_table 00000000     <absolute>
 0000:00000000       ___guard_iat_count         00000000     <absolute>
 0000:00000000       ___guard_eh_cont_count     00000000     <absolute>
 0000:00000000       ___guard_iat_table         00000000     <absolute>
 0000:00000000       ___hybrid_code_map         00000000     <absolute>
 0000:00000000       ___AbsoluteZero            00000000     <absolute>
 0000:00000000       ___arm64x_native_entrypoint 00000000     <absolute>
 0000:00000000       ___guard_longjmp_table     00000000     <absolute>
 0000:00000000       ___hybrid_code_map_count   00000000     <absolute>
 0000:00000000       ___guard_eh_cont_table     00000000     <absolute>
 0000:00000000       ___enclave_config          00000000     <absolute>
 0000:00000000       ___guard_fids_table        00000000     <absolute>
 0000:00000000       __except_list              00000000     <absolute>
 0000:00000000       ___arm64x_redirection_metadata 00000000     <absolute>
 0000:00000000       ___arm64x_extra_rfe_table  00000000     <absolute>
 0000:00000000       ___hybrid_auxiliary_iat_copy 00000000     <absolute>
 0000:0000002c       __tls_array                0000002c     <absolute>
 0000:0000005e       ___safe_se_handler_count   0000005e     <absolute>
 0000:00000100       ___guard_flags             00000100     <absolute>
 0000:00000000       ___ImageBase               10000000     <linker-defined>
 0001:000001b0       ??$AtlAdd@H@ATL@@YAJPAHHH@Z 100011b0 f i GenericHTTPClient.obj
 0001:000001d6       ??$AtlAdd@I@ATL@@YAJPAIII@Z 100011d6 f i GenericHTTPClient.obj
 0001:000001f9       ??$AtlAdd@K@ATL@@YAJPAKKK@Z 100011f9 f i GenericHTTPClient.obj
 0001:0000021c       ??$AtlMultiply@I@ATL@@YAJPAIII@Z 1000121c f i GenericHTTPClient.obj
 0001:0000023e       ??$AtlMultiply@K@ATL@@YAJPAKKK@Z 1000123e f i GenericHTTPClient.obj
 0001:00000260       ??$_Allocate@$07U_Default_allocate_traits@std@@$0A@@std@@YAPAXI@Z 10001260 f i GenericHTTPClient.obj
 0001:00000286       ??$_Allocate_manually_vector_aligned@U_Default_allocate_traits@std@@@std@@YAPAXI@Z 10001286 f i GenericHTTPClient.obj
 0001:000002b4       ??$_Copy_memmove@PAU__GENERIC_HTTP_ARGUMENT@GenericHTTPClient@@PAU12@@std@@YAPAU__GENERIC_HTTP_ARGUMENT@GenericHTTPClient@@PAU12@00@Z 100012b4 f i GenericHTTPClient.obj
 0001:000002d6       ??$_Deallocate@$07$0A@@std@@YAXPAXI@Z 100012d6 f i GenericHTTPClient.obj
 0001:00000302       ??$_Emplace_reallocate@ABU__GENERIC_HTTP_ARGUMENT@GenericHTTPClient@@@?$vector@U__GENERIC_HTTP_ARGUMENT@GenericHTTPClient@@V?$allocator@U__GENERIC_HTTP_ARGUMENT@GenericHTTPClient@@@std@@@std@@QAEPAU__GENERIC_HTTP_ARGUMENT@GenericHTTPClient@@QAU23@ABU23@@Z 10001302 f i GenericHTTPClient.obj
 0001:000003bf       ??$_Get_size_of_n@$0KAE@@std@@YAII@Z 100013bf f i GenericHTTPClient.obj
 0001:000003d8       ??$_Uninitialized_move@PAU__GENERIC_HTTP_ARGUMENT@GenericHTTPClient@@V?$allocator@U__GENERIC_HTTP_ARGUMENT@GenericHTTPClient@@@std@@@std@@YAPAU__GENERIC_HTTP_ARGUMENT@GenericHTTPClient@@QAU12@0PAU12@AAV?$allocator@U__GENERIC_HTTP_ARGUMENT@GenericHTTPClient@@@0@@Z 100013d8 f i GenericHTTPClient.obj
 0001:00000407       ??$emplace_back@ABU__GENERIC_HTTP_ARGUMENT@GenericHTTPClient@@@?$vector@U__GENERIC_HTTP_ARGUMENT@GenericHTTPClient@@V?$allocator@U__GENERIC_HTTP_ARGUMENT@GenericHTTPClient@@@std@@@std@@QAE?A_TABU__GENERIC_HTTP_ARGUMENT@GenericHTTPClient@@@Z 10001407 f i GenericHTTPClient.obj
 0001:0000043a       ??0?$CStringT@_WV?$StrTraitATL@_WV?$ChTraitsCRT@_W@ATL@@@ATL@@@ATL@@QAE@PBD@Z 1000143a f i GenericHTTPClient.obj
 0001:00000491       ??0?$CStringT@_WV?$StrTraitATL@_WV?$ChTraitsCRT@_W@ATL@@@ATL@@@ATL@@QAE@PB_W@Z 10001491 f i GenericHTTPClient.obj
 0001:000004f6       ??0CAtlComModule@ATL@@QAE@XZ 100014f6 f i GenericHTTPClient.obj
 0001:00000535       ??0CAtlException@ATL@@QAE@J@Z 10001535 f i GenericHTTPClient.obj
 0001:00000543       ??0CAtlStringMgr@ATL@@QAE@PAUIAtlMemMgr@1@@Z 10001543 f i GenericHTTPClient.obj
 0001:0000056f       ??0CAtlWinModule@ATL@@QAE@XZ 1000156f f i GenericHTTPClient.obj
 0001:0000059d       ??0GenericHTTPClient@@QAE@XZ 1000159d f   GenericHTTPClient.obj
 0001:000005cb       ??0_ATL_COM_MODULE70@ATL@@QAE@XZ 100015cb f i GenericHTTPClient.obj
 0001:000005e2       ??0_ATL_WIN_MODULE70@ATL@@QAE@XZ 100015e2 f i GenericHTTPClient.obj
 0001:0000060d       ??0bad_alloc@std@@QAE@ABV01@@Z 1000160d f i GenericHTTPClient.obj
 0001:00000628       ??0bad_array_new_length@std@@QAE@ABV01@@Z 10001628 f i GenericHTTPClient.obj
 0001:00000643       ??0bad_array_new_length@std@@QAE@XZ 10001643 f i GenericHTTPClient.obj
 0001:0000065b       ??0exception@std@@QAE@ABV01@@Z 1000165b f i GenericHTTPClient.obj
 0001:00000687       ??1?$CSimpleStringT@_W$0A@@ATL@@QAE@XZ 10001687 f i GenericHTTPClient.obj
 0001:00000691       ??1?$CStringT@_WV?$StrTraitATL@_WV?$ChTraitsCRT@_W@ATL@@@ATL@@@ATL@@QAE@XZ 10001691 f i GenericHTTPClient.obj
 0001:0000069b       ??1CAtlStringMgr@ATL@@UAE@XZ 1000169b f i GenericHTTPClient.obj
 0001:000006a9       ??1CWin32Heap@ATL@@UAE@XZ  100016a9 f i GenericHTTPClient.obj
 0001:000006c5       ??1GenericHTTPClient@@UAE@XZ 100016c5 f   GenericHTTPClient.obj
 0001:000006e7       ??1bad_array_new_length@std@@UAE@XZ 100016e7 f i GenericHTTPClient.obj
 0001:000006f8       ??1exception@std@@UAE@XZ   100016f8 f i GenericHTTPClient.obj
 0001:00000709       ??4?$CStringT@_WV?$StrTraitATL@_WV?$ChTraitsCRT@_W@ATL@@@ATL@@@ATL@@QAEAAV01@PBD@Z 10001709 f i GenericHTTPClient.obj
 0001:00000757       ??A?$CSimpleArray@GV?$CSimpleArrayEqualHelper@G@ATL@@@ATL@@QAEAAGH@Z 10001757 f i GenericHTTPClient.obj
 0001:0000077c       ??_GCAtlStringMgr@ATL@@UAEPAXI@Z 1000177c f i GenericHTTPClient.obj
 0001:0000077c       ??_ECAtlStringMgr@ATL@@UAEPAXI@Z 1000177c f i GenericHTTPClient.obj
 0001:000007a6       ??_ECWin32Heap@ATL@@UAEPAXI@Z 100017a6 f i GenericHTTPClient.obj
 0001:000007a6       ??_GCWin32Heap@ATL@@UAEPAXI@Z 100017a6 f i GenericHTTPClient.obj
 0001:000007c8       ??_GGenericHTTPClient@@UAEPAXI@Z 100017c8 f i GenericHTTPClient.obj
 0001:000007c8       ??_EGenericHTTPClient@@UAEPAXI@Z 100017c8 f i GenericHTTPClient.obj
 0001:000007ed       ??_Ebad_alloc@std@@UAEPAXI@Z 100017ed f i GenericHTTPClient.obj
 0001:000007ed       ??_Gbad_alloc@std@@UAEPAXI@Z 100017ed f i GenericHTTPClient.obj
 0001:0000081a       ??_Gbad_array_new_length@std@@UAEPAXI@Z 1000181a f i GenericHTTPClient.obj
 0001:0000081a       ??_Ebad_array_new_length@std@@UAEPAXI@Z 1000181a f i GenericHTTPClient.obj
 0001:00000847       ??_Gexception@std@@UAEPAXI@Z 10001847 f i GenericHTTPClient.obj
 0001:00000847       ??_Eexception@std@@UAEPAXI@Z 10001847 f i GenericHTTPClient.obj
 0001:00000874       ?AddPutPostArguments@GenericHTTPClient@@QAEXPB_W0H@Z 10001874 f   GenericHTTPClient.obj
 0001:000008f8       ?AddPutPostArguments@GenericHTTPClient@@QAEXPB_WK@Z 100018f8 f   GenericHTTPClient.obj
 0001:00000979       ?Allocate@CAtlStringMgr@ATL@@UAEPAUCStringData@2@HH@Z 10001979 f i GenericHTTPClient.obj
 0001:000009fc       ?Allocate@CWin32Heap@ATL@@UAEPAXI@Z 100019fc f i GenericHTTPClient.obj
 0001:00000a11       ?AtlCrtErrorCheck@ATL@@YAHH@Z 10001a11 f i GenericHTTPClient.obj
 0001:00000a4c       ?AtlFindStringResourceInstance@ATL@@YAPAUHINSTANCE__@@IG@Z 10001a4c f i GenericHTTPClient.obj
 0001:00000a90       ?AtlGetStringResourceImage@ATL@@YAPBUATLSTRINGRESOURCEIMAGE@1@PAUHINSTANCE__@@I@Z 10001a90 f i GenericHTTPClient.obj
 0001:00000ac0       ?AtlGetStringResourceImage@ATL@@YAPBUATLSTRINGRESOURCEIMAGE@1@PAUHINSTANCE__@@IG@Z 10001ac0 f i GenericHTTPClient.obj
 0001:00000af3       ?AtlThrowImpl@ATL@@YGXJ@Z  10001af3 f i GenericHTTPClient.obj
 0001:00000b10       ?AtlWinModuleInit@ATL@@YGJPAU_ATL_WIN_MODULE70@1@@Z 10001b10 f i GenericHTTPClient.obj
 0001:00000b36       ?AtlWinModuleTerm@ATL@@YGJPAU_ATL_WIN_MODULE70@1@PAUHINSTANCE__@@@Z 10001b36 f i GenericHTTPClient.obj
 0001:00000b99       ?CheckImplicitLoad@?$CStringT@_WV?$StrTraitATL@_WV?$ChTraitsCRT@_W@ATL@@@ATL@@@ATL@@AAE_NPBX@Z 10001b99 f i GenericHTTPClient.obj
 0001:00000bbd       ?Clone@CAtlStringMgr@ATL@@UAEPAUIAtlStringMgr@2@XZ 10001bbd f i GenericHTTPClient.obj
 0001:00000bc0       ?CloneData@?$CSimpleStringT@_W$0A@@ATL@@CAPAUCStringData@2@PAU32@@Z 10001bc0 f i GenericHTTPClient.obj
 0001:00000c1b       ?Close@GenericHTTPClient@@QAEHXZ 10001c1b f   GenericHTTPClient.obj
 0001:00000c52       ?Connect@GenericHTTPClient@@QAEHV?$CStringT@_WV?$StrTraitATL@_WV?$ChTraitsCRT@_W@ATL@@@ATL@@@ATL@@0G00@Z 10001c52 f   GenericHTTPClient.obj
 0001:00000e4d       ?ConvertToBaseType@?$ChTraitsCRT@_W@ATL@@SAXPA_WHPB_WH@Z 10001e4d f i GenericHTTPClient.obj
 0001:00000e80       ?CopyChars@?$CSimpleStringT@_W$0A@@ATL@@SAXPA_WIPB_WH@Z 10001e80 f i GenericHTTPClient.obj
 0001:00000e9f       ?CopyCharsOverlapped@?$CSimpleStringT@_W$0A@@ATL@@SAXPA_WIPB_WH@Z 10001e9f f i GenericHTTPClient.obj
 0001:00000ef0       ?CopyWideToMultibyte@GenericHTTPClient@@QAEHV?$CStringT@_WV?$StrTraitATL@_WV?$ChTraitsCRT@_W@ATL@@@ATL@@@ATL@@PADKK@Z 10001ef0 f   GenericHTTPClient.obj
 0001:00000f5e       ?DebuggerConsoleMessage@GenericHTTPClient@@QAEXXZ 10001f5e f   GenericHTTPClient.obj
 0001:00000f6f       ?Empty@?$CSimpleStringT@_W$0A@@ATL@@QAEXXZ 10001f6f f i GenericHTTPClient.obj
 0001:00000fa4       ?EncodeSpecialCharacters@GenericHTTPClient@@QAE?AV?$CStringT@_WV?$StrTraitATL@_WV?$ChTraitsCRT@_W@ATL@@@ATL@@@ATL@@V23@@Z 10001fa4 f   GenericHTTPClient.obj
 0001:00001006       ?EnsureLinked@CAtlStringMgrStaticInitializer@ATLImplementationDetails@ATL@@QAEPAXXZ 10002006 f i GenericHTTPClient.obj
 0001:00001009       ?Fork@?$CSimpleStringT@_W$0A@@ATL@@AAEXH@Z 10002009 f i GenericHTTPClient.obj
 0001:00001073       ?Free@CAtlStringMgr@ATL@@UAEXPAUCStringData@2@@Z 10002073 f i GenericHTTPClient.obj
 0001:0000107f       ?Free@CWin32Heap@ATL@@UAEXPAX@Z 1000207f f i GenericHTTPClient.obj
 0001:0000109a       ?GetBaseTypeLength@?$ChTraitsCRT@_W@ATL@@SAHPBD@Z 1000209a f i GenericHTTPClient.obj
 0001:000010b2       ?GetContentType@GenericHTTPClient@@QAEPB_WPB_W@Z 100020b2 f   GenericHTTPClient.obj
 0001:00001179       ?GetInstance@CAtlStringMgr@ATL@@SAPAUIAtlStringMgr@2@XZ 10002179 f i GenericHTTPClient.obj
 0001:00001228       ?GetNilString@CAtlStringMgr@ATL@@UAEPAUCStringData@2@XZ 10002228 f i GenericHTTPClient.obj
 0001:00001230       ?GetPostArguments@GenericHTTPClient@@QAEKPADK@Z 10002230 f   GenericHTTPClient.obj
 0001:00001317       ?GetSize@CWin32Heap@ATL@@UAEIPAX@Z 10002317 f i GenericHTTPClient.obj
 0001:0000132c       ?Init@CComCriticalSection@ATL@@QAEJXZ 1000232c f i GenericHTTPClient.obj
 0001:00001354       ?InitilizePutPostArguments@GenericHTTPClient@@QAEXXZ 10002354 f   GenericHTTPClient.obj
 0001:0000135b       ?LoadStringW@?$CStringT@_WV?$StrTraitATL@_WV?$ChTraitsCRT@_W@ATL@@@ATL@@@ATL@@QAEHI@Z 1000235b f i GenericHTTPClient.obj
 0001:00001381       ?LoadStringW@?$CStringT@_WV?$StrTraitATL@_WV?$ChTraitsCRT@_W@ATL@@@ATL@@@ATL@@QAEHPAUHINSTANCE__@@I@Z 10002381 f i GenericHTTPClient.obj
 0001:000013cb       ?ParseURLW@GenericHTTPClient@@QAEXPB_WPA_WH1H@Z 100023cb f   GenericHTTPClient.obj
 0001:000014d6       ?PrepareWrite2@?$CSimpleStringT@_W$0A@@ATL@@AAEXH@Z 100024d6 f i GenericHTTPClient.obj
 0001:0000152b       ?PrepareWrite@?$CSimpleStringT@_W$0A@@ATL@@AAEPA_WH@Z 1000252b f i GenericHTTPClient.obj
 0001:00001567       ?QueryHTTPResponse@GenericHTTPClient@@QAEPB_WXZ 10002567 f   GenericHTTPClient.obj
 0001:0000156b       ?QueryHTTPResponseHeader@GenericHTTPClient@@QAEPB_WXZ 1000256b f   GenericHTTPClient.obj
 0001:00001572       ?Reallocate@?$CSimpleStringT@_W$0A@@ATL@@AAEXH@Z 10002572 f i GenericHTTPClient.obj
 0001:000015aa       ?Reallocate@CAtlStringMgr@ATL@@UAEPAUCStringData@2@PAU32@HH@Z 100025aa f i GenericHTTPClient.obj
 0001:00001624       ?Reallocate@CWin32Heap@ATL@@UAEPAXPAXI@Z 10002624 f i GenericHTTPClient.obj
 0001:0000165a       ?Reconnect@GenericHTTPClient@@QAEHXZ 1000265a f   GenericHTTPClient.obj
 0001:000016e8       ?Release@CStringData@ATL@@QAEXXZ 100026e8 f i GenericHTTPClient.obj
 0001:00001700       ?RemoveAll@?$CSimpleArray@GV?$CSimpleArrayEqualHelper@G@ATL@@@ATL@@QAEXXZ 10002700 f i GenericHTTPClient.obj
 0001:0000171d       ?Replace@?$CStringT@_WV?$StrTraitATL@_WV?$ChTraitsCRT@_W@ATL@@@ATL@@@ATL@@QAEHPB_W0@Z 1000271d f i GenericHTTPClient.obj
 0001:000018b0       ?Request@GenericHTTPClient@@QAEHPB_WH0@Z 100028b0 f   GenericHTTPClient.obj
 0001:00001a04       ?RequestGet@GenericHTTPClient@@QAEHPB_W@Z 10002a04 f   GenericHTTPClient.obj
 0001:00001a9f       ?RequestOfURI@GenericHTTPClient@@QAEHPB_WH@Z 10002a9f f   GenericHTTPClient.obj
 0001:00001afc       ?RequestPost@GenericHTTPClient@@QAEHPB_W@Z 10002afc f   GenericHTTPClient.obj
 0001:00001bee       ?RequestPut@GenericHTTPClient@@QAEHPB_W@Z 10002bee f   GenericHTTPClient.obj
 0001:00001c51       ?Response@GenericHTTPClient@@QAEHPA_WK0KAAK@Z 10002c51 f   GenericHTTPClient.obj
 0001:00001dd0       ?ResponseOfBytes@GenericHTTPClient@@QAEKPAEK@Z 10002dd0 f   GenericHTTPClient.obj
 0001:00001e1f       ?SendPutFileData@GenericHTTPClient@@QAEKXZ 10002e1f f   GenericHTTPClient.obj
 0001:00001ece       ?SetLength@?$CSimpleStringT@_W$0A@@ATL@@AAEXH@Z 10002ece f i GenericHTTPClient.obj
 0001:00001ef9       ?SetString@?$CSimpleStringT@_W$0A@@ATL@@QAEXPB_WH@Z 10002ef9 f i GenericHTTPClient.obj
 0001:00001f6e       ?Term@CAtlComModule@ATL@@QAEXXZ 10002f6e f i GenericHTTPClient.obj
 0001:00001fb8       ?ThrowMemoryException@?$CSimpleStringT@_W$0A@@ATL@@KAXXZ 10002fb8 f i GenericHTTPClient.obj
 0001:00001fc3       ?_Adjust_manually_vector_aligned@std@@YAXAAPAXAAI@Z 10002fc3 f i GenericHTTPClient.obj
 0001:00001fe9       ?_AtlGetStringResourceImage@ATL@@YAPBUATLSTRINGRESOURCEIMAGE@1@PAUHINSTANCE__@@PAUHRSRC__@@I@Z 10002fe9 f i GenericHTTPClient.obj
 0001:00002046       ?_AtlInitializeCriticalSectionEx@ATL@@YAHPAU_RTL_CRITICAL_SECTION@@KK@Z 10003046 f i GenericHTTPClient.obj
 0001:0000205a       ?_AtlRaiseException@ATL@@YAXKK@Z 1000305a f i GenericHTTPClient.obj
 0001:0000206f       ?_Calculate_growth@?$vector@U__GENERIC_HTTP_ARGUMENT@GenericHTTPClient@@V?$allocator@U__GENERIC_HTTP_ARGUMENT@GenericHTTPClient@@@std@@@std@@ABEII@Z 1000306f f i GenericHTTPClient.obj
 0001:000020a2       ?_Change_array@?$vector@U__GENERIC_HTTP_ARGUMENT@GenericHTTPClient@@V?$allocator@U__GENERIC_HTTP_ARGUMENT@GenericHTTPClient@@@std@@@std@@AAEXQAU__GENERIC_HTTP_ARGUMENT@GenericHTTPClient@@II@Z 100030a2 f i GenericHTTPClient.obj
 0001:000020ec       ?_Throw_bad_array_new_length@std@@YAXXZ 100030ec f i GenericHTTPClient.obj
 0001:00002109       ?_Tidy@?$vector@U__GENERIC_HTTP_ARGUMENT@GenericHTTPClient@@V?$allocator@U__GENERIC_HTTP_ARGUMENT@GenericHTTPClient@@@std@@@std@@AAEXXZ 10003109 f i GenericHTTPClient.obj
 0001:0000213a       ?_Xlength@?$vector@U__GENERIC_HTTP_ARGUMENT@GenericHTTPClient@@V?$allocator@U__GENERIC_HTTP_ARGUMENT@GenericHTTPClient@@@std@@@std@@CAXXZ 1000313a f i GenericHTTPClient.obj
 0001:00002145       ?memcpy_s@Checked@ATL@@YAXPAXIPBXI@Z 10003145 f i GenericHTTPClient.obj
 0001:00002164       ?memmove_s@Checked@ATL@@YAXPAXIPBXI@Z 10003164 f i GenericHTTPClient.obj
 0001:000021b5       ?what@exception@std@@UBEPBDXZ 100031b5 f i GenericHTTPClient.obj
 0001:000021c3       ?wmemcpy_s@Checked@ATL@@YAXPA_WIPB_WI@Z 100031c3 f i GenericHTTPClient.obj
 0001:000021e2       ___local_stdio_printf_options 100031e2 f i GenericHTTPClient.obj
 0001:000021e8       __vswprintf_s_l            100031e8 f i GenericHTTPClient.obj
 0001:00002295       _swprintf_s                10003295 f i GenericHTTPClient.obj
 0001:000022b1       ??$AtlAddThrow@H@ATL@@YAHHH@Z 100032b1 f i BugSplatImp.obj
 0001:000022d7       ??0?$CSimpleStringT@_W$0A@@ATL@@QAE@PB_WHPAUIAtlStringMgr@1@@Z 100032d7 f i BugSplatImp.obj
 0001:00002338       ??0?$CStringT@_WV?$StrTraitATL@_WV?$ChTraitsCRT@_W@ATL@@@ATL@@@ATL@@QAE@XZ 10003338 f i BugSplatImp.obj
 0001:0000235f       ??0BugSplatImp@@QAE@XZ     1000335f f   BugSplatImp.obj
 0001:0000237d       ??0MiniDmpSender@@QAE@ABV0@@Z 1000337d f i BugSplatImp.obj
 0001:00002395       ??4?$CSimpleStringT@_W$0A@@ATL@@QAEAAV01@ABV01@@Z 10003395 f i BugSplatImp.obj
 0001:000023e5       ??4BugSplatImp@@QAEAAV0@$$QAV0@@Z 100033e5 f i BugSplatImp.obj
 0001:00002442       ??4BugSplatImp@@QAEAAV0@ABV0@@Z 10003442 f i BugSplatImp.obj
 0001:00002460       ??4MiniDmpSender@@QAEAAV0@ABV0@@Z 10003460 f i BugSplatImp.obj
 0001:00002472       ??A?$CSimpleStringT@_W$0A@@ATL@@QBE_WH@Z 10003472 f i BugSplatImp.obj
 0001:00002496       ??HATL@@YA?AV?$CStringT@_WV?$StrTraitATL@_WV?$ChTraitsCRT@_W@ATL@@@ATL@@@0@ABV10@0@Z 10003496 f i BugSplatImp.obj
 0001:000024fd       ??_EMiniDmpSender@@UAEPAXI@Z 100034fd f i BugSplatImp.obj
 0001:00002588       ??_GMiniDmpSender@@UAEPAXI@Z 10003588 f i BugSplatImp.obj
 0001:000025aa       ?Append@?$CSimpleStringT@_W$0A@@ATL@@QAEXPB_WH@Z 100035aa f i BugSplatImp.obj
 0001:00002636       ?AppendChar@?$CSimpleStringT@_W$0A@@ATL@@QAEX_W@Z 10003636 f i BugSplatImp.obj
 0001:00002663       ?CalculateBeginningOfCallInstruction@@YAHAAI@Z 10003663 f   BugSplatImp.obj
 0001:000026b8       ?Concatenate@?$CSimpleStringT@_W$0A@@ATL@@KAXAAV12@PB_WH1H@Z 100036b8 f i BugSplatImp.obj
 0001:000026ff       ?CreateMiniDump@BugSplatImp@@QAEHPAUHINSTANCE__@@KPAXKPAU_EXCEPTION_POINTERS@@W4_BS_MINIDUMP_TYPE@MiniDmpSender@@PB_WPA_WK@Z 100036ff f   BugSplatImp.obj
 0001:000028df       ?CreateMiniDumpFromSnap@@YAHPAXKKW4_BS_MINIDUMP_TYPE@MiniDmpSender@@P6GH0K0W4_MINIDUMP_TYPE@@QAU_MINIDUMP_EXCEPTION_INFORMATION@@QAU_MINIDUMP_USER_STREAM_INFORMATION@@QAU_MINIDUMP_CALLBACK_INFORMATION@@@Z0PAU_CONTEXT@@@Z 100038df f   BugSplatImp.obj
 0001:00002a25       ?Find@?$CStringT@_WV?$StrTraitATL@_WV?$ChTraitsCRT@_W@ATL@@@ATL@@@ATL@@QBEHPB_WH@Z 10003a25 f i BugSplatImp.obj
 0001:00002a5f       ?GetManager@?$CStringT@_WV?$StrTraitATL@_WV?$ChTraitsCRT@_W@ATL@@@ATL@@@ATL@@QBEPAUIAtlStringMgr@2@XZ 10003a5f f i BugSplatImp.obj
 0001:00002a7e       ?GetReducedGuid@BugSplatImp@@SAXPA_WK@Z 10003a7e f   BugSplatImp.obj
 0001:00002b02       ?Left@?$CStringT@_WV?$StrTraitATL@_WV?$ChTraitsCRT@_W@ATL@@@ATL@@@ATL@@QBE?AV12@H@Z 10003b02 f i BugSplatImp.obj
 0001:00002b47       ?MakeUpper@?$CStringT@_WV?$StrTraitATL@_WV?$ChTraitsCRT@_W@ATL@@@ATL@@@ATL@@QAEAAV12@XZ 10003b47 f i BugSplatImp.obj
 0001:00002b6f       ?Mid@?$CStringT@_WV?$StrTraitATL@_WV?$ChTraitsCRT@_W@ATL@@@ATL@@@ATL@@QBE?AV12@HH@Z 10003b6f f i BugSplatImp.obj
 0001:00002bf5       ?ReduceGuidString@BugSplatImp@@SAXPA_WK@Z 10003bf5 f   BugSplatImp.obj
 0001:00002e98       ?ResumeSuspendedThreads@BugSplatImp@@QAEXXZ 10003e98 f   BugSplatImp.obj
 0001:00002ed2       ?SnapCurrentProcessMinidump@@YAHPAXKKW4_BS_MINIDUMP_TYPE@MiniDmpSender@@P6GH0K0W4_MINIDUMP_TYPE@@QAU_MINIDUMP_EXCEPTION_INFORMATION@@QAU_MINIDUMP_USER_STREAM_INFORMATION@@QAU_MINIDUMP_CALLBACK_INFORMATION@@@Z0@Z 10003ed2 f   BugSplatImp.obj
 0001:00003098       ?StringUppercase@?$ChTraitsCRT@_W@ATL@@SAPA_WPA_WI@Z 10004098 f i BugSplatImp.obj
 0001:000030b4       ?SuspendAllThreadsInProcess@BugSplatImp@@QAEXPAX@Z 100040b4 f   BugSplatImp.obj
 0001:0000315e       ?SuspendThreadsInCurrentProcess@BugSplatImp@@QAEXXZ 1000415e f   BugSplatImp.obj
 0001:0000321c       ?UINTtoWchar_t@@YA_WI@Z    1000421c f   BugSplatImp.obj
 0001:0000323e       ?Wchar_tToUINT@@YAI_W@Z    1000423e f   BugSplatImp.obj
 0001:0000326a       ?combine1_4@@YAIII@Z       1000426a f   BugSplatImp.obj
 0001:0000327b       ?combine2_3@@YAIII@Z       1000427b f   BugSplatImp.obj
 0001:00003290       ?combine3_2@@YAIII@Z       10004290 f   BugSplatImp.obj
 0001:000032a6       ?combine4_1@@YAIII@Z       100042a6 f   BugSplatImp.obj
 0001:000032b8       ?combineLast3@@YAII@Z      100042b8 f   BugSplatImp.obj
 0001:000032c3       ?createReportAndExit@MiniDmpSender@@QAEXXZ 100042c3 f i BugSplatImp.obj
 0001:000032ed       ??$?8V?$MemoryPoolAllocator@VCrtAllocator@rapidjson@@@rapidjson@@@?$GenericValue@U?$UTF16@_W@rapidjson@@V?$MemoryPoolAllocator@VCrtAllocator@rapidjson@@@2@@rapidjson@@QBE_NABV01@@Z 100042ed f i mdump.obj
 0001:00003433       ??$?A$$CB_W@?$GenericValue@U?$UTF16@_W@rapidjson@@V?$MemoryPoolAllocator@VCrtAllocator@rapidjson@@@2@@rapidjson@@QAEAAV01@PB_W@Z 10004433 f i mdump.obj
 0001:00003488       ??$?AV?$MemoryPoolAllocator@VCrtAllocator@rapidjson@@@rapidjson@@@?$GenericValue@U?$UTF16@_W@rapidjson@@V?$MemoryPoolAllocator@VCrtAllocator@rapidjson@@@2@@rapidjson@@QAEAAV01@ABV01@@Z 10004488 f i mdump.obj
 0001:000034d4       ??$DoFindMember@V?$MemoryPoolAllocator@VCrtAllocator@rapidjson@@@rapidjson@@@?$GenericValue@U?$UTF16@_W@rapidjson@@V?$MemoryPoolAllocator@VCrtAllocator@rapidjson@@@2@@rapidjson@@AAE?AV?$GenericMemberIterator@$0A@U?$UTF16@_W@rapidjson@@V?$MemoryPoolAllocator@VCrtAllocator@rapidjson@@@2@@1@ABV01@@Z 100044d4 f i mdump.obj
 0001:00003514       ??$Encode@V?$StackStream@_W@?$GenericReader@U?$UTF16@_W@rapidjson@@U12@VCrtAllocator@2@@rapidjson@@@?$UTF16@_W@rapidjson@@SAXAAV?$StackStream@_W@?$GenericReader@U?$UTF16@_W@rapidjson@@U12@VCrtAllocator@2@@1@I@Z 10004514 f i mdump.obj
 0001:000035aa       ??$Expand@V?$GenericValue@U?$UTF16@_W@rapidjson@@V?$MemoryPoolAllocator@VCrtAllocator@rapidjson@@@2@@rapidjson@@@?$Stack@VCrtAllocator@rapidjson@@@internal@rapidjson@@AAEXI@Z 100045aa f i mdump.obj
 0001:000035f9       ??$Expand@_W@?$Stack@VCrtAllocator@rapidjson@@@internal@rapidjson@@AAEXI@Z 100045f9 f i mdump.obj
 0001:0000364a       ??$Parse@$0A@U?$GenericStringStream@U?$UTF16@_W@rapidjson@@@rapidjson@@V?$GenericDocument@U?$UTF16@_W@rapidjson@@V?$MemoryPoolAllocator@VCrtAllocator@rapidjson@@@2@VCrtAllocator@2@@2@@?$GenericReader@U?$UTF16@_W@rapidjson@@U12@VCrtAllocator@2@@rapidjson@@QAE?AUParseResult@1@AAU?$GenericStringStream@U?$UTF16@_W@rapidjson@@@1@AAV?$GenericDocument@U?$UTF16@_W@rapidjson@@V?$MemoryPoolAllocator@VCrtAllocator@rapidjson@@@2@VCrtAllocator@2@@1@@Z 1000464a f i mdump.obj
 0001:000036da       ??$ParseArray@$0A@U?$GenericStringStream@U?$UTF16@_W@rapidjson@@@rapidjson@@V?$GenericDocument@U?$UTF16@_W@rapidjson@@V?$MemoryPoolAllocator@VCrtAllocator@rapidjson@@@2@VCrtAllocator@2@@2@@?$GenericReader@U?$UTF16@_W@rapidjson@@U12@VCrtAllocator@2@@rapidjson@@AAEXAAU?$GenericStringStream@U?$UTF16@_W@rapidjson@@@1@AAV?$GenericDocument@U?$UTF16@_W@rapidjson@@V?$MemoryPoolAllocator@VCrtAllocator@rapidjson@@@2@VCrtAllocator@2@@1@@Z 100046da f i mdump.obj
 0001:000037aa       ??$ParseFalse@$0A@U?$GenericStringStream@U?$UTF16@_W@rapidjson@@@rapidjson@@V?$GenericDocument@U?$UTF16@_W@rapidjson@@V?$MemoryPoolAllocator@VCrtAllocator@rapidjson@@@2@VCrtAllocator@2@@2@@?$GenericReader@U?$UTF16@_W@rapidjson@@U12@VCrtAllocator@2@@rapidjson@@AAEXAAU?$GenericStringStream@U?$UTF16@_W@rapidjson@@@1@AAV?$GenericDocument@U?$UTF16@_W@rapidjson@@V?$MemoryPoolAllocator@VCrtAllocator@rapidjson@@@2@VCrtAllocator@2@@1@@Z 100047aa f i mdump.obj
 0001:00003818       ??$ParseHex4@U?$GenericStringStream@U?$UTF16@_W@rapidjson@@@rapidjson@@@?$GenericReader@U?$UTF16@_W@rapidjson@@U12@VCrtAllocator@2@@rapidjson@@AAEIAAU?$GenericStringStream@U?$UTF16@_W@rapidjson@@@1@I@Z 10004818 f i mdump.obj
 0001:00003887       ??$ParseNull@$0A@U?$GenericStringStream@U?$UTF16@_W@rapidjson@@@rapidjson@@V?$GenericDocument@U?$UTF16@_W@rapidjson@@V?$MemoryPoolAllocator@VCrtAllocator@rapidjson@@@2@VCrtAllocator@2@@2@@?$GenericReader@U?$UTF16@_W@rapidjson@@U12@VCrtAllocator@2@@rapidjson@@AAEXAAU?$GenericStringStream@U?$UTF16@_W@rapidjson@@@1@AAV?$GenericDocument@U?$UTF16@_W@rapidjson@@V?$MemoryPoolAllocator@VCrtAllocator@rapidjson@@@2@VCrtAllocator@2@@1@@Z 10004887 f i mdump.obj
 0001:000038e9       ??$ParseNumber@$0A@U?$GenericStringStream@U?$UTF16@_W@rapidjson@@@rapidjson@@V?$GenericDocument@U?$UTF16@_W@rapidjson@@V?$MemoryPoolAllocator@VCrtAllocator@rapidjson@@@2@VCrtAllocator@2@@2@@?$GenericReader@U?$UTF16@_W@rapidjson@@U12@VCrtAllocator@2@@rapidjson@@AAEXAAU?$GenericStringStream@U?$UTF16@_W@rapidjson@@@1@AAV?$GenericDocument@U?$UTF16@_W@rapidjson@@V?$MemoryPoolAllocator@VCrtAllocator@rapidjson@@@2@VCrtAllocator@2@@1@@Z 100048e9 f i mdump.obj
 0001:00003f3f       ??$ParseObject@$0A@U?$GenericStringStream@U?$UTF16@_W@rapidjson@@@rapidjson@@V?$GenericDocument@U?$UTF16@_W@rapidjson@@V?$MemoryPoolAllocator@VCrtAllocator@rapidjson@@@2@VCrtAllocator@2@@2@@?$GenericReader@U?$UTF16@_W@rapidjson@@U12@VCrtAllocator@2@@rapidjson@@AAEXAAU?$GenericStringStream@U?$UTF16@_W@rapidjson@@@1@AAV?$GenericDocument@U?$UTF16@_W@rapidjson@@V?$MemoryPoolAllocator@VCrtAllocator@rapidjson@@@2@VCrtAllocator@2@@1@@Z 10004f3f f i mdump.obj
 0001:00004070       ??$ParseStream@$0A@U?$UTF16@_W@rapidjson@@U?$GenericStringStream@U?$UTF16@_W@rapidjson@@@2@@?$GenericDocument@U?$UTF16@_W@rapidjson@@V?$MemoryPoolAllocator@VCrtAllocator@rapidjson@@@2@VCrtAllocator@2@@rapidjson@@QAEAAV01@AAU?$GenericStringStream@U?$UTF16@_W@rapidjson@@@1@@Z 10005070 f i mdump.obj
 0001:000040ee       ??$ParseString@$0A@U?$GenericStringStream@U?$UTF16@_W@rapidjson@@@rapidjson@@V?$GenericDocument@U?$UTF16@_W@rapidjson@@V?$MemoryPoolAllocator@VCrtAllocator@rapidjson@@@2@VCrtAllocator@2@@2@@?$GenericReader@U?$UTF16@_W@rapidjson@@U12@VCrtAllocator@2@@rapidjson@@AAEXAAU?$GenericStringStream@U?$UTF16@_W@rapidjson@@@1@AAV?$GenericDocument@U?$UTF16@_W@rapidjson@@V?$MemoryPoolAllocator@VCrtAllocator@rapidjson@@@2@VCrtAllocator@2@@1@_N@Z 100050ee f i mdump.obj
 0001:00004352       ??$ParseTrue@$0A@U?$GenericStringStream@U?$UTF16@_W@rapidjson@@@rapidjson@@V?$GenericDocument@U?$UTF16@_W@rapidjson@@V?$MemoryPoolAllocator@VCrtAllocator@rapidjson@@@2@VCrtAllocator@2@@2@@?$GenericReader@U?$UTF16@_W@rapidjson@@U12@VCrtAllocator@2@@rapidjson@@AAEXAAU?$GenericStringStream@U?$UTF16@_W@rapidjson@@@1@AAV?$GenericDocument@U?$UTF16@_W@rapidjson@@V?$MemoryPoolAllocator@VCrtAllocator@rapidjson@@@2@VCrtAllocator@2@@1@@Z 10005352 f i mdump.obj
 0001:000043b5       ??$ParseValue@$0A@U?$GenericStringStream@U?$UTF16@_W@rapidjson@@@rapidjson@@V?$GenericDocument@U?$UTF16@_W@rapidjson@@V?$MemoryPoolAllocator@VCrtAllocator@rapidjson@@@2@VCrtAllocator@2@@2@@?$GenericReader@U?$UTF16@_W@rapidjson@@U12@VCrtAllocator@2@@rapidjson@@AAEXAAU?$GenericStringStream@U?$UTF16@_W@rapidjson@@@1@AAV?$GenericDocument@U?$UTF16@_W@rapidjson@@V?$MemoryPoolAllocator@VCrtAllocator@rapidjson@@@2@VCrtAllocator@2@@1@@Z 100053b5 f i mdump.obj
 0001:0000441f       ??$SkipWhitespace@U?$GenericStringStream@U?$UTF16@_W@rapidjson@@@rapidjson@@@rapidjson@@YAXAAU?$GenericStringStream@U?$UTF16@_W@rapidjson@@@0@@Z 1000541f f i mdump.obj
 0001:0000444f       ??$StringEqual@V?$MemoryPoolAllocator@VCrtAllocator@rapidjson@@@rapidjson@@@?$GenericValue@U?$UTF16@_W@rapidjson@@V?$MemoryPoolAllocator@VCrtAllocator@rapidjson@@@2@@rapidjson@@ABE_NABV01@@Z 1000544f f i mdump.obj
 0001:000044aa       ??$_Destroy_range@V?$allocator@V?$CStringT@_WV?$StrTraitATL@_WV?$ChTraitsCRT@_W@ATL@@@ATL@@@ATL@@@std@@@std@@YAXPAV?$CStringT@_WV?$StrTraitATL@_WV?$ChTraitsCRT@_W@ATL@@@ATL@@@ATL@@QAV12@AAV?$allocator@V?$CStringT@_WV?$StrTraitATL@_WV?$ChTraitsCRT@_W@ATL@@@ATL@@@ATL@@@0@@Z 100054aa f i mdump.obj
 0001:000044c7       ??$_Emplace_reallocate@ABVCrashAttribute@@@?$vector@VCrashAttribute@@V?$allocator@VCrashAttribute@@@std@@@std@@QAEPAVCrashAttribute@@QAV2@ABV2@@Z 100054c7 f i mdump.obj
 0001:000045a9       ??$_Emplace_reallocate@V?$CStringT@_WV?$StrTraitATL@_WV?$ChTraitsCRT@_W@ATL@@@ATL@@@ATL@@@?$vector@V?$CStringT@_WV?$StrTraitATL@_WV?$ChTraitsCRT@_W@ATL@@@ATL@@@ATL@@V?$allocator@V?$CStringT@_WV?$StrTraitATL@_WV?$ChTraitsCRT@_W@ATL@@@ATL@@@ATL@@@std@@@std@@QAEPAV?$CStringT@_WV?$StrTraitATL@_WV?$ChTraitsCRT@_W@ATL@@@ATL@@@ATL@@QAV23@$$QAV23@@Z 100055a9 f i mdump.obj
 0001:0000468e       ??$_Move_unchecked@PAVCrashAttribute@@PAV1@@std@@YAPAVCrashAttribute@@PAV1@00@Z 1000568e f i mdump.obj
 0001:000046b4       ??$_Uninitialized_copy@PAV?$CStringT@_WV?$StrTraitATL@_WV?$ChTraitsCRT@_W@ATL@@@ATL@@@ATL@@V?$allocator@V?$CStringT@_WV?$StrTraitATL@_WV?$ChTraitsCRT@_W@ATL@@@ATL@@@ATL@@@std@@@std@@YAPAV?$CStringT@_WV?$StrTraitATL@_WV?$ChTraitsCRT@_W@ATL@@@ATL@@@ATL@@QAV12@0PAV12@AAV?$allocator@V?$CStringT@_WV?$StrTraitATL@_WV?$ChTraitsCRT@_W@ATL@@@ATL@@@ATL@@@0@@Z 100056b4 f i mdump.obj
 0001:00004704       ??$_Uninitialized_copy@PAVCrashAttribute@@V?$allocator@VCrashAttribute@@@std@@@std@@YAPAVCrashAttribute@@QAV1@0PAV1@AAV?$allocator@VCrashAttribute@@@0@@Z 10005704 f i mdump.obj
 0001:00004746       ??$_Uninitialized_move@PAV?$CStringT@_WV?$StrTraitATL@_WV?$ChTraitsCRT@_W@ATL@@@ATL@@@ATL@@V?$allocator@V?$CStringT@_WV?$StrTraitATL@_WV?$ChTraitsCRT@_W@ATL@@@ATL@@@ATL@@@std@@@std@@YAPAV?$CStringT@_WV?$StrTraitATL@_WV?$ChTraitsCRT@_W@ATL@@@ATL@@@ATL@@QAV12@0PAV12@AAV?$allocator@V?$CStringT@_WV?$StrTraitATL@_WV?$ChTraitsCRT@_W@ATL@@@ATL@@@ATL@@@0@@Z 10005746 f i mdump.obj
 0001:00004796       ??$_Uninitialized_move@PAVCrashAttribute@@V?$allocator@VCrashAttribute@@@std@@@std@@YAPAVCrashAttribute@@QAV1@0PAV1@AAV?$allocator@VCrashAttribute@@@0@@Z 10005796 f i mdump.obj
 0001:000047d8       ??$construct@V?$CStringT@_WV?$StrTraitATL@_WV?$ChTraitsCRT@_W@ATL@@@ATL@@@ATL@@AAV12@@?$_Default_allocator_traits@V?$allocator@V?$CStringT@_WV?$StrTraitATL@_WV?$ChTraitsCRT@_W@ATL@@@ATL@@@ATL@@@std@@@std@@SAXAAV?$allocator@V?$CStringT@_WV?$StrTraitATL@_WV?$ChTraitsCRT@_W@ATL@@@ATL@@@ATL@@@1@QAV?$CStringT@_WV?$StrTraitATL@_WV?$ChTraitsCRT@_W@ATL@@@ATL@@@ATL@@AAV34@@Z 100057d8 f i mdump.obj
 0001:000047f4       ??$construct@V?$CStringT@_WV?$StrTraitATL@_WV?$ChTraitsCRT@_W@ATL@@@ATL@@@ATL@@V12@@?$_Default_allocator_traits@V?$allocator@V?$CStringT@_WV?$StrTraitATL@_WV?$ChTraitsCRT@_W@ATL@@@ATL@@@ATL@@@std@@@std@@SAXAAV?$allocator@V?$CStringT@_WV?$StrTraitATL@_WV?$ChTraitsCRT@_W@ATL@@@ATL@@@ATL@@@1@QAV?$CStringT@_WV?$StrTraitATL@_WV?$ChTraitsCRT@_W@ATL@@@ATL@@@ATL@@$$QAV34@@Z 100057f4 f i mdump.obj
 0001:00004810       ??$emplace_back@ABVCrashAttribute@@@?$vector@VCrashAttribute@@V?$allocator@VCrashAttribute@@@std@@@std@@QAE?A_TABVCrashAttribute@@@Z 10005810 f i mdump.obj
 0001:00004839       ??$emplace_back@V?$CStringT@_WV?$StrTraitATL@_WV?$ChTraitsCRT@_W@ATL@@@ATL@@@ATL@@@?$vector@V?$CStringT@_WV?$StrTraitATL@_WV?$ChTraitsCRT@_W@ATL@@@ATL@@@ATL@@V?$allocator@V?$CStringT@_WV?$StrTraitATL@_WV?$ChTraitsCRT@_W@ATL@@@ATL@@@ATL@@@std@@@std@@QAE?A_T$$QAV?$CStringT@_WV?$StrTraitATL@_WV?$ChTraitsCRT@_W@ATL@@@ATL@@@ATL@@@Z 10005839 f i mdump.obj
 0001:00004864       ??0?$CStringT@_WV?$StrTraitATL@_WV?$ChTraitsCRT@_W@ATL@@@ATL@@@ATL@@QAE@PB_WPAUIAtlStringMgr@1@@Z 10005864 f i mdump.obj
 0001:000048c5       ??0?$GenericDocument@U?$UTF16@_W@rapidjson@@V?$MemoryPoolAllocator@VCrtAllocator@rapidjson@@@2@VCrtAllocator@2@@rapidjson@@QAE@PAV?$MemoryPoolAllocator@VCrtAllocator@rapidjson@@@1@IPAVCrtAllocator@1@@Z 100058c5 f i mdump.obj
 0001:0000494b       ??0?$GenericValue@U?$UTF16@_W@rapidjson@@V?$MemoryPoolAllocator@VCrtAllocator@rapidjson@@@2@@rapidjson@@QAE@H@Z 1000594b f i mdump.obj
 0001:0000497c       ??0?$GenericValue@U?$UTF16@_W@rapidjson@@V?$MemoryPoolAllocator@VCrtAllocator@rapidjson@@@2@@rapidjson@@QAE@I@Z 1000597c f i mdump.obj
 0001:000049a9       ??0?$GenericValue@U?$UTF16@_W@rapidjson@@V?$MemoryPoolAllocator@VCrtAllocator@rapidjson@@@2@@rapidjson@@QAE@PB_WIAAV?$MemoryPoolAllocator@VCrtAllocator@rapidjson@@@1@@Z 100059a9 f i mdump.obj
 0001:000049e3       ??0?$GenericValue@U?$UTF16@_W@rapidjson@@V?$MemoryPoolAllocator@VCrtAllocator@rapidjson@@@2@@rapidjson@@QAE@_J@Z 100059e3 f i mdump.obj
 0001:00004a53       ??0?$GenericValue@U?$UTF16@_W@rapidjson@@V?$MemoryPoolAllocator@VCrtAllocator@rapidjson@@@2@@rapidjson@@QAE@_K@Z 10005a53 f i mdump.obj
 0001:00004ab5       ??0?$MemoryPoolAllocator@VCrtAllocator@rapidjson@@@rapidjson@@QAE@IPAVCrtAllocator@1@@Z 10005ab5 f i mdump.obj
 0001:00004b33       ??0CrashAttribute@@QAE@$$QAV0@@Z 10005b33 f i mdump.obj
 0001:00004b7e       ??0CrashAttribute@@QAE@ABV0@@Z 10005b7e f i mdump.obj
 0001:00004bc9       ??0CrashAttribute@@QAE@PB_W0@Z 10005bc9 f i mdump.obj
 0001:00004c2f       ??0MiniDumper@@QAE@K@Z     10005c2f f   mdump.obj
 0001:00004da1       ??0TotalUptimeAndCrashCalculator@@QAE@PB_W00@Z 10005da1 f i mdump.obj
 0001:00004eae       ??1?$CHeapPtr@_WVCLocalAllocator@ATL@@@ATL@@QAE@XZ 10005eae f i mdump.obj
 0001:00004ebe       ??1?$GenericDocument@U?$UTF16@_W@rapidjson@@V?$MemoryPoolAllocator@VCrtAllocator@rapidjson@@@2@VCrtAllocator@2@@rapidjson@@QAE@XZ 10005ebe f i mdump.obj
 0001:00004edf       ??1?$GenericReader@U?$UTF16@_W@rapidjson@@U12@VCrtAllocator@2@@rapidjson@@QAE@XZ 10005edf f i mdump.obj
 0001:00004ee4       ??1?$GenericValue@U?$UTF16@_W@rapidjson@@V?$MemoryPoolAllocator@VCrtAllocator@rapidjson@@@2@@rapidjson@@QAE@XZ 10005ee4 f i mdump.obj
 0001:00004ee7       ??1?$MemoryPoolAllocator@VCrtAllocator@rapidjson@@@rapidjson@@QAE@XZ 10005ee7 f i mdump.obj
 0001:00004f23       ??1?$Stack@VCrtAllocator@rapidjson@@@internal@rapidjson@@QAE@XZ 10005f23 f i mdump.obj
 0001:00004f28       ??1?$StreamLocalCopy@U?$GenericStringStream@U?$UTF16@_W@rapidjson@@@rapidjson@@$00@internal@rapidjson@@QAE@XZ 10005f28 f i mdump.obj
 0001:00004f38       ??1?$_Uninitialized_backout_al@V?$allocator@V?$CStringT@_WV?$StrTraitATL@_WV?$ChTraitsCRT@_W@ATL@@@ATL@@@ATL@@@std@@@std@@QAE@XZ 10005f38 f i mdump.obj
 0001:00004f49       ??1?$_Uninitialized_backout_al@V?$allocator@VCrashAttribute@@@std@@@std@@QAE@XZ 10005f49 f i mdump.obj
 0001:00004f63       ??1?$vector@V?$CStringT@_WV?$StrTraitATL@_WV?$ChTraitsCRT@_W@ATL@@@ATL@@@ATL@@V?$allocator@V?$CStringT@_WV?$StrTraitATL@_WV?$ChTraitsCRT@_W@ATL@@@ATL@@@ATL@@@std@@@std@@QAE@XZ 10005f63 f i mdump.obj
 0001:00004f68       ??1?$vector@VCrashAttribute@@V?$allocator@VCrashAttribute@@@std@@@std@@QAE@XZ 10005f68 f i mdump.obj
 0001:00004f6d       ??1ClearStackOnExit@?$GenericDocument@U?$UTF16@_W@rapidjson@@V?$MemoryPoolAllocator@VCrtAllocator@rapidjson@@@2@VCrtAllocator@2@@rapidjson@@QAE@XZ 10005f6d f i mdump.obj
 0001:00004f7d       ??1ClearStackOnExit@?$GenericReader@U?$UTF16@_W@rapidjson@@U12@VCrtAllocator@2@@rapidjson@@QAE@XZ 10005f7d f i mdump.obj
 0001:00004f86       ??1CrashAttribute@@QAE@XZ  10005f86 f i mdump.obj
 0001:00004f9f       ??1DumpData@@QAE@XZ        10005f9f f i mdump.obj
 0001:00004faa       ??1MiniDumper@@UAE@XZ      10005faa f   mdump.obj
 0001:00005055       ??1ResourceSwitch@@QAE@XZ  10006055 f i mdump.obj
 0001:00005068       ??1TotalUptimeAndCrashCalculator@@QAE@XZ 10006068 f i mdump.obj
 0001:000050f1       ??4?$GenericValue@U?$UTF16@_W@rapidjson@@V?$MemoryPoolAllocator@VCrtAllocator@rapidjson@@@2@@rapidjson@@QAEAAV01@AAV01@@Z 100060f1 f i mdump.obj
 0001:00005120       ??4CrashAttribute@@QAEAAV0@$$QAV0@@Z 10006120 f i mdump.obj
 0001:00005144       ??8?$GenericValue@U?$UTF16@_W@rapidjson@@V?$MemoryPoolAllocator@VCrtAllocator@rapidjson@@@2@@rapidjson@@QBE_NPB_W@Z 10006144 f i mdump.obj
 0001:0000518d       ??B?$CSimpleStringT@_W$0A@@ATL@@QBEPB_WXZ 1000618d f i mdump.obj
 0001:00005190       ??HATL@@YA?AV?$CStringT@_WV?$StrTraitATL@_WV?$ChTraitsCRT@_W@ATL@@@ATL@@@0@ABV10@PB_W@Z 10006190 f i mdump.obj
 0001:00005202       ??HATL@@YA?AV?$CStringT@_WV?$StrTraitATL@_WV?$ChTraitsCRT@_W@ATL@@@ATL@@@0@ABV10@_W@Z 10006202 f i mdump.obj
 0001:0000526b       ??HATL@@YA?AV?$CStringT@_WV?$StrTraitATL@_WV?$ChTraitsCRT@_W@ATL@@@ATL@@@0@PB_WABV10@@Z 1000626b f i mdump.obj
 0001:000052e5       ??HATL@@YA?AV?$CStringT@_WV?$StrTraitATL@_WV?$ChTraitsCRT@_W@ATL@@@ATL@@@0@_WABV10@@Z 100062e5 f i mdump.obj
 0001:0000534e       ??_G?$CStringT@_WV?$StrTraitATL@_WV?$ChTraitsCRT@_W@ATL@@@ATL@@@ATL@@QAEPAXI@Z 1000634e f i mdump.obj
 0001:00005375       ??_EMiniDumper@@UAEPAXI@Z  10006375 f i mdump.obj
 0001:00005375       ??_GMiniDumper@@UAEPAXI@Z  10006375 f i mdump.obj
 0001:00005397       ?AddChunk@?$MemoryPoolAllocator@VCrtAllocator@rapidjson@@@rapidjson@@AAE_NI@Z 10006397 f i mdump.obj
 0001:000053e8       ?AllocGuardMemory@MiniDumper@@QAE_NXZ 100063e8 f   mdump.obj
 0001:0000540c       ?AppendFormat@?$CStringT@_WV?$StrTraitATL@_WV?$ChTraitsCRT@_W@ATL@@@ATL@@@ATL@@QAAXPB_WZZ 1000640c f i mdump.obj
 0001:00005420       ?AppendFormatV@?$CStringT@_WV?$StrTraitATL@_WV?$ChTraitsCRT@_W@ATL@@@ATL@@@ATL@@QAEXPB_WPAD@Z 10006420 f i mdump.obj
 0001:000054b6       ?AtlMessageBox@WTL@@YAHPAUHWND__@@V_U_STRINGorID@ATL@@1I@Z 100064b6 f i mdump.obj
 0001:000055df       ?Bool@?$GenericDocument@U?$UTF16@_W@rapidjson@@V?$MemoryPoolAllocator@VCrtAllocator@rapidjson@@@2@VCrtAllocator@2@@rapidjson@@QAE_N_N@Z 100065df f i mdump.obj
 0001:00005622       ?Clear@?$MemoryPoolAllocator@VCrtAllocator@rapidjson@@@rapidjson@@QAEXXZ 10006622 f i mdump.obj
 0001:00005643       ?CreateReportThreaded@MiniDumper@@SGIPAX@Z 10006643 f   mdump.obj
 0001:000059f7       ?Delete@?$CStringT@_WV?$StrTraitATL@_WV?$ChTraitsCRT@_W@ATL@@@ATL@@@ATL@@QAEHHH@Z 100069f7 f i mdump.obj
 0001:00005a75       ?Delta@TotalUptimeAndCrashCalculator@@QAE_JU_SYSTEMTIME@@0@Z 10006a75 f i mdump.obj
 0001:00005ad1       ?Destroy@?$GenericDocument@U?$UTF16@_W@rapidjson@@V?$MemoryPoolAllocator@VCrtAllocator@rapidjson@@@2@VCrtAllocator@2@@rapidjson@@AAEXXZ 10006ad1 f i mdump.obj
 0001:00005aec       ?Destroy@?$Stack@VCrtAllocator@rapidjson@@@internal@rapidjson@@AAEXXZ 10006aec f i mdump.obj
 0001:00005b06       ?Double@?$GenericDocument@U?$UTF16@_W@rapidjson@@V?$MemoryPoolAllocator@VCrtAllocator@rapidjson@@@2@VCrtAllocator@2@@rapidjson@@QAE_NN@Z 10006b06 f i mdump.obj
 0001:00005b4f       ?EndArray@?$GenericDocument@U?$UTF16@_W@rapidjson@@V?$MemoryPoolAllocator@VCrtAllocator@rapidjson@@@2@VCrtAllocator@2@@rapidjson@@QAE_NI@Z 10006b4f f i mdump.obj
 0001:00005b75       ?EndObject@?$GenericDocument@U?$UTF16@_W@rapidjson@@V?$MemoryPoolAllocator@VCrtAllocator@rapidjson@@@2@VCrtAllocator@2@@rapidjson@@QAE_NI@Z 10006b75 f i mdump.obj
 0001:00005b9b       ?ExceptionHandler@MiniDumper@@SGJPAU_EXCEPTION_POINTERS@@K@Z 10006b9b f   mdump.obj
 0001:00005e69       ?FastPath@internal@rapidjson@@YANNH@Z 10006e69 f i mdump.obj
 0001:00005e9c       ?FindMember@?$GenericValue@U?$UTF16@_W@rapidjson@@V?$MemoryPoolAllocator@VCrtAllocator@rapidjson@@@2@@rapidjson@@QAE?AV?$GenericMemberIterator@$0A@U?$UTF16@_W@rapidjson@@V?$MemoryPoolAllocator@VCrtAllocator@rapidjson@@@2@@2@PB_W@Z 10006e9c f i mdump.obj
 0001:00005ef9       ?Format@?$CStringT@_WV?$StrTraitATL@_WV?$ChTraitsCRT@_W@ATL@@@ATL@@@ATL@@QAAXPB_WZZ 10006ef9 f i mdump.obj
 0001:00005f0d       ?Format@?$ChTraitsCRT@_W@ATL@@SAHPA_WIPB_WPAD@Z 10006f0d f i mdump.obj
 0001:00005f3e       ?FormatMessageV@?$CStringT@_WV?$StrTraitATL@_WV?$ChTraitsCRT@_W@ATL@@@ATL@@@ATL@@QAEXPB_WPAPAD@Z 10006f3e f i mdump.obj
 0001:00006064       ?FormatMessageW@?$CStringT@_WV?$StrTraitATL@_WV?$ChTraitsCRT@_W@ATL@@@ATL@@@ATL@@QAAXIZZ 10007064 f i mdump.obj
 0001:000060ea       ?FormatV@?$CStringT@_WV?$StrTraitATL@_WV?$ChTraitsCRT@_W@ATL@@@ATL@@@ATL@@QAEXPB_WPAD@Z 100070ea f i mdump.obj
 0001:00006170       ?FreeGuardMemory@MiniDumper@@QAE_NXZ 10007170 f   mdump.obj
 0001:0000618e       ?GetBuffer@?$CSimpleStringT@_W$0A@@ATL@@QAEPA_WXZ 1000718e f i mdump.obj
 0001:000061a5       ?GetDouble@?$GenericValue@U?$UTF16@_W@rapidjson@@V?$MemoryPoolAllocator@VCrtAllocator@rapidjson@@@2@@rapidjson@@QBENXZ 100071a5 f i mdump.obj
 0001:00006212       ?GetFormattedLength@?$ChTraitsCRT@_W@ATL@@SAHPB_WPAD@Z 10007212 f i mdump.obj
 0001:00006240       ?GetFullDumpEnabledStatus@MiniDumper@@SA_NXZ 10007240 f   mdump.obj
 0001:00006535       ?GetMFA@MiniDumper@@SA_NPAXPA_WH@Z 10007535 f   mdump.obj
 0001:0000664a       ?GetStringLength@?$GenericValue@U?$UTF16@_W@rapidjson@@V?$MemoryPoolAllocator@VCrtAllocator@rapidjson@@@2@@rapidjson@@QBEIXZ 1000764a f i mdump.obj
 0001:00006665       ?GetUniqueTempFile@@YAXPA_WHPB_W@Z 10007665 f   mdump.obj
 0001:000067a0       ?Int64@?$GenericDocument@U?$UTF16@_W@rapidjson@@V?$MemoryPoolAllocator@VCrtAllocator@rapidjson@@@2@VCrtAllocator@2@@rapidjson@@QAE_N_J@Z 100077a0 f i mdump.obj
 0001:000067d8       ?Int@?$GenericDocument@U?$UTF16@_W@rapidjson@@V?$MemoryPoolAllocator@VCrtAllocator@rapidjson@@@2@VCrtAllocator@2@@rapidjson@@QAE_NH@Z 100077d8 f i mdump.obj
 0001:0000680d       ?IsError@ParseResult@rapidjson@@QBE_NXZ 1000780d f i mdump.obj
 0001:00006814       ?LaunchHangDetection@MiniDumper@@QAEX_N@Z 10007814 f   mdump.obj
 0001:0000697f       ?MakeLower@?$CStringT@_WV?$StrTraitATL@_WV?$ChTraitsCRT@_W@ATL@@@ATL@@@ATL@@QAEAAV12@XZ 1000797f f i mdump.obj
 0001:000069a7       ?Malloc@?$MemoryPoolAllocator@VCrtAllocator@rapidjson@@@rapidjson@@QAEPAXI@Z 100079a7 f i mdump.obj
 0001:000069f9       ?Null@?$GenericDocument@U?$UTF16@_W@rapidjson@@V?$MemoryPoolAllocator@VCrtAllocator@rapidjson@@@2@VCrtAllocator@2@@rapidjson@@QAE_NXZ 100079f9 f i mdump.obj
 0001:00006a28       ?Realloc@CrtAllocator@rapidjson@@QAEPAXPAXII@Z 10007a28 f i mdump.obj
 0001:00006a4e       ?ReleaseBuffer@?$CSimpleStringT@_W$0A@@ATL@@QAEXH@Z 10007a4e f i mdump.obj
 0001:00006a7a       ?Resize@?$Stack@VCrtAllocator@rapidjson@@@internal@rapidjson@@AAEXI@Z 10007a7a f i mdump.obj
 0001:00006ab2       ?ResolveMiniDumpType@MiniDumper@@SA?AW4_BS_MINIDUMP_TYPE@MiniDmpSender@@XZ 10007ab2 f   mdump.obj
 0001:00006af2       ?SendReportThreaded@MiniDumper@@SGIPAX@Z 10007af2 f   mdump.obj
 0001:00006fce       ?SetArrayRaw@?$GenericValue@U?$UTF16@_W@rapidjson@@V?$MemoryPoolAllocator@VCrtAllocator@rapidjson@@@2@@rapidjson@@AAEXPAV12@IAAV?$MemoryPoolAllocator@VCrtAllocator@rapidjson@@@2@@Z 10007fce f i mdump.obj
 0001:00007014       ?SetObjectRaw@?$GenericValue@U?$UTF16@_W@rapidjson@@V?$MemoryPoolAllocator@VCrtAllocator@rapidjson@@@2@@rapidjson@@AAEXPAV?$GenericMember@U?$UTF16@_W@rapidjson@@V?$MemoryPoolAllocator@VCrtAllocator@rapidjson@@@2@@2@IAAV?$MemoryPoolAllocator@VCrtAllocator@rapidjson@@@2@@Z 10008014 f i mdump.obj
 0001:0000705a       ?SetStringRaw@?$GenericValue@U?$UTF16@_W@rapidjson@@V?$MemoryPoolAllocator@VCrtAllocator@rapidjson@@@2@@rapidjson@@AAEXU?$GenericStringRef@_W@2@AAV?$MemoryPoolAllocator@VCrtAllocator@rapidjson@@@2@@Z 1000805a f i mdump.obj
 0001:000070bf       ?ShrinkToFit@?$Stack@VCrtAllocator@rapidjson@@@internal@rapidjson@@QAEXXZ 100080bf f i mdump.obj
 0001:000070eb       ?StartArray@?$GenericDocument@U?$UTF16@_W@rapidjson@@V?$MemoryPoolAllocator@VCrtAllocator@rapidjson@@@2@VCrtAllocator@2@@rapidjson@@QAE_NXZ 100080eb f i mdump.obj
 0001:00007123       ?StartObject@?$GenericDocument@U?$UTF16@_W@rapidjson@@V?$MemoryPoolAllocator@VCrtAllocator@rapidjson@@@2@VCrtAllocator@2@@rapidjson@@QAE_NXZ 10008123 f i mdump.obj
 0001:0000715b       ?String@?$GenericDocument@U?$UTF16@_W@rapidjson@@V?$MemoryPoolAllocator@VCrtAllocator@rapidjson@@@2@VCrtAllocator@2@@rapidjson@@QAE_NPB_WI_N@Z 1000815b f i mdump.obj
 0001:000071e3       ?StringLowercase@?$ChTraitsCRT@_W@ATL@@SAPA_WPA_WI@Z 100081e3 f i mdump.obj
 0001:000071ff       ?StrtodNormalPrecision@internal@rapidjson@@YANNH@Z 100081ff f i mdump.obj
 0001:00007236       ?TerminateHangDetection@MiniDumper@@QAEXXZ 10008236 f   mdump.obj
 0001:0000726a       ?TopLevelUnhandledExceptionFilter@MiniDumper@@SGJPAU_EXCEPTION_POINTERS@@@Z 1000826a f   mdump.obj
 0001:000072ce       ?TrimLeft@?$CStringT@_WV?$StrTraitATL@_WV?$ChTraitsCRT@_W@ATL@@@ATL@@@ATL@@QAEAAV12@XZ 100082ce f i mdump.obj
 0001:00007332       ?TrimRight@?$CStringT@_WV?$StrTraitATL@_WV?$ChTraitsCRT@_W@ATL@@@ATL@@@ATL@@QAEAAV12@XZ 10008332 f i mdump.obj
 0001:00007388       ?Uint64@?$GenericDocument@U?$UTF16@_W@rapidjson@@V?$MemoryPoolAllocator@VCrtAllocator@rapidjson@@@2@VCrtAllocator@2@@rapidjson@@QAE_N_K@Z 10008388 f i mdump.obj
 0001:000073c0       ?Uint@?$GenericDocument@U?$UTF16@_W@rapidjson@@V?$MemoryPoolAllocator@VCrtAllocator@rapidjson@@@2@VCrtAllocator@2@@rapidjson@@QAE_NI@Z 100083c0 f i mdump.obj
 0001:000073f5       ?_Calculate_growth@?$vector@V?$CStringT@_WV?$StrTraitATL@_WV?$ChTraitsCRT@_W@ATL@@@ATL@@@ATL@@V?$allocator@V?$CStringT@_WV?$StrTraitATL@_WV?$ChTraitsCRT@_W@ATL@@@ATL@@@ATL@@@std@@@std@@ABEII@Z 100083f5 f i mdump.obj
 0001:00007421       ?_Calculate_growth@?$vector@VCrashAttribute@@V?$allocator@VCrashAttribute@@@std@@@std@@ABEII@Z 10008421 f i mdump.obj
 0001:0000744d       ?_Change_array@?$vector@V?$CStringT@_WV?$StrTraitATL@_WV?$ChTraitsCRT@_W@ATL@@@ATL@@@ATL@@V?$allocator@V?$CStringT@_WV?$StrTraitATL@_WV?$ChTraitsCRT@_W@ATL@@@ATL@@@ATL@@@std@@@std@@AAEXQAV?$CStringT@_WV?$StrTraitATL@_WV?$ChTraitsCRT@_W@ATL@@@ATL@@@ATL@@II@Z 1000844d f i mdump.obj
 0001:00007492       ?_Change_array@?$vector@VCrashAttribute@@V?$allocator@VCrashAttribute@@@std@@@std@@AAEXQAVCrashAttribute@@II@Z 10008492 f i mdump.obj
 0001:000074e6       ?_Destroy@?$vector@V?$CStringT@_WV?$StrTraitATL@_WV?$ChTraitsCRT@_W@ATL@@@ATL@@@ATL@@V?$allocator@V?$CStringT@_WV?$StrTraitATL@_WV?$ChTraitsCRT@_W@ATL@@@ATL@@@ATL@@@std@@@std@@AAEXPAV?$CStringT@_WV?$StrTraitATL@_WV?$ChTraitsCRT@_W@ATL@@@ATL@@@ATL@@0@Z 100084e6 f i mdump.obj
 0001:000074fc       ?_Destroy@?$vector@VCrashAttribute@@V?$allocator@VCrashAttribute@@@std@@@std@@AAEXPAVCrashAttribute@@0@Z 100084fc f i mdump.obj
 0001:00007519       ?_Tidy@?$vector@V?$CStringT@_WV?$StrTraitATL@_WV?$ChTraitsCRT@_W@ATL@@@ATL@@@ATL@@V?$allocator@V?$CStringT@_WV?$StrTraitATL@_WV?$ChTraitsCRT@_W@ATL@@@ATL@@@ATL@@@std@@@std@@AAEXXZ 10008519 f i mdump.obj
 0001:0000754b       ?_Tidy@?$vector@VCrashAttribute@@V?$allocator@VCrashAttribute@@@std@@@std@@AAEXXZ 1000854b f i mdump.obj
 0001:0000758c       ?_Xlength@?$vector@V?$CStringT@_WV?$StrTraitATL@_WV?$ChTraitsCRT@_W@ATL@@@ATL@@@ATL@@V?$allocator@V?$CStringT@_WV?$StrTraitATL@_WV?$ChTraitsCRT@_W@ATL@@@ATL@@@ATL@@@std@@@std@@CAXXZ 1000858c f i mdump.obj
 0001:00007597       ?_Xlength@?$vector@VCrashAttribute@@V?$allocator@VCrashAttribute@@@std@@@std@@CAXXZ 10008597 f i mdump.obj
 0001:000075a2       ?allocate@?$allocator@V?$CStringT@_WV?$StrTraitATL@_WV?$ChTraitsCRT@_W@ATL@@@ATL@@@ATL@@@std@@QAEPAV?$CStringT@_WV?$StrTraitATL@_WV?$ChTraitsCRT@_W@ATL@@@ATL@@@ATL@@I@Z 100085a2 f i mdump.obj
 0001:000075c3       ?allocate@?$allocator@VCrashAttribute@@@std@@QAEPAVCrashAttribute@@I@Z 100085c3 f i mdump.obj
 0001:000075e4       ?attributesToJson@MiniDumper@@QAE?AV?$CStringT@_WV?$StrTraitATL@_WV?$ChTraitsCRT@_W@ATL@@@ATL@@@ATL@@XZ 100085e4 f   mdump.obj
 0001:00007776       ?bugsplatMessage@MiniDumper@@SAIPB_WII@Z 10008776 f   mdump.obj
 0001:000077b3       ?capture@TotalUptimeAndCrashCalculator@@QAEX_N@Z 100087b3 f i mdump.obj
 0001:00007909       ?createAsanReport@MiniDumper@@QAEXPBD@Z 10008909 f   mdump.obj
 0001:00007a04       ?createReport@MiniDumper@@QAEXK@Z 10008a04 f   mdump.obj
 0001:00007a26       ?createReport@MiniDumper@@QAEXPAU_EXCEPTION_POINTERS@@@Z 10008a26 f   mdump.obj
 0001:00007a48       ?createReport@MiniDumper@@QAEXPB_W@Z 10008a48 f   mdump.obj
 0001:00007b29       ?deallocate@?$allocator@V?$CStringT@_WV?$StrTraitATL@_WV?$ChTraitsCRT@_W@ATL@@@ATL@@@ATL@@@std@@QAEXQAV?$CStringT@_WV?$StrTraitATL@_WV?$ChTraitsCRT@_W@ATL@@@ATL@@@ATL@@I@Z 10008b29 f i mdump.obj
 0001:00007b41       ?deallocate@?$allocator@VCrashAttribute@@@std@@QAEXQAVCrashAttribute@@I@Z 10008b41 f i mdump.obj
 0001:00007b59       ?debugMode@@YA_NXZ         10008b59 f   mdump.obj
 0001:00007bcb       ?disableNetworkAccess@MiniDumper@@QAE_N_N@Z 10008bcb f   mdump.obj
 0001:00007bda       ?eatException@@YA_NK@Z     10008bda f i mdump.obj
 0001:00007c4f       ?enableExceptionFilter@MiniDumper@@QAE_N_N@Z 10008c4f f   mdump.obj
 0001:00007c6e       ?erase@?$vector@VCrashAttribute@@V?$allocator@VCrashAttribute@@@std@@@std@@QAE?AV?$_Vector_iterator@V?$_Vector_val@U?$_Simple_types@VCrashAttribute@@@std@@@std@@@2@V?$_Vector_const_iterator@V?$_Vector_val@U?$_Simple_types@VCrashAttribute@@@std@@@std@@@2@@Z 10008c6e f i mdump.obj
 0001:00007ca2       ?getLogFilePath@MiniDumper@@QAEPB_WXZ 10008ca2 f   mdump.obj
 0001:00007ca6       ?getMiniDumpType@MiniDumper@@QBE?AW4_BS_MINIDUMP_TYPE@MiniDmpSender@@XZ 10008ca6 f   mdump.obj
 0001:00007cac       ?getRegistryBase@@YAXAAV?$CStringT@_WV?$StrTraitATL@_WV?$ChTraitsCRT@_W@ATL@@@ATL@@@ATL@@@Z 10008cac f   mdump.obj
 0001:00007cc9       ?getRegistryRoot@@YAXAAV?$CStringT@_WV?$StrTraitATL@_WV?$ChTraitsCRT@_W@ATL@@@ATL@@@ATL@@PB_W11@Z 10008cc9 f   mdump.obj
 0001:00007d38       ?initExceptionHandler@MiniDumper@@QAEXPB_W000K@Z 10008d38 f   mdump.obj
 0001:00007f90       ?invalid_parameter_handler@@YAXPB_W00II@Z 10008f90 f i mdump.obj
 0001:00007f99       ?isExceptionFilterEnabled@MiniDumper@@QBE_NXZ 10008f99 f   mdump.obj
 0001:00007f9f       ?isNetworkAccessDisabled@MiniDumper@@QBE_NXZ 10008f9f f   mdump.obj
 0001:00007fa5       ?logOutput@@YAXIPB_W_N@Z   10008fa5 f   mdump.obj
 0001:000081f2       ?removeAdditionalFile@MiniDumper@@QAE_NPB_W@Z 100091f2 f   mdump.obj
 0001:00008242       ?removeAttribute@MiniDumper@@QAE_NPB_W@Z 10009242 f   mdump.obj
 0001:00008281       ?resetDescriptionString@MiniDumper@@QAEXPB_W@Z 10009281 f   mdump.obj
 0001:000082ab       ?resetVersionString@MiniDumper@@QAEXPB_W@Z 100092ab f   mdump.obj
 0001:000082d3       ?sendAdditionalFile@MiniDumper@@QAEXPB_W@Z 100092d3 f   mdump.obj
 0001:0000830f       ?setAttribute@MiniDumper@@QAE_NPB_W0@Z 1000930f f   mdump.obj
 0001:00008357       ?setCallback@MiniDumper@@QAEXP6A_NIPAX0@Z@Z 10009357 f   mdump.obj
 0001:00008364       ?setDefaultUserDescription@MiniDumper@@QAEXPB_W@Z 10009364 f   mdump.obj
 0001:0000838e       ?setDefaultUserEmail@MiniDumper@@QAEXPB_W@Z 1000938e f   mdump.obj
 0001:000083b8       ?setDefaultUserName@MiniDumper@@QAEXPB_W@Z 100093b8 f   mdump.obj
 0001:000083e2       ?setFlags@MiniDumper@@QAE_NK@Z 100093e2 f   mdump.obj
 0001:0000842a       ?setGuardByteBufferSize@MiniDumper@@QAEHH@Z 1000942a f   mdump.obj
 0001:00008456       ?setHangDetectionTimeout@MiniDumper@@QAEHH@Z 10009456 f   mdump.obj
 0001:0000846c       ?setLogFilePath@MiniDumper@@QAEXPB_W@Z 1000946c f   mdump.obj
 0001:00008496       ?setMiniDumpType@MiniDumper@@QAEXW4_BS_MINIDUMP_TYPE@MiniDmpSender@@@Z 10009496 f   mdump.obj
 0001:000084a5       ?setNotes@MiniDumper@@QAEXPB_W@Z 100094a5 f   mdump.obj
 0001:000084cd       ?setResourceDllPath@MiniDumper@@QAEXPB_W@Z 100094cd f   mdump.obj
 0001:000084f7       ?setUserZipPath@MiniDumper@@QAEXPB_W@Z 100094f7 f   mdump.obj
 0001:00008521       ?signal_handler@@YAXH@Z    10009521 f i mdump.obj
 0001:0000852a       ?terminator@@YAXXZ         1000952a f i mdump.obj
 0001:00008533       __fwprintf_p               10009533 f i mdump.obj
 0001:0000854c       __vfwprintf_l              1000954c f i mdump.obj
 0001:0000856f       __vfwprintf_p_l            1000956f f i mdump.obj
 0001:00008611       _wprintf                   10009611 f i mdump.obj
 0001:00008630       ??0MiniDmpSender@@QAE@PB_W000K@Z 10009630 f   BugSplatNative.obj
 0001:000086c9       ??1MiniDmpSender@@UAE@XZ   100096c9 f   BugSplatNative.obj
 0001:000086e5       ?createAsanReport@MiniDmpSender@@QAEXPBD@Z 100096e5 f   BugSplatNative.obj
 0001:000086f1       ?createReport@MiniDmpSender@@QAEXPAU_EXCEPTION_POINTERS@@@Z 100096f1 f   BugSplatNative.obj
 0001:000086fd       ?createReport@MiniDmpSender@@QAEXPB_W@Z 100096fd f   BugSplatNative.obj
 0001:00008709       ?disableNetworkAccess@MiniDmpSender@@QAE_N_N@Z 10009709 f   BugSplatNative.obj
 0001:00008715       ?enableExceptionFilter@MiniDmpSender@@QAE_N_N@Z 10009715 f   BugSplatNative.obj
 0001:00008721       ?getFlags@MiniDmpSender@@QBEKXZ 10009721 f   BugSplatNative.obj
 0001:00008728       ?getMiniDumpType@MiniDmpSender@@QBE?AW4_BS_MINIDUMP_TYPE@1@XZ 10009728 f   BugSplatNative.obj
 0001:00008730       ?getMinidumpPath@MiniDmpSender@@QAEXPA_WI@Z 10009730 f   BugSplatNative.obj
 0001:0000874d       ?imp@MiniDmpSender@@QAEPAXXZ 1000974d f   BugSplatNative.obj
 0001:00008753       ?isExceptionFilterEnabled@MiniDmpSender@@QBE_NXZ 10009753 f   BugSplatNative.obj
 0001:0000875b       ?isNetworkAccessDisabled@MiniDmpSender@@QBE_NXZ 1000975b f   BugSplatNative.obj
 0001:00008763       ?removeAdditionalFile@MiniDmpSender@@QAE_NPB_W@Z 10009763 f   BugSplatNative.obj
 0001:0000876f       ?resetAppIdentifier@MiniDmpSender@@QAEXPB_W@Z 1000976f f   BugSplatNative.obj
 0001:0000877b       ?resetVersionString@MiniDmpSender@@QAEXPB_W@Z 1000977b f   BugSplatNative.obj
 0001:00008787       ?sendAdditionalFile@MiniDmpSender@@QAEXPB_W@Z 10009787 f   BugSplatNative.obj
 0001:00008793       ?setAttribute@MiniDmpSender@@QAE_NPB_W0@Z 10009793 f   BugSplatNative.obj
 0001:000087aa       ?setCallback@MiniDmpSender@@QAEXP6A_NIPAX0@Z@Z 100097aa f   BugSplatNative.obj
 0001:000087b6       ?setDefaultUserDescription@MiniDmpSender@@QAEXPB_W@Z 100097b6 f   BugSplatNative.obj
 0001:000087c2       ?setDefaultUserEmail@MiniDmpSender@@QAEXPB_W@Z 100097c2 f   BugSplatNative.obj
 0001:000087ce       ?setDefaultUserName@MiniDmpSender@@QAEXPB_W@Z 100097ce f   BugSplatNative.obj
 0001:000087da       ?setFlags@MiniDmpSender@@QAE_NK@Z 100097da f   BugSplatNative.obj
 0001:000087e6       ?setGuardByteBufferSize@MiniDmpSender@@QAEHH@Z 100097e6 f   BugSplatNative.obj
 0001:000087f2       ?setHangDetectionTimeout@MiniDmpSender@@QAEHH@Z 100097f2 f   BugSplatNative.obj
 0001:000087fe       ?setLogFilePath@MiniDmpSender@@QAEXPB_W@Z 100097fe f   BugSplatNative.obj
 0001:0000880a       ?setMiniDumpType@MiniDmpSender@@QAEXW4_BS_MINIDUMP_TYPE@1@@Z 1000980a f   BugSplatNative.obj
 0001:00008816       ?setNotes@MiniDmpSender@@QAEXPB_W@Z 10009816 f   BugSplatNative.obj
 0001:00008822       ?setResourceDllPath@MiniDmpSender@@QAEXPB_W@Z 10009822 f   BugSplatNative.obj
 0001:0000882e       ?setUserZipPath@MiniDmpSender@@QAEXPB_W@Z 1000982e f   BugSplatNative.obj
 0001:0000883a       ?unhandledExceptionHandler@MiniDmpSender@@QAEJPAU_EXCEPTION_POINTERS@@@Z 1000983a f   BugSplatNative.obj
 0001:00008843       ?Lock@CAtlModule@ATL@@UAEJXZ 10009843 f i BugSplatNativeApp.obj
 0001:0000884d       ?Unlock@CAtlModule@ATL@@UAEJXZ 1000984d f i BugSplatNativeApp.obj
 0001:00008857       ?GetLockCount@CAtlModule@ATL@@UAEJXZ 10009857 f i BugSplatNativeApp.obj
 0001:0000885b       ?GetGITPtr@CAtlModule@ATL@@UAEJPAPAUIGlobalInterfaceTable@@@Z 1000985b f i BugSplatNativeApp.obj
 0001:000088a7       ?AddCommonRGSReplacements@?$CAtlModuleT@VCComModule@ATL@@@ATL@@UAEJPAUIRegistrarBase@@@Z 100098a7 f i BugSplatNativeApp.obj
 0001:000088c1       ?UpdateRegistryFromResourceD@CComModule@ATL@@UAGJPB_WHPAU_ATL_REGMAP_ENTRY@2@@Z 100098c1 f i BugSplatNativeApp.obj
 0001:000088c9       ?UpdateRegistryFromResourceD@CComModule@ATL@@UAGJIHPAU_ATL_REGMAP_ENTRY@2@@Z 100098c9 f i BugSplatNativeApp.obj
 0001:000088d1       ?UpdateRegistryFromResource@CComModule@ATL@@UAGJPB_WHPAU_ATL_REGMAP_ENTRY@2@@Z 100098d1 f i BugSplatNativeApp.obj
 0001:000088da       ?UpdateRegistryFromResource@CComModule@ATL@@UAGJIHPAU_ATL_REGMAP_ENTRY@2@@Z 100098da f i BugSplatNativeApp.obj
 0001:000088e3       ??_GCComModule@ATL@@UAEPAXI@Z 100098e3 f i BugSplatNativeApp.obj
 0001:000088e3       ??_ECComModule@ATL@@UAEPAXI@Z 100098e3 f i BugSplatNativeApp.obj
 0001:0000890b       ??_ECAppModule@WTL@@UAEPAXI@Z 1000990b f i BugSplatNativeApp.obj
 0001:0000890b       ??_GCAppModule@WTL@@UAEPAXI@Z 1000990b f i BugSplatNativeApp.obj
 0001:00008933       ?QueryInterface@CRegObject@ATL@@UAGJABU_GUID@@PAPAX@Z 10009933 f i BugSplatNativeApp.obj
 0001:0000893b       ?AddRef@CRegObject@ATL@@UAGKXZ 1000993b f i BugSplatNativeApp.obj
 0001:00008941       ?Release@CRegObject@ATL@@UAGKXZ 10009941 f i BugSplatNativeApp.obj
 0001:00008946       ?AddReplacement@CRegObject@ATL@@UAGJPB_W0@Z 10009946 f i BugSplatNativeApp.obj
 0001:000089a5       ?ClearReplacements@CRegObject@ATL@@UAGJXZ 100099a5 f i BugSplatNativeApp.obj
 0001:000089d0       ??_ECRegObject@ATL@@UAEPAXI@Z 100099d0 f i BugSplatNativeApp.obj
 0001:000089d0       ??_GCRegObject@ATL@@UAEPAXI@Z 100099d0 f i BugSplatNativeApp.obj
 0001:000089f2       ??$AtlMultiplyThrow@I@ATL@@YAIII@Z 100099f2 f i BugSplatNativeApp.obj
 0001:00008a18       ??0CAtlModule@ATL@@QAE@XZ  10009a18 f i BugSplatNativeApp.obj
 0001:00008a59       ??0CParseBuffer@CRegParser@ATL@@QAE@H@Z 10009a59 f i BugSplatNativeApp.obj
 0001:00008a8f       ??0CRegObject@ATL@@QAE@XZ  10009a8f f i BugSplatNativeApp.obj
 0001:00008ac5       ??0_ATL_MODULE70@ATL@@QAE@XZ 10009ac5 f i BugSplatNativeApp.obj
 0001:00008adc       ??1?$CAtlSafeAllocBufferManager@VCCRTAllocator@ATL@@@_ATL_SAFE_ALLOCA_IMPL@ATL@@QAE@XZ 10009adc f i BugSplatNativeApp.obj
 0001:00008af5       ??1?$CAutoVectorPtr@_W@ATL@@QAE@XZ 10009af5 f i BugSplatNativeApp.obj
 0001:00008b05       ??1?$CTempBuffer@E$0BAA@VCCRTAllocator@ATL@@@ATL@@QAE@XZ 10009b05 f i BugSplatNativeApp.obj
 0001:00008b11       ??1?$CTempBuffer@_W$0BAA@VCCRTAllocator@ATL@@@ATL@@QAE@XZ 10009b11 f i BugSplatNativeApp.obj
 0001:00008b1d       ??1?$CTempBuffer@_W$0EAA@VCCRTAllocator@ATL@@@ATL@@QAE@XZ 10009b1d f i BugSplatNativeApp.obj
 0001:00008b29       ??1CAtlModule@ATL@@UAE@XZ  10009b29 f i BugSplatNativeApp.obj
 0001:00008b2e       ??1CParseBuffer@CRegParser@ATL@@QAE@XZ 10009b2e f i BugSplatNativeApp.obj
 0001:00008b38       ??1CRegKey@ATL@@QAE@XZ     10009b38 f i BugSplatNativeApp.obj
 0001:00008b3d       ??1CRegObject@ATL@@UAE@XZ  10009b3d f i BugSplatNativeApp.obj
 0001:00008b71       ??A?$CSimpleArray@PAUHWND__@@V?$CSimpleArrayEqualHelper@PAUHWND__@@@ATL@@@ATL@@QAEAAPAUHWND__@@H@Z 10009b71 f i BugSplatNativeApp.obj
 0001:00008b96       ?Add@?$CSimpleMap@PA_WPA_WVCExpansionVectorEqualHelper@ATL@@@ATL@@QAEHABQA_W0@Z 10009b96 f i BugSplatNativeApp.obj
 0001:00008beb       ?Add@CExpansionVector@ATL@@QAEHPB_W0@Z 10009beb f i BugSplatNativeApp.obj
 0001:00008cd9       ?AddString@CParseBuffer@CRegParser@ATL@@QAEHPB_W@Z 10009cd9 f i BugSplatNativeApp.obj
 0001:00008d15       ?AddValue@CRegParser@ATL@@IAEJAAVCRegKey@2@PB_WPA_W@Z 10009d15 f i BugSplatNativeApp.obj
 0001:00009095       ?Allocate@?$CTempBuffer@E$0BAA@VCCRTAllocator@ATL@@@ATL@@QAEPAEI@Z 1000a095 f i BugSplatNativeApp.obj
 0001:000090c4       ?Allocate@?$CTempBuffer@_W$0BAA@VCCRTAllocator@ATL@@@ATL@@QAEPA_WI@Z 1000a0c4 f i BugSplatNativeApp.obj
 0001:000090f3       ?Allocate@?$CTempBuffer@_W$0EAA@VCCRTAllocator@ATL@@@ATL@@QAEPA_WI@Z 1000a0f3 f i BugSplatNativeApp.obj
 0001:00009122       ?AllocateHeap@?$CTempBuffer@E$0BAA@VCCRTAllocator@ATL@@@ATL@@AAEXI@Z 1000a122 f i BugSplatNativeApp.obj
 0001:00009147       ?AllocateHeap@?$CTempBuffer@_W$0BAA@VCCRTAllocator@ATL@@@ATL@@AAEXI@Z 1000a147 f i BugSplatNativeApp.obj
 0001:0000916c       ?AllocateHeap@?$CTempBuffer@_W$0EAA@VCCRTAllocator@ATL@@@ATL@@AAEXI@Z 1000a16c f i BugSplatNativeApp.obj
 0001:00009191       ?Append@CParseBuffer@CRegParser@ATL@@QAEHPB_WH@Z 1000a191 f i BugSplatNativeApp.obj
 0001:0000921f       ?AtlCoTaskMemCAlloc@ATL@@YAPAXKK@Z 1000a21f f i BugSplatNativeApp.obj
 0001:0000924c       ?AtlCoTaskMemRecalloc@ATL@@YAPAXPAXKK@Z 1000a24c f i BugSplatNativeApp.obj
 0001:0000927c       ?AtlHresultFromLastError@ATL@@YAJXZ 1000a27c f i BugSplatNativeApp.obj
 0001:00009293       ?AtlHresultFromWin32@ATL@@YAJK@Z 1000a293 f i BugSplatNativeApp.obj
 0001:000092a8       ?CanForceRemoveKey@CRegParser@ATL@@IAEHPB_W@Z 1000a2a8 f i BugSplatNativeApp.obj
 0001:000092d7       ?ChToByte@CRegParser@ATL@@KAE_W@Z 1000a2d7 f i BugSplatNativeApp.obj
 0001:0000935f       ?ClearReplacements@CExpansionVector@ATL@@QAEJXZ 1000a35f f i BugSplatNativeApp.obj
 0001:0000939c       ?Close@CRegKey@ATL@@QAEJXZ 1000a39c f i BugSplatNativeApp.obj
 0001:000093b6       ?DeleteSubKey@CRegKey@ATL@@QAEJPB_W@Z 1000a3b6 f i BugSplatNativeApp.obj
 0001:0000942f       ?EndOfVar@CRegParser@ATL@@IAEHXZ 1000a42f f i BugSplatNativeApp.obj
 0001:0000944f       ?EscapeSingleQuote@CAtlModule@ATL@@SAXPA_WIPB_W@Z 1000a44f f i BugSplatNativeApp.obj
 0001:0000949e       ?FindKey@?$CSimpleMap@PA_WPA_WVCExpansionVectorEqualHelper@ATL@@@ATL@@QBEHABQA_W@Z 1000a49e f i BugSplatNativeApp.obj
 0001:000094d5       ?FreeHeap@?$CTempBuffer@E$0BAA@VCCRTAllocator@ATL@@@ATL@@AAEXXZ 1000a4d5 f i BugSplatNativeApp.obj
 0001:000094de       ?FreeHeap@?$CTempBuffer@_W$0BAA@VCCRTAllocator@ATL@@@ATL@@AAEXXZ 1000a4de f i BugSplatNativeApp.obj
 0001:000094e7       ?FreeHeap@?$CTempBuffer@_W$0EAA@VCCRTAllocator@ATL@@@ATL@@AAEXXZ 1000a4e7 f i BugSplatNativeApp.obj
 0001:000094f0       ?GetKeyAt@?$CSimpleMap@PA_WPA_WVCExpansionVectorEqualHelper@ATL@@@ATL@@QBEAAPA_WH@Z 1000a4f0 f i BugSplatNativeApp.obj
 0001:00009515       ?GetValueAt@?$CSimpleMap@PA_WPA_WVCExpansionVectorEqualHelper@ATL@@@ATL@@QBEAAPA_WH@Z 1000a515 f i BugSplatNativeApp.obj
 0001:0000953b       ?HKeyFromString@CRegParser@ATL@@KAPAUHKEY__@@PA_W@Z 1000a53b f i BugSplatNativeApp.obj
 0001:00009569       ?HasSubKeys@CRegParser@ATL@@IAEHPAUHKEY__@@@Z 1000a569 f i BugSplatNativeApp.obj
 0001:0000959e       ?Init@CAppModule@WTL@@QAEJPAU_ATL_OBJMAP_ENTRY30@ATL@@PAUHINSTANCE__@@PBU_GUID@@@Z 1000a59e f i BugSplatNativeApp.obj
 0001:00009622       ?Init@CComModule@ATL@@QAEJPAU_ATL_OBJMAP_ENTRY30@2@PAUHINSTANCE__@@PBU_GUID@@@Z 1000a622 f i BugSplatNativeApp.obj
 0001:00009681       ?InternalSetAtIndex@?$CSimpleMap@PA_WPA_WVCExpansionVectorEqualHelper@ATL@@@ATL@@QAEXHABQA_W0@Z 1000a681 f i BugSplatNativeApp.obj
 0001:000096b5       ?IsSpace@CRegParser@ATL@@IAEH_W@Z 1000a6b5 f i BugSplatNativeApp.obj
 0001:000096db       ?Lookup@?$CSimpleMap@PA_WPA_WVCExpansionVectorEqualHelper@ATL@@@ATL@@QBEPA_WABQA_W@Z 1000a6db f i BugSplatNativeApp.obj
 0001:00009701       ?NextToken@CRegParser@ATL@@IAEJPA_W@Z 1000a701 f i BugSplatNativeApp.obj
 0001:00009839       ?Open@CRegKey@ATL@@QAEJPAUHKEY__@@PB_WK@Z 1000a839 f i BugSplatNativeApp.obj
 0001:0000988e       ?PreProcessBuffer@CRegParser@ATL@@QAEJPA_WPAPA_W@Z 1000a88e f i BugSplatNativeApp.obj
 0001:00009adb       ?RecurseDeleteKey@CRegKey@ATL@@QAEJPB_W@Z 1000aadb f i BugSplatNativeApp.obj
 0001:00009bc9       ?RegCreateKeyExW@CAtlTransactionManager@ATL@@QAEJPAUHKEY__@@PB_WKPA_WKKQAU_SECURITY_ATTRIBUTES@@PAPAU3@PAK@Z 1000abc9 f i BugSplatNativeApp.obj
 0001:00009c2c       ?RegDeleteKeyW@CAtlTransactionManager@ATL@@QAEJPAUHKEY__@@PB_W@Z 1000ac2c f i BugSplatNativeApp.obj
 0001:00009c7e       ?RegOpenKeyExW@CAtlTransactionManager@ATL@@QAEJPAUHKEY__@@PB_WKKPAPAU3@@Z 1000ac7e f i BugSplatNativeApp.obj
 0001:00009cd5       ?RegisterBuffer@CRegParser@ATL@@QAEJPA_WH@Z 1000acd5 f i BugSplatNativeApp.obj
 0001:00009e1c       ?RegisterFromResource@CRegObject@ATL@@IAEJPB_W00H@Z 1000ae1c f i BugSplatNativeApp.obj
 0001:00009f93       ?RegisterSubkeys@CRegParser@ATL@@IAEJPA_WPAUHKEY__@@HH@Z 1000af93 f i BugSplatNativeApp.obj
 0001:0000a612       ?RemoveAll@?$CSimpleArray@PAUHWND__@@V?$CSimpleArrayEqualHelper@PAUHWND__@@@ATL@@@ATL@@QAEXXZ 1000b612 f i BugSplatNativeApp.obj
 0001:0000a62f       ?RemoveAll@?$CSimpleMap@KPAVCMessageLoop@WTL@@V?$CSimpleMapEqualHelper@KPAVCMessageLoop@WTL@@@ATL@@@ATL@@QAEXXZ 1000b62f f i BugSplatNativeApp.obj
 0001:0000a65b       ?RemoveAll@?$CSimpleMap@PA_WPA_WVCExpansionVectorEqualHelper@ATL@@@ATL@@QAEXXZ 1000b65b f i BugSplatNativeApp.obj
 0001:0000a687       ?ResourceRegister@CRegObject@ATL@@QAGJPB_WI0@Z 1000b687 f i BugSplatNativeApp.obj
 0001:0000a6b8       ?ResourceRegisterSz@CRegObject@ATL@@QAGJPB_W00@Z 1000b6b8 f i BugSplatNativeApp.obj
 0001:0000a6fa       ?ResourceUnregister@CRegObject@ATL@@QAGJPB_WI0@Z 1000b6fa f i BugSplatNativeApp.obj
 0001:0000a72a       ?ResourceUnregisterSz@CRegObject@ATL@@QAGJPB_W00@Z 1000b72a f i BugSplatNativeApp.obj
 0001:0000a769       ?SetMultiStringValue@CRegKey@ATL@@QAEJPB_W0@Z 1000b769 f i BugSplatNativeApp.obj
 0001:0000a7b1       ?SetStringValue@CRegKey@ATL@@QAEJPB_W0K@Z 1000b7b1 f i BugSplatNativeApp.obj
 0001:0000a7eb       ?SkipAssignment@CRegParser@ATL@@IAEJPA_W@Z 1000b7eb f i BugSplatNativeApp.obj
 0001:0000a850       ?SkipWhiteSpace@CRegParser@ATL@@IAEXXZ 1000b850 f i BugSplatNativeApp.obj
 0001:0000a872       ?StrChrW@CRegParser@ATL@@KAPA_WPA_W_W@Z 1000b872 f i BugSplatNativeApp.obj
 0001:0000a8af       ?StrFromMap@CRegObject@ATL@@QAEPB_WPA_W@Z 1000b8af f i BugSplatNativeApp.obj
 0001:0000a8dd       ?Term@CAppModule@WTL@@QAEXXZ 1000b8dd f i BugSplatNativeApp.obj
 0001:0000a907       ?Term@CAtlModule@ATL@@QAEXXZ 1000b907 f i BugSplatNativeApp.obj
 0001:0000a95a       ?Term@CComModule@ATL@@QAEXXZ 1000b95a f i BugSplatNativeApp.obj
 0001:0000a9b2       ?TermSettingChangeNotify@CAppModule@WTL@@QAEXXZ 1000b9b2 f i BugSplatNativeApp.obj
 0001:0000aa0c       ?UpdateRegistryFromResource@CAtlModule@ATL@@QAGJIHPAU_ATL_REGMAP_ENTRY@2@@Z 1000ba0c f i BugSplatNativeApp.obj
 0001:0000abd1       ?UpdateRegistryFromResource@CAtlModule@ATL@@QAGJPB_WHPAU_ATL_REGMAP_ENTRY@2@@Z 1000bbd1 f i BugSplatNativeApp.obj
 0001:0000ad99       ?VTFromRegType@CRegParser@ATL@@KAHPB_WAAG@Z 1000bd99 f i BugSplatNativeApp.obj
 0001:0000ae06       ?ocscpy_s@@YA_NPA_WIPB_W@Z 1000be06 f i BugSplatNativeApp.obj
 0001:0000ae40       _DllMain@12                1000be40 f   BugSplatNativeApp.obj
 0001:0000aef2       ?PiiReplaceUserInPath@@YA?AV?$CStringT@_WV?$StrTraitATL@_WV?$ChTraitsCRT@_W@ATL@@@ATL@@@ATL@@V12@@Z 1000bef2 f   Pii.obj
 0001:0000b026       ??1stringdispid@CComTypeInfoHolder@ATL@@QAE@XZ 1000c026 f i StdAfx.obj
 0001:0000b02f       ??_Estringdispid@CComTypeInfoHolder@ATL@@QAEPAXI@Z 1000c02f f i StdAfx.obj
 0001:0000b0ba       _InternetOpenW@20          1000c0ba f   wininet:WININET.dll
 0001:0000b0c0       _InternetCloseHandle@4     1000c0c0 f   wininet:WININET.dll
 0001:0000b0c6       _InternetConnectW@32       1000c0c6 f   wininet:WININET.dll
 0001:0000b0cc       _InternetReadFile@16       1000c0cc f   wininet:WININET.dll
 0001:0000b0d2       _InternetQueryOptionW@16   1000c0d2 f   wininet:WININET.dll
 0001:0000b0d8       _InternetSetOptionW@16     1000c0d8 f   wininet:WININET.dll
 0001:0000b0de       _HttpOpenRequestW@32       1000c0de f   wininet:WININET.dll
 0001:0000b0e4       _HttpSendRequestW@20       1000c0e4 f   wininet:WININET.dll
 0001:0000b0ea       _HttpQueryInfoW@20         1000c0ea f   wininet:WININET.dll
 0001:0000b0f0       _InternetAttemptConnect@4  1000c0f0 f   wininet:WININET.dll
 0001:0000b0f6       _PathFileExistsW@4         1000c0f6 f   shlwapi:SHLWAPI.dll
 0001:0000b0fc       _PathAppendW@8             1000c0fc f   shlwapi:SHLWAPI.dll
 0001:0000b102       _PathFindExtensionW@4      1000c102 f   shlwapi:SHLWAPI.dll
 0001:0000b108       _PathFindFileNameW@4       1000c108 f   shlwapi:SHLWAPI.dll
 0001:0000b10e       _PathRemoveExtensionW@4    1000c10e f   shlwapi:SHLWAPI.dll
 0001:0000b114       _PathStripPathW@4          1000c114 f   shlwapi:SHLWAPI.dll
 0001:0000b11a       _UrlEscapeW@16             1000c11a f   shlwapi:SHLWAPI.dll
 0001:0000b120       _CreateFileW@28            1000c120 f   kernel32:KERNEL32.dll
 0001:0000b126       _GetFileSize@8             1000c126 f   kernel32:KERNEL32.dll
 0001:0000b12c       _DecodePointer@4           1000c12c f   kernel32:KERNEL32.dll
 0001:0000b132       _CloseHandle@4             1000c132 f   kernel32:KERNEL32.dll
 0001:0000b138       _RaiseException@16         1000c138 f   kernel32:KERNEL32.dll
 0001:0000b13e       _GetLastError@0            1000c13e f   kernel32:KERNEL32.dll
 0001:0000b144       _HeapDestroy@4             1000c144 f   kernel32:KERNEL32.dll
 0001:0000b14a       _HeapAlloc@12              1000c14a f   kernel32:KERNEL32.dll
 0001:0000b150       _HeapReAlloc@16            1000c150 f   kernel32:KERNEL32.dll
 0001:0000b156       _HeapFree@12               1000c156 f   kernel32:KERNEL32.dll
 0001:0000b15c       _HeapSize@12               1000c15c f   kernel32:KERNEL32.dll
 0001:0000b162       _GetProcessHeap@0          1000c162 f   kernel32:KERNEL32.dll
 0001:0000b168       _InitializeCriticalSectionEx@12 1000c168 f   kernel32:KERNEL32.dll
 0001:0000b16e       _DeleteCriticalSection@4   1000c16e f   kernel32:KERNEL32.dll
 0001:0000b174       _CreateFileMappingW@24     1000c174 f   kernel32:KERNEL32.dll
 0001:0000b17a       _MapViewOfFile@20          1000c17a f   kernel32:KERNEL32.dll
 0001:0000b180       _UnmapViewOfFile@4         1000c180 f   kernel32:KERNEL32.dll
 0001:0000b186       _FindResourceExW@16        1000c186 f   kernel32:KERNEL32.dll
 0001:0000b18c       _LoadResource@8            1000c18c f   kernel32:KERNEL32.dll
 0001:0000b192       _LockResource@4            1000c192 f   kernel32:KERNEL32.dll
 0001:0000b198       _SizeofResource@8          1000c198 f   kernel32:KERNEL32.dll
 0001:0000b19e       _FindResourceW@12          1000c19e f   kernel32:KERNEL32.dll
 0001:0000b1a4       _MultiByteToWideChar@24    1000c1a4 f   kernel32:KERNEL32.dll
 0001:0000b1aa       _WideCharToMultiByte@32    1000c1aa f   kernel32:KERNEL32.dll
 0001:0000b1b0       _DeleteFileW@4             1000c1b0 f   kernel32:KERNEL32.dll
 0001:0000b1b6       _GetTempPathW@8            1000c1b6 f   kernel32:KERNEL32.dll
 0001:0000b1bc       _GetCurrentProcess@0       1000c1bc f   kernel32:KERNEL32.dll
 0001:0000b1c2       _GetCurrentProcessId@0     1000c1c2 f   kernel32:KERNEL32.dll
 0001:0000b1c8       _GetCurrentThreadId@0      1000c1c8 f   kernel32:KERNEL32.dll
 0001:0000b1ce       _OpenThread@12             1000c1ce f   kernel32:KERNEL32.dll
 0001:0000b1d4       _SuspendThread@4           1000c1d4 f   kernel32:KERNEL32.dll
 0001:0000b1da       _ResumeThread@4            1000c1da f   kernel32:KERNEL32.dll
 0001:0000b1e0       _GetProcessId@4            1000c1e0 f   kernel32:KERNEL32.dll
 0001:0000b1e6       _GetThreadContext@8        1000c1e6 f   kernel32:KERNEL32.dll
 0001:0000b1ec       _GetProcAddress@8          1000c1ec f   kernel32:KERNEL32.dll
 0001:0000b1f2       _LoadLibraryW@4            1000c1f2 f   kernel32:KERNEL32.dll
 0001:0000b1f8       _LocalFree@4               1000c1f8 f   kernel32:KERNEL32.dll
 0001:0000b1fe       _FormatMessageW@28         1000c1fe f   kernel32:KERNEL32.dll
 0001:0000b204       _CreateToolhelp32Snapshot@8 1000c204 f   kernel32:KERNEL32.dll
 0001:0000b20a       _Thread32First@8           1000c20a f   kernel32:KERNEL32.dll
 0001:0000b210       _Thread32Next@8            1000c210 f   kernel32:KERNEL32.dll
 0001:0000b216       _OutputDebugStringW@4      1000c216 f   kernel32:KERNEL32.dll
 0001:0000b21c       _SetUnhandledExceptionFilter@4 1000c21c f   kernel32:KERNEL32.dll
 0001:0000b222       _SetLastError@4            1000c222 f   kernel32:KERNEL32.dll
 0001:0000b228       _SetErrorMode@4            1000c228 f   kernel32:KERNEL32.dll
 0001:0000b22e       _EnterCriticalSection@4    1000c22e f   kernel32:KERNEL32.dll
 0001:0000b234       _LeaveCriticalSection@4    1000c234 f   kernel32:KERNEL32.dll
 0001:0000b23a       _InitializeCriticalSectionAndSpinCount@8 1000c23a f   kernel32:KERNEL32.dll
 0001:0000b240       _WaitForSingleObject@8     1000c240 f   kernel32:KERNEL32.dll
 0001:0000b246       _TerminateProcess@8        1000c246 f   kernel32:KERNEL32.dll
 0001:0000b24c       _CreateProcessW@40         1000c24c f   kernel32:KERNEL32.dll
 0001:0000b252       _FlushInstructionCache@12  1000c252 f   kernel32:KERNEL32.dll
 0001:0000b258       _OpenProcess@12            1000c258 f   kernel32:KERNEL32.dll
 0001:0000b25e       _GetSystemTime@4           1000c25e f   kernel32:KERNEL32.dll
 0001:0000b264       _VirtualProtect@16         1000c264 f   kernel32:KERNEL32.dll
 0001:0000b26a       _VirtualQuery@12           1000c26a f   kernel32:KERNEL32.dll
 0001:0000b270       _FreeLibrary@4             1000c270 f   kernel32:KERNEL32.dll
 0001:0000b276       _GetModuleFileNameW@12     1000c276 f   kernel32:KERNEL32.dll
 0001:0000b27c       _GetModuleHandleW@4        1000c27c f   kernel32:KERNEL32.dll
 0001:0000b282       _WritePrivateProfileStringW@16 1000c282 f   kernel32:KERNEL32.dll
 0001:0000b288       _SystemTimeToFileTime@8    1000c288 f   kernel32:KERNEL32.dll
 0001:0000b28e       _LoadLibraryExW@12         1000c28e f   kernel32:KERNEL32.dll
 0001:0000b294       _lstrcmpiW@8               1000c294 f   kernel32:KERNEL32.dll
 0001:0000b29a       _UnregisterClassW@8        1000c29a f   user32:USER32.dll
 0001:0000b2a0       _MessageBoxW@16            1000c2a0 f   user32:USER32.dll
 0001:0000b2a6       _LoadStringW@16            1000c2a6 f   user32:USER32.dll
 0001:0000b2ac       _DestroyWindow@4           1000c2ac f   user32:USER32.dll
 0001:0000b2b2       _CharNextW@4               1000c2b2 f   user32:USER32.dll
 0001:0000b2b8       _RegCloseKey@4             1000c2b8 f   advapi32:ADVAPI32.dll
 0001:0000b2be       _RegOpenKeyExW@20          1000c2be f   advapi32:ADVAPI32.dll
 0001:0000b2c4       _RegQueryValueExW@24       1000c2c4 f   advapi32:ADVAPI32.dll
 0001:0000b2ca       _RegCreateKeyW@12          1000c2ca f   advapi32:ADVAPI32.dll
 0001:0000b2d0       _RegOpenKeyW@12            1000c2d0 f   advapi32:ADVAPI32.dll
 0001:0000b2d6       _RegSetValueExW@24         1000c2d6 f   advapi32:ADVAPI32.dll
 0001:0000b2dc       _RegCreateKeyExW@36        1000c2dc f   advapi32:ADVAPI32.dll
 0001:0000b2e2       _RegDeleteKeyW@8           1000c2e2 f   advapi32:ADVAPI32.dll
 0001:0000b2e8       _RegDeleteValueW@8         1000c2e8 f   advapi32:ADVAPI32.dll
 0001:0000b2ee       _RegEnumKeyExW@32          1000c2ee f   advapi32:ADVAPI32.dll
 0001:0000b2f4       _RegQueryInfoKeyW@48       1000c2f4 f   advapi32:ADVAPI32.dll
 0001:0000b2fa       _CoCreateInstance@20       1000c2fa f   ole32:ole32.dll
 0001:0000b300       _CoTaskMemAlloc@4          1000c300 f   ole32:ole32.dll
 0001:0000b306       _CoTaskMemRealloc@8        1000c306 f   ole32:ole32.dll
 0001:0000b30c       _CoTaskMemFree@4           1000c30c f   ole32:ole32.dll
 0001:0000b312       _VarUI4FromStr@16          1000c312 f   oleaut32:OLEAUT32.dll
 0001:0000b318       _SysFreeString@4           1000c318 f   oleaut32:OLEAUT32.dll
 0001:0000b31e       ??$?2PAUHINSTANCE__@@@Wrapper@?$CSimpleArray@PAUHINSTANCE__@@V?$CSimpleArrayEqualHelper@PAUHINSTANCE__@@@ATL@@@ATL@@SAPAXIPAPAUHINSTANCE__@@@Z 1000c31e f i atls:atlbase.obj
 0001:0000b326       ??0?$CComCritSecLock@VCComCriticalSection@ATL@@@ATL@@QAE@AAVCComCriticalSection@1@_N@Z 1000c326 f i atls:atlbase.obj
 0001:0000b34d       ??0?$CSimpleArray@PAUHINSTANCE__@@V?$CSimpleArrayEqualHelper@PAUHINSTANCE__@@@ATL@@@ATL@@QAE@XZ 1000c34d f i atls:atlbase.obj
 0001:0000b35a       ??0CAtlBaseModule@ATL@@QAE@XZ 1000c35a f   atls:atlbase.obj
 0001:0000b3ad       ??0CComCriticalSection@ATL@@QAE@XZ 1000c3ad f i atls:atlbase.obj
 0001:0000b3c1       ??0Wrapper@?$CSimpleArray@PAUHINSTANCE__@@V?$CSimpleArrayEqualHelper@PAUHINSTANCE__@@@ATL@@@ATL@@QAE@ABQAUHINSTANCE__@@@Z 1000c3c1 f i atls:atlbase.obj
 0001:0000b3d1       ??0_ATL_BASE_MODULE70@ATL@@QAE@XZ 1000c3d1 f i atls:atlbase.obj
 0001:0000b3f4       ??1?$CComCritSecLock@VCComCriticalSection@ATL@@@ATL@@QAE@XZ 1000c3f4 f i atls:atlbase.obj
 0001:0000b40b       ??1?$CSimpleArray@PAUHINSTANCE__@@V?$CSimpleArrayEqualHelper@PAUHINSTANCE__@@@ATL@@@ATL@@QAE@XZ 1000c40b f i atls:atlbase.obj
 0001:0000b410       ??1CAtlBaseModule@ATL@@QAE@XZ 1000c410 f   atls:atlbase.obj
 0001:0000b426       ??1CComCriticalSection@ATL@@QAE@XZ 1000c426 f i atls:atlbase.obj
 0001:0000b429       ??1_ATL_BASE_MODULE70@ATL@@QAE@XZ 1000c429 f i atls:atlbase.obj
 0001:0000b431       ??A?$CSimpleArray@PAUHINSTANCE__@@V?$CSimpleArrayEqualHelper@PAUHINSTANCE__@@@ATL@@@ATL@@QAEAAPAUHINSTANCE__@@H@Z 1000c431 f i atls:atlbase.obj
 0001:0000b456       ?Add@?$CSimpleArray@PAUHINSTANCE__@@V?$CSimpleArrayEqualHelper@PAUHINSTANCE__@@@ATL@@@ATL@@QAEHABQAUHINSTANCE__@@@Z 1000c456 f i atls:atlbase.obj
 0001:0000b4d8       ?AddResourceInstance@CAtlBaseModule@ATL@@QAE_NPAUHINSTANCE__@@@Z 1000c4d8 f   atls:atlbase.obj
 0001:0000b50b       ?GetHInstanceAt@CAtlBaseModule@ATL@@QAEPAUHINSTANCE__@@H@Z 1000c50b f   atls:atlbase.obj
 0001:0000b550       ?GetSize@?$CSimpleArray@PAUHINSTANCE__@@V?$CSimpleArrayEqualHelper@PAUHINSTANCE__@@@ATL@@@ATL@@QBEHXZ 1000c550 f i atls:atlbase.obj
 0001:0000b554       ?InternalSetAtIndex@?$CSimpleArray@PAUHINSTANCE__@@V?$CSimpleArrayEqualHelper@PAUHINSTANCE__@@@ATL@@@ATL@@QAEXHABQAUHINSTANCE__@@@Z 1000c554 f i atls:atlbase.obj
 0001:0000b56e       ?Lock@?$CComCritSecLock@VCComCriticalSection@ATL@@@ATL@@QAEJXZ 1000c56e f i atls:atlbase.obj
 0001:0000b581       ?Lock@CComCriticalSection@ATL@@QAEJXZ 1000c581 f i atls:atlbase.obj
 0001:0000b58b       ?RemoveAll@?$CSimpleArray@PAUHINSTANCE__@@V?$CSimpleArrayEqualHelper@PAUHINSTANCE__@@@ATL@@@ATL@@QAEXXZ 1000c58b f i atls:atlbase.obj
 0001:0000b5a8       ?RemoveAt@?$CSimpleArray@PAUHINSTANCE__@@V?$CSimpleArrayEqualHelper@PAUHINSTANCE__@@@ATL@@@ATL@@QAEHH@Z 1000c5a8 f i atls:atlbase.obj
 0001:0000b5f6       ?RemoveResourceInstance@CAtlBaseModule@ATL@@QAE_NPAUHINSTANCE__@@@Z 1000c5f6 f   atls:atlbase.obj
 0001:0000b653       ?Term@CComCriticalSection@ATL@@QAEJXZ 1000c653 f i atls:atlbase.obj
 0001:0000b65d       ?Unlock@?$CComCritSecLock@VCComCriticalSection@ATL@@@ATL@@QAEXXZ 1000c65d f i atls:atlbase.obj
 0001:0000b66e       ?Unlock@CComCriticalSection@ATL@@QAEJXZ 1000c66e f i atls:atlbase.obj
 0001:0000b678       _HRESULT_FROM_WIN32        1000c678 f i atls:atlbase.obj
 0001:0000b6d8       ??0?$CTraceCategoryEx@$00$0A@@ATL@@QAE@PB_W@Z 1000c6d8 f i atls:stdafx.obj
 0001:0000b6dd       ??0?$CTraceCategoryEx@$01$0A@@ATL@@QAE@PB_W@Z 1000c6dd f i atls:stdafx.obj
 0001:0000b6e2       ??0?$CTraceCategoryEx@$03$0A@@ATL@@QAE@PB_W@Z 1000c6e2 f i atls:stdafx.obj
 0001:0000b6e7       ??0?$CTraceCategoryEx@$07$0A@@ATL@@QAE@PB_W@Z 1000c6e7 f i atls:stdafx.obj
 0001:0000b6ec       ??0?$CTraceCategoryEx@$0BA@$0A@@ATL@@QAE@PB_W@Z 1000c6ec f i atls:stdafx.obj
 0001:0000b6f1       ??0?$CTraceCategoryEx@$0BAA@$0A@@ATL@@QAE@PB_W@Z 1000c6f1 f i atls:stdafx.obj
 0001:0000b6f6       ??0?$CTraceCategoryEx@$0BAAA@$0A@@ATL@@QAE@PB_W@Z 1000c6f6 f i atls:stdafx.obj
 0001:0000b6fb       ??0?$CTraceCategoryEx@$0BAAAA@$0A@@ATL@@QAE@PB_W@Z 1000c6fb f i atls:stdafx.obj
 0001:0000b700       ??0?$CTraceCategoryEx@$0BAAAAA@$0A@@ATL@@QAE@PB_W@Z 1000c700 f i atls:stdafx.obj
 0001:0000b705       ??0?$CTraceCategoryEx@$0CA@$0A@@ATL@@QAE@PB_W@Z 1000c705 f i atls:stdafx.obj
 0001:0000b70a       ??0?$CTraceCategoryEx@$0CAA@$0A@@ATL@@QAE@PB_W@Z 1000c70a f i atls:stdafx.obj
 0001:0000b70f       ??0?$CTraceCategoryEx@$0CAAA@$0A@@ATL@@QAE@PB_W@Z 1000c70f f i atls:stdafx.obj
 0001:0000b714       ??0?$CTraceCategoryEx@$0CAAAA@$0A@@ATL@@QAE@PB_W@Z 1000c714 f i atls:stdafx.obj
 0001:0000b719       ??0?$CTraceCategoryEx@$0CAAAAA@$0A@@ATL@@QAE@PB_W@Z 1000c719 f i atls:stdafx.obj
 0001:0000b71e       ??0?$CTraceCategoryEx@$0EA@$0A@@ATL@@QAE@PB_W@Z 1000c71e f i atls:stdafx.obj
 0001:0000b723       ??0?$CTraceCategoryEx@$0EAA@$0A@@ATL@@QAE@PB_W@Z 1000c723 f i atls:stdafx.obj
 0001:0000b728       ??0?$CTraceCategoryEx@$0EAAA@$0A@@ATL@@QAE@PB_W@Z 1000c728 f i atls:stdafx.obj
 0001:0000b72d       ??0?$CTraceCategoryEx@$0EAAAA@$0A@@ATL@@QAE@PB_W@Z 1000c72d f i atls:stdafx.obj
 0001:0000b732       ??0?$CTraceCategoryEx@$0EAAAAA@$0A@@ATL@@QAE@PB_W@Z 1000c732 f i atls:stdafx.obj
 0001:0000b737       ??0?$CTraceCategoryEx@$0IA@$0A@@ATL@@QAE@PB_W@Z 1000c737 f i atls:stdafx.obj
 0001:0000b73c       ??0?$CTraceCategoryEx@$0IAA@$0A@@ATL@@QAE@PB_W@Z 1000c73c f i atls:stdafx.obj
 0001:0000b741       ??0?$CTraceCategoryEx@$0IAAA@$0A@@ATL@@QAE@PB_W@Z 1000c741 f i atls:stdafx.obj
 0001:0000b746       ??0?$CTraceCategoryEx@$0IAAAA@$0A@@ATL@@QAE@PB_W@Z 1000c746 f i atls:stdafx.obj
 0001:0000b74b       ??_I@YGXPAXIIP6EX0@Z@Z     1000c74b f i atls:stdafx.obj
 0001:0000b77e       ??0bad_alloc@std@@QAE@XZ   1000c77e f i libcpmt:xthrow.obj
 0001:0000b796       ??0bad_function_call@std@@QAE@ABV01@@Z 1000c796 f i libcpmt:xthrow.obj
 0001:0000b7b1       ??0bad_function_call@std@@QAE@XZ 1000c7b1 f i libcpmt:xthrow.obj
 0001:0000b7c2       ??0exception@std@@QAE@QBD@Z 1000c7c2 f i libcpmt:xthrow.obj
 0001:0000b7f7       ??0exception@std@@QAE@QBDH@Z 1000c7f7 f i libcpmt:xthrow.obj
 0001:0000b814       ??0exception@std@@QAE@XZ   1000c814 f i libcpmt:xthrow.obj
 0001:0000b825       ??0invalid_argument@std@@QAE@ABV01@@Z 1000c825 f i libcpmt:xthrow.obj
 0001:0000b840       ??0invalid_argument@std@@QAE@PBD@Z 1000c840 f i libcpmt:xthrow.obj
 0001:0000b85f       ??0length_error@std@@QAE@ABV01@@Z 1000c85f f i libcpmt:xthrow.obj
 0001:0000b87a       ??0length_error@std@@QAE@PBD@Z 1000c87a f i libcpmt:xthrow.obj
 0001:0000b899       ??0logic_error@std@@QAE@ABV01@@Z 1000c899 f i libcpmt:xthrow.obj
 0001:0000b8b4       ??0logic_error@std@@QAE@PBD@Z 1000c8b4 f i libcpmt:xthrow.obj
 0001:0000b8d3       ??0out_of_range@std@@QAE@ABV01@@Z 1000c8d3 f i libcpmt:xthrow.obj
 0001:0000b8ee       ??0out_of_range@std@@QAE@PBD@Z 1000c8ee f i libcpmt:xthrow.obj
 0001:0000b90d       ??0overflow_error@std@@QAE@ABV01@@Z 1000c90d f i libcpmt:xthrow.obj
 0001:0000b928       ??0overflow_error@std@@QAE@PBD@Z 1000c928 f i libcpmt:xthrow.obj
 0001:0000b947       ??0regex_error@std@@QAE@ABV01@@Z 1000c947 f i libcpmt:xthrow.obj
 0001:0000b96b       ??0regex_error@std@@QAE@W4error_type@regex_constants@1@@Z 1000c96b f i libcpmt:xthrow.obj
 0001:0000b999       ??0runtime_error@std@@QAE@ABV01@@Z 1000c999 f i libcpmt:xthrow.obj
 0001:0000b9b4       ??0runtime_error@std@@QAE@PBD@Z 1000c9b4 f i libcpmt:xthrow.obj
 0001:0000b9d3       ??1bad_alloc@std@@UAE@XZ   1000c9d3 f i libcpmt:xthrow.obj
 0001:0000b9e4       ??1bad_function_call@std@@UAE@XZ 1000c9e4 f i libcpmt:xthrow.obj
 0001:0000b9f5       ??1invalid_argument@std@@UAE@XZ 1000c9f5 f i libcpmt:xthrow.obj
 0001:0000ba06       ??1length_error@std@@UAE@XZ 1000ca06 f i libcpmt:xthrow.obj
 0001:0000ba17       ??1logic_error@std@@UAE@XZ 1000ca17 f i libcpmt:xthrow.obj
 0001:0000ba28       ??1out_of_range@std@@UAE@XZ 1000ca28 f i libcpmt:xthrow.obj
 0001:0000ba39       ??1overflow_error@std@@UAE@XZ 1000ca39 f i libcpmt:xthrow.obj
 0001:0000ba4a       ??1regex_error@std@@UAE@XZ 1000ca4a f i libcpmt:xthrow.obj
 0001:0000ba5b       ??1runtime_error@std@@UAE@XZ 1000ca5b f i libcpmt:xthrow.obj
 0001:0000ba6c       ??_Gbad_function_call@std@@UAEPAXI@Z 1000ca6c f i libcpmt:xthrow.obj
 0001:0000ba6c       ??_Ebad_function_call@std@@UAEPAXI@Z 1000ca6c f i libcpmt:xthrow.obj
 0001:0000ba99       ??_Ginvalid_argument@std@@UAEPAXI@Z 1000ca99 f i libcpmt:xthrow.obj
 0001:0000ba99       ??_Einvalid_argument@std@@UAEPAXI@Z 1000ca99 f i libcpmt:xthrow.obj
 0001:0000bac6       ??_Elength_error@std@@UAEPAXI@Z 1000cac6 f i libcpmt:xthrow.obj
 0001:0000bac6       ??_Glength_error@std@@UAEPAXI@Z 1000cac6 f i libcpmt:xthrow.obj
 0001:0000baf3       ??_Glogic_error@std@@UAEPAXI@Z 1000caf3 f i libcpmt:xthrow.obj
 0001:0000baf3       ??_Elogic_error@std@@UAEPAXI@Z 1000caf3 f i libcpmt:xthrow.obj
 0001:0000bb20       ??_Eout_of_range@std@@UAEPAXI@Z 1000cb20 f i libcpmt:xthrow.obj
 0001:0000bb20       ??_Gout_of_range@std@@UAEPAXI@Z 1000cb20 f i libcpmt:xthrow.obj
 0001:0000bb4d       ??_Goverflow_error@std@@UAEPAXI@Z 1000cb4d f i libcpmt:xthrow.obj
 0001:0000bb4d       ??_Eoverflow_error@std@@UAEPAXI@Z 1000cb4d f i libcpmt:xthrow.obj
 0001:0000bb7a       ??_Gregex_error@std@@UAEPAXI@Z 1000cb7a f i libcpmt:xthrow.obj
 0001:0000bb7a       ??_Eregex_error@std@@UAEPAXI@Z 1000cb7a f i libcpmt:xthrow.obj
 0001:0000bba7       ??_Gruntime_error@std@@UAEPAXI@Z 1000cba7 f i libcpmt:xthrow.obj
 0001:0000bba7       ??_Eruntime_error@std@@UAEPAXI@Z 1000cba7 f i libcpmt:xthrow.obj
 0001:0000bbd4       ?_Stringify@regex_error@std@@CAPBDW4error_type@regex_constants@2@@Z 1000cbd4 f i libcpmt:xthrow.obj
 0001:0000bc94       ?_Xbad_alloc@std@@YAXXZ    1000cc94 f   libcpmt:xthrow.obj
 0001:0000bcb1       ?_Xbad_function_call@std@@YAXXZ 1000ccb1 f   libcpmt:xthrow.obj
 0001:0000bcce       ?_Xinvalid_argument@std@@YAXPBD@Z 1000ccce f   libcpmt:xthrow.obj
 0001:0000bcee       ?_Xlength_error@std@@YAXPBD@Z 1000ccee f   libcpmt:xthrow.obj
 0001:0000bd0e       ?_Xout_of_range@std@@YAXPBD@Z 1000cd0e f   libcpmt:xthrow.obj
 0001:0000bd2e       ?_Xoverflow_error@std@@YAXPBD@Z 1000cd2e f   libcpmt:xthrow.obj
 0001:0000bd4e       ?_Xregex_error@std@@YAXW4error_type@regex_constants@1@@Z 1000cd4e f   libcpmt:xthrow.obj
 0001:0000bd6e       ?_Xruntime_error@std@@YAXPBD@Z 1000cd6e f   libcpmt:xthrow.obj
 0001:0000bd8e       ?what@bad_function_call@std@@UBEPBDXZ 1000cd8e f i libcpmt:xthrow.obj
 0001:0000bd94       ??2@YAPAXI@Z               1000cd94 f   LIBCMT:new_scalar.obj
 0001:0000bdc4       ??3@YAXPAXI@Z              1000cdc4 f   LIBCMT:delete_scalar_size.obj
 0001:0000bdd2       ?configure_argv@__scrt_narrow_argv_policy@@SAHXZ 1000cdd2 f i LIBCMT:utility.obj
 0001:0000be23       ?initialize_environment@__scrt_narrow_environment_policy@@SAHXZ 1000ce23 f i LIBCMT:utility.obj
 0001:0000be5c       _NtCurrentTeb              1000ce5c f i LIBCMT:utility.obj
 0001:0000be63       ___scrt_acquire_startup_lock 1000ce63 f   LIBCMT:utility.obj
 0001:0000be95       ___scrt_dllmain_after_initialize_c 1000ce95 f   LIBCMT:utility.obj
 0001:0000bec0       ___scrt_dllmain_before_initialize_c 1000cec0 f   LIBCMT:utility.obj
 0001:0000bece       ___scrt_dllmain_crt_thread_attach 1000cece f   LIBCMT:utility.obj
 0001:0000beed       ___scrt_dllmain_crt_thread_detach 1000ceed f   LIBCMT:utility.obj
 0001:0000befa       ___scrt_dllmain_exception_filter 1000cefa f   LIBCMT:utility.obj
 0001:0000bf2e       ___scrt_dllmain_uninitialize_c 1000cf2e f   LIBCMT:utility.obj
 0001:0000bf51       ___scrt_dllmain_uninitialize_critical 1000cf51 f   LIBCMT:utility.obj
 0001:0000bf5e       ___scrt_initialize_crt     1000cf5e f   LIBCMT:utility.obj
 0001:0000bf97       ___scrt_initialize_onexit_tables 1000cf97 f   LIBCMT:utility.obj
 0001:0000c01e       ___scrt_is_nonwritable_in_current_image 1000d01e f   LIBCMT:utility.obj
 0001:0000c0b2       ___scrt_release_startup_lock 1000d0b2 f   LIBCMT:utility.obj
 0001:0000c0cf       ___scrt_uninitialize_crt   1000d0cf f   LIBCMT:utility.obj
 0001:0000c0f7       __onexit                   1000d0f7 f   LIBCMT:utility.obj
 0001:0000c124       _at_quick_exit             1000d124 f   LIBCMT:utility.obj
 0001:0000c147       _atexit                    1000d147 f   LIBCMT:utility.obj
 0001:0000c221       __Init_thread_abort        1000d221 f   LIBCMT:thread_safe_statics.obj
 0001:0000c245       __Init_thread_footer       1000d245 f   LIBCMT:thread_safe_statics.obj
 0001:0000c28f       __Init_thread_header       1000d28f f   LIBCMT:thread_safe_statics.obj
 0001:0000c2e1       __Init_thread_lock         1000d2e1 f   LIBCMT:thread_safe_statics.obj
 0001:0000c2ed       __Init_thread_notify       1000d2ed f   LIBCMT:thread_safe_statics.obj
 0001:0000c323       __Init_thread_unlock       1000d323 f   LIBCMT:thread_safe_statics.obj
 0001:0000c32f       __Init_thread_wait         1000d32f f   LIBCMT:thread_safe_statics.obj
 0001:0000c37d       @__security_check_cookie@4 1000d37d f   LIBCMT:secchk.obj
 0001:0000c38b       __EH_epilog3               1000d38b f   LIBCMT:ehprolg3.obj
 0001:0000c39f       __EH_epilog3_GS            1000d39f f   LIBCMT:ehprolg3.obj
 0001:0000c3ae       __EH_epilog3_catch_GS      1000d3ae f   LIBCMT:ehprolg3.obj
 0001:0000c3bd       __EH_prolog3               1000d3bd f   LIBCMT:ehprolg3.obj
 0001:0000c3f0       __EH_prolog3_GS            1000d3f0 f   LIBCMT:ehprolg3.obj
 0001:0000c426       __EH_prolog3_catch         1000d426 f   LIBCMT:ehprolg3.obj
 0001:0000c45c       __EH_prolog3_catch_GS      1000d45c f   LIBCMT:ehprolg3.obj
 0001:0000c4a0       __alloca_probe             1000d4a0 f   LIBCMT:chkstk.obj
 0001:0000c4a0       __chkstk                   1000d4a0 f   LIBCMT:chkstk.obj
 0001:0000c4cb       ??1type_info@@UAE@XZ       1000d4cb f   LIBCMT:std_type_info_static.obj
 0001:0000c4d2       ??_Etype_info@@UAEPAXI@Z   1000d4d2 f i LIBCMT:std_type_info_static.obj
 0001:0000c4d2       ??_Gtype_info@@UAEPAXI@Z   1000d4d2 f i LIBCMT:std_type_info_static.obj
 0001:0000c4f5       ??3@YAXPAX@Z               1000d4f5 f   LIBCMT:delete_scalar.obj
 0001:0000c4fa       ??_M@YGXPAXIHP6EX0@Z@Z     1000d4fa f   LIBCMT:ehvecdtr.obj
 0001:0000c4ff       ??_M@YGXPAXIIP6EX0@Z@Z     1000d4ff f   LIBCMT:ehvecdtr.obj
 0001:0000c5b3       ?__ArrayUnwind@@YGXPAXIIP6EX0@Z@Z 1000d5b3 f   LIBCMT:ehvecdtr.obj
 0001:0000c643       ??_V@YAXPAXI@Z             1000d643 f   LIBCMT:delete_array_size.obj
 0001:0000c660       __SEH_prolog4              1000d660 f   LIBCMT:sehprolg4.obj
 0001:0000c6b0       __SEH_epilog4              1000d6b0 f   LIBCMT:sehprolg4.obj
 0001:0000c6c4       ??_U@YAPAXI@Z              1000d6c4 f   LIBCMT:new_array.obj
 0001:0000c6cd       ??_V@YAXPAX@Z              1000d6cd f   LIBCMT:delete_array.obj
 0001:0000c6e0       __alldiv                   1000d6e0 f   LIBCMT:lldiv.obj
 0001:0000c790       __allmul                   1000d790 f   LIBCMT:llmul.obj
 0001:0000c7d0       __allshl                   1000d7d0 f   LIBCMT:llshl.obj
 0001:0000c7f0       __allshr                   1000d7f0 f   LIBCMT:llshr.obj
 0001:0000c820       __aullshr                  1000d820 f   LIBCMT:ullshr.obj
 0001:0000c840       __ftoui3                   1000d840 f   LIBCMT:ftol3.obj
 0001:0000c890       __ftoul3                   1000d890 f   LIBCMT:ftol3.obj
 0001:0000c910       __ftol3                    1000d910 f   LIBCMT:ftol3.obj
 0001:0000c980       __dtoui3                   1000d980 f   LIBCMT:ftol3.obj
 0001:0000ca00       __dtoul3                   1000da00 f   LIBCMT:ftol3.obj
 0001:0000cab0       __dtol3                    1000dab0 f   LIBCMT:ftol3.obj
 0001:0000cb60       __ultod3                   1000db60 f   LIBCMT:ftol3.obj
 0001:0000cbc0       __ltod3                    1000dbc0 f   LIBCMT:ftol3.obj
 0001:0000cc01       ___raise_securityfailure   1000dc01 f   LIBCMT:gs_report.obj
 0001:0000cc29       ___report_gsfailure        1000dc29 f   LIBCMT:gs_report.obj
 0001:0000cd23       ___report_rangecheckfailure 1000dd23 f   LIBCMT:gs_report.obj
 0001:0000cd2f       ___report_securityfailure  1000dd2f f   LIBCMT:gs_report.obj
 0001:0000cdfe       ___report_securityfailureEx 1000ddfe f   LIBCMT:gs_report.obj
 0001:0000cf13       ??_U@YAPAXIABUnothrow_t@std@@@Z 1000df13 f   LIBCMT:new_array_nothrow.obj
 0001:0000d25c       __CRT_INIT@12              1000e25c f   LIBCMT:dll_dllmain.obj
 0001:0000d265       __DllMainCRTStartup@12     1000e265 f   LIBCMT:dll_dllmain.obj
 0001:0000d288       @_guard_check_icall_nop@4  1000e288 f i LIBCMT:guard_support.obj
 0001:0000d28b       _ReadNoFence               1000e28b f i LIBCMT:guard_support.obj
 0001:0000d295       _ReadPointerNoFence        1000e295 f i LIBCMT:guard_support.obj
 0001:0000d29f       ___castguard_check_failure_debugbreak 1000e29f f i LIBCMT:guard_support.obj
 0001:0000d2ba       ___castguard_check_failure_fastfail 1000e2ba f i LIBCMT:guard_support.obj
 0001:0000d2d9       ___castguard_check_failure_nop 1000e2d9 f i LIBCMT:guard_support.obj
 0001:0000d2dc       ___castguard_check_failure_os_handled 1000e2dc f i LIBCMT:guard_support.obj
 0001:0000d330       ___castguard_slow_path_check_debugbreak 1000e330 f i LIBCMT:guard_support.obj
 0001:0000d35d       ___castguard_slow_path_check_fastfail 1000e35d f i LIBCMT:guard_support.obj
 0001:0000d38e       ___castguard_slow_path_check_nop 1000e38e f i LIBCMT:guard_support.obj
 0001:0000d391       ___castguard_slow_path_check_os_handled 1000e391 f i LIBCMT:guard_support.obj
 0001:0000d3f7       __guard_icall_checks_enforced 1000e3f7 f i LIBCMT:guard_support.obj
 0001:0000d409       ??0bad_alloc@std@@AAE@QBD@Z 1000e409 f i LIBCMT:throw_bad_alloc.obj
 0001:0000d426       ?__scrt_throw_std_bad_alloc@@YAXXZ 1000e426 f   LIBCMT:throw_bad_alloc.obj
 0001:0000d443       ?__scrt_throw_std_bad_array_new_length@@YAXXZ 1000e443 f   LIBCMT:throw_bad_alloc.obj
 0001:0000d460       ___isa_available_init      1000e460 f   LIBCMT:cpu_disp.obj
 0001:0000d631       __get_startup_argv_mode    1000e631 f   LIBCMT:argv_mode.obj
 0001:0000d635       ___scrt_is_ucrt_dll_in_use 1000e635 f   LIBCMT:ucrt_detection.obj
 0001:0000d641       ___scrt_fastfail           1000e641 f   LIBCMT:utility_desktop.obj
 0001:0000d75c       ___scrt_get_show_window_mode 1000e75c f   LIBCMT:utility_desktop.obj
 0001:0000d78d       ___scrt_initialize_mta     1000e78d f   LIBCMT:utility_desktop.obj
 0001:0000d792       ___scrt_initialize_winrt   1000e792 f   LIBCMT:utility_desktop.obj
 0001:0000d795       ___scrt_is_managed_app     1000e795 f   LIBCMT:utility_desktop.obj
 0001:0000d7d8       ___scrt_set_unhandled_exception_filter 1000e7d8 f   LIBCMT:utility_desktop.obj
 0001:0000d7e4       ___scrt_stub_for_initialize_mta 1000e7e4 f   LIBCMT:utility_desktop.obj
 0001:0000d7e4       ___scrt_exe_initialize_mta 1000e7e4 f   LIBCMT:utility_desktop.obj
 0001:0000d7e7       ___scrt_unhandled_exception_filter@4 1000e7e7 f   LIBCMT:utility_desktop.obj
 0001:0000d83d       __crt_debugger_hook        1000e83d f   LIBCMT:utility_desktop.obj
 0001:0000d845       ??2@YAPAXIABUnothrow_t@std@@@Z 1000e845 f   LIBCMT:new_scalar_nothrow.obj
 0001:0000d8e7       ___security_init_cookie    1000e8e7 f   LIBCMT:gs_support.obj
 0001:0000d932       ?__scrt_initialize_type_info@@YAXXZ 1000e932 f   LIBCMT:tncleanup.obj
 0001:0000d93e       ?__scrt_uninitialize_type_info@@YAXXZ 1000e93e f   LIBCMT:tncleanup.obj
 0001:0000d94a       ___local_stdio_scanf_options 1000e94a f i LIBCMT:default_local_stdio_options.obj
 0001:0000d950       ___scrt_initialize_default_local_stdio_options 1000e950 f   LIBCMT:default_local_stdio_options.obj
 0001:0000d96d       ___scrt_get_dyn_tls_init_callback 1000e96d f   LIBCMT:dyn_tls_init.obj
 0001:0000d973       __RTC_Initialize           1000e973 f   LIBCMT:initsect.obj
 0001:0000d99f       __RTC_Terminate            1000e99f f   LIBCMT:initsect.obj
 0001:0000d9cb       _RpcStringFreeW@4          1000e9cb f   Rpcrt4:RPCRT4.dll
 0001:0000d9d1       _UuidCreate@4              1000e9d1 f   Rpcrt4:RPCRT4.dll
 0001:0000d9d7       _UuidToStringW@8           1000e9d7 f   Rpcrt4:RPCRT4.dll
 0001:0000d9dd       ___DestructExceptionObject 1000e9dd f   libvcruntime:ehhelpers.obj
 0001:0000da7e       ?_CallMemberFunction0@@YGXQAX0@Z 1000ea7e f i libvcruntime:ehhelpers.obj
 0001:0000dae3       ?raw_name@type_info@@QBEPBDXZ 1000eae3 f i libvcruntime:ehhelpers.obj
 0001:0000dae7       __IsExceptionObjectToBeDestroyed 1000eae7 f   libvcruntime:ehhelpers.obj
 0001:0000db0d       __SetWinRTOutOfMemoryExceptionCallback 1000eb0d f   libvcruntime:ehhelpers.obj
 0001:0000db1a       ___AdjustPointer           1000eb1a f   libvcruntime:ehhelpers.obj
 0001:0000db3f       ___FrameUnwindFilter       1000eb3f f   libvcruntime:ehhelpers.obj
 0001:0000db95       ___GetPlatformExceptionInfo 1000eb95 f   libvcruntime:ehhelpers.obj
 0001:0000dbe1       ___current_exception       1000ebe1 f   libvcruntime:ehhelpers.obj
 0001:0000dbea       ___current_exception_context 1000ebea f   libvcruntime:ehhelpers.obj
 0001:0000dbf3       ___processing_throw        1000ebf3 f   libvcruntime:ehhelpers.obj
 0001:0000dbfc       ___std_terminate           1000ebfc f   libvcruntime:ehhelpers.obj
 0001:0000dc01       __is_exception_typeof      1000ec01 f   libvcruntime:ehhelpers.obj
 0001:0000dcb0       _memcpy                    1000ecb0 f   libvcruntime:memcpy.obj
 0001:0000e230       _memmove                   1000f230 f   libvcruntime:memmove.obj
 0001:0000e7b0       _memset                    1000f7b0 f   libvcruntime:memset.obj
 0001:0000e90a       _wcsstr                    1000f90a f   libvcruntime:wcsstr.obj
 0001:0000eb75       ??$?RD@__crt_public_free_policy@@QBEXQBD@Z 1000fb75 f i libvcruntime:std_exception.obj
 0001:0000eb85       ??0?$__crt_unique_heap_ptr@DU__crt_public_free_policy@@@@QAE@QAD@Z 1000fb85 f i libvcruntime:std_exception.obj
 0001:0000eb93       ??1?$__crt_unique_heap_ptr@DU__crt_public_free_policy@@@@QAE@XZ 1000fb93 f i libvcruntime:std_exception.obj
 0001:0000eba3       ??B?$__crt_unique_heap_ptr@DU__crt_public_free_policy@@@@QBE_NXZ 1000fba3 f i libvcruntime:std_exception.obj
 0001:0000ebaa       ?detach@?$__crt_unique_heap_ptr@DU__crt_public_free_policy@@@@QAEPADXZ 1000fbaa f i libvcruntime:std_exception.obj
 0001:0000ebb0       ?get@?$__crt_unique_heap_ptr@DU__crt_public_free_policy@@@@QBEPADXZ 1000fbb0 f i libvcruntime:std_exception.obj
 0001:0000ebb3       ?is_valid@?$__crt_unique_heap_ptr@DU__crt_public_free_policy@@@@QBE_NXZ 1000fbb3 f i libvcruntime:std_exception.obj
 0001:0000ebba       ?release@?$__crt_unique_heap_ptr@DU__crt_public_free_policy@@@@QAEXXZ 1000fbba f i libvcruntime:std_exception.obj
 0001:0000ebca       ___std_exception_copy      1000fbca f   libvcruntime:std_exception.obj
 0001:0000ec2d       ___std_exception_destroy   1000fc2d f   libvcruntime:std_exception.obj
 0001:0000ec4c       __CxxThrowException@8      1000fc4c f   libvcruntime:throw.obj
 0001:0000ecb8       ??$?0AAViterator@TryBlockMap@__FrameHandler3@@AAV012@$0A@@?$pair@Viterator@TryBlockMap@__FrameHandler3@@V123@@std@@QAE@AAViterator@TryBlockMap@__FrameHandler3@@0@Z 1000fcb8 f i libvcruntime:trnsctrl.obj
 0001:0000ecdc       ??$forward@AAViterator@TryBlockMap@__FrameHandler3@@@std@@YAAAViterator@TryBlockMap@__FrameHandler3@@AAV123@@Z 1000fcdc f i libvcruntime:trnsctrl.obj
 0001:0000ece4       ??0iterator@TryBlockMap@__FrameHandler3@@QAE@AAV12@I@Z 1000fce4 f i libvcruntime:trnsctrl.obj
 0001:0000ecf8       ?GetRangeOfTrysToCheck@__FrameHandler3@@SA?AU?$pair@Viterator@TryBlockMap@__FrameHandler3@@V123@@std@@AAVTryBlockMap@1@HPAXPBU_s_FuncInfo@@H@Z 1000fcf8 f   libvcruntime:trnsctrl.obj
 0001:0000ed68       ?_CallCatchBlock2@@YAPAXPAUEHRegistrationNode@@PBU_s_FuncInfo@@PAXHK@Z 1000fd68 f   libvcruntime:trnsctrl.obj
 0001:0000edc5       ?_CallSETranslator@@YAHPAUEHExceptionRecord@@PAUEHRegistrationNode@@PAX2PBU_s_FuncInfo@@H1@Z 1000fdc5 f   libvcruntime:trnsctrl.obj
 0001:0000eebb       ?_JumpToContinuation@@YGXPAXPAUEHRegistrationNode@@@Z 1000febb f   libvcruntime:trnsctrl.obj
 0001:0000eeeb       ?_UnwindNestedFrames@@YGXPAUEHRegistrationNode@@PAUEHExceptionRecord@@@Z 1000feeb f   libvcruntime:trnsctrl.obj
 0001:0000ef3e       __CatchGuardHandler        1000ff3e f   libvcruntime:trnsctrl.obj
 0001:0000ef6f       __CreateFrameInfo          1000ff6f f   libvcruntime:trnsctrl.obj
 0001:0000ef93       __FindAndUnlinkFrame       1000ff93 f   libvcruntime:trnsctrl.obj
 0001:0000efdb       __TranslatorGuardHandler   1000ffdb f   libvcruntime:trnsctrl.obj
 0001:0000f078       ___CxxFrameHandler         10010078 f   libvcruntime:trnsctrl.obj
 0001:0000f0ae       ___CxxFrameHandler2        100100ae f   libvcruntime:trnsctrl.obj
 0001:0000f0e4       ___CxxFrameHandler3        100100e4 f   libvcruntime:trnsctrl.obj
 0001:0000f11a       ___CxxLongjmpUnwind@4      1001011a f   libvcruntime:trnsctrl.obj
 0001:0000f180       __except_handler4          10010180 f   libvcruntime:chandler4.obj
 0001:0000f2de       ??$__crt_interlocked_exchange_pointer@$$A6AXXZP6AXXZ@@YAP6AXXZPDS6AXXZQ6AXXZ@Z 100102de f i libvcruntime:purevirt.obj
 0001:0000f2eb       ??$__crt_interlocked_read_pointer@$$A6AXXZ@@YAP6AXXZPDS6AXXZ@Z 100102eb f i libvcruntime:purevirt.obj
 0001:0000f2f5       ?__crt_interlocked_read_32@@YAHPDH@Z 100102f5 f i libvcruntime:purevirt.obj
 0001:0000f2ff       __get_purecall_handler     100102ff f   libvcruntime:purevirt.obj
 0001:0000f305       __purecall                 10010305 f   libvcruntime:purevirt.obj
 0001:0000f321       __set_purecall_handler     10010321 f   libvcruntime:purevirt.obj
 0001:0000f425       _memcmp                    10010425 f   libvcruntime:memcmp.obj
 0001:00011175       _wcsrchr                   10012175 f   libvcruntime:wcsrchr.obj
 0001:0001122d       __get_unexpected           1001222d f   libvcruntime:unexpected.obj
 0001:0001123f       _set_unexpected            1001223f f   libvcruntime:unexpected.obj
 0001:0001125d       _unexpected                1001225d f   libvcruntime:unexpected.obj
 0001:0001127a       ___vcrt_initialize         1001227a f   libvcruntime:initialization.obj
 0001:00011299       ___vcrt_thread_attach      10012299 f   libvcruntime:initialization.obj
 0001:000112a4       ___vcrt_thread_detach      100122a4 f   libvcruntime:initialization.obj
 0001:000112af       ___vcrt_uninitialize       100122af f   libvcruntime:initialization.obj
 0001:000112c6       ___vcrt_uninitialize_critical 100122c6 f   libvcruntime:initialization.obj
 0001:000112df       ??$?RD@__crt_internal_free_policy@@QBEXQBD@Z 100122df f i libvcruntime:std_type_info.obj
 0001:000112ef       ??$?RX@__crt_internal_free_policy@@QBEXQBX@Z 100122ef f i libvcruntime:std_type_info.obj
 0001:000112ff       ??$__crt_interlocked_compare_exchange_pointer@$$CBDPAD$$T@@YAPBDPDSBDQAD$$T@Z 100122ff f i libvcruntime:std_type_info.obj
 0001:00011311       ??$__crt_interlocked_read_pointer@$$CBD@@YAPBDPDSBD@Z 10012311 f i libvcruntime:std_type_info.obj
 0001:0001131b       ??0?$__crt_unique_heap_ptr@DU__crt_internal_free_policy@@@@QAE@QAD@Z 1001231b f i libvcruntime:std_type_info.obj
 0001:00011329       ??0?$__crt_unique_heap_ptr@XU__crt_internal_free_policy@@@@QAE@QAX@Z 10012329 f i libvcruntime:std_type_info.obj
 0001:00011337       ??1?$__crt_unique_heap_ptr@DU__crt_internal_free_policy@@@@QAE@XZ 10012337 f i libvcruntime:std_type_info.obj
 0001:00011347       ??1?$__crt_unique_heap_ptr@XU__crt_internal_free_policy@@@@QAE@XZ 10012347 f i libvcruntime:std_type_info.obj
 0001:00011357       ??B?$__crt_unique_heap_ptr@DU__crt_internal_free_policy@@@@QBE_NXZ 10012357 f i libvcruntime:std_type_info.obj
 0001:0001135e       ??B?$__crt_unique_heap_ptr@XU__crt_internal_free_policy@@@@QBE_NXZ 1001235e f i libvcruntime:std_type_info.obj
 0001:00011391       ?detach@?$__crt_unique_heap_ptr@XU__crt_internal_free_policy@@@@QAEPAXXZ 10012391 f i libvcruntime:std_type_info.obj
 0001:00011397       ?get@?$__crt_unique_heap_ptr@DU__crt_internal_free_policy@@@@QBEPADXZ 10012397 f i libvcruntime:std_type_info.obj
 0001:0001139a       ?get@?$__crt_unique_heap_ptr@XU__crt_internal_free_policy@@@@QBEPAXXZ 1001239a f i libvcruntime:std_type_info.obj
 0001:0001139d       ?is_valid@?$__crt_unique_heap_ptr@DU__crt_internal_free_policy@@@@QBE_NXZ 1001239d f i libvcruntime:std_type_info.obj
 0001:000113a4       ?is_valid@?$__crt_unique_heap_ptr@XU__crt_internal_free_policy@@@@QBE_NXZ 100123a4 f i libvcruntime:std_type_info.obj
 0001:000113ab       ?release@?$__crt_unique_heap_ptr@DU__crt_internal_free_policy@@@@QAEXXZ 100123ab f i libvcruntime:std_type_info.obj
 0001:000113bb       ?release@?$__crt_unique_heap_ptr@XU__crt_internal_free_policy@@@@QAEXXZ 100123bb f i libvcruntime:std_type_info.obj
 0001:000113cb       ___std_type_info_compare   100123cb f   libvcruntime:std_type_info.obj
 0001:00011407       ___std_type_info_destroy_list 10012407 f   libvcruntime:std_type_info.obj
 0001:0001142a       ___std_type_info_hash      1001242a f   libvcruntime:std_type_info.obj
 0001:00011450       ___std_type_info_name      10012450 f   libvcruntime:std_type_info.obj
 0001:00011515       ??$?RU__vcrt_ptd@@@__crt_internal_free_policy@@QBEXQBU__vcrt_ptd@@@Z 10012515 f i libvcruntime:per_thread_data.obj
 0001:00011525       ??0?$__crt_unique_heap_ptr@U__vcrt_ptd@@U__crt_internal_free_policy@@@@QAE@QAU__vcrt_ptd@@@Z 10012525 f i libvcruntime:per_thread_data.obj
 0001:00011542       ??1?$__crt_unique_heap_ptr@U__vcrt_ptd@@U__crt_internal_free_policy@@@@QAE@XZ 10012542 f i libvcruntime:per_thread_data.obj
 0001:0001155b       ??B?$__crt_unique_heap_ptr@U__vcrt_ptd@@U__crt_internal_free_policy@@@@QBE_NXZ 1001255b f i libvcruntime:per_thread_data.obj
 0001:00011562       ?detach@?$__crt_unique_heap_ptr@U__vcrt_ptd@@U__crt_internal_free_policy@@@@QAEPAU__vcrt_ptd@@XZ 10012562 f i libvcruntime:per_thread_data.obj
 0001:00011568       ?get@?$__crt_unique_heap_ptr@U__vcrt_ptd@@U__crt_internal_free_policy@@@@QBEPAU__vcrt_ptd@@XZ 10012568 f i libvcruntime:per_thread_data.obj
 0001:0001156b       ?is_valid@?$__crt_unique_heap_ptr@U__vcrt_ptd@@U__crt_internal_free_policy@@@@QBE_NXZ 1001256b f i libvcruntime:per_thread_data.obj
 0001:00011572       ?release@?$__crt_unique_heap_ptr@U__vcrt_ptd@@U__crt_internal_free_policy@@@@QAEXXZ 10012572 f i libvcruntime:per_thread_data.obj
 0001:0001159c       ___vcrt_freefls@4          1001259c f   libvcruntime:per_thread_data.obj
 0001:000115b8       ___vcrt_freeptd            100125b8 f   libvcruntime:per_thread_data.obj
 0001:000115ee       ___vcrt_getptd             100125ee f   libvcruntime:per_thread_data.obj
 0001:000115fc       ___vcrt_getptd_noexit      100125fc f   libvcruntime:per_thread_data.obj
 0001:0001168e       ___vcrt_getptd_noinit      1001268e f   libvcruntime:per_thread_data.obj
 0001:000116c5       ___vcrt_initialize_ptd     100126c5 f   libvcruntime:per_thread_data.obj
 0001:000116f8       ___vcrt_uninitialize_ptd   100126f8 f   libvcruntime:per_thread_data.obj
 0001:00011e4a       ??$TypeMatchHelper@V__FrameHandler3@@@@YAHPBU_s_HandlerType@@PBU_s_CatchableType@@PBU_s_ThrowInfo@@@Z 10012e4a f i libvcruntime:frame.obj
 0001:00011ed8       ??$__InternalCxxFrameHandler@V__FrameHandler3@@@@YA?AW4_EXCEPTION_DISPOSITION@@PAUEHExceptionRecord@@PAUEHRegistrationNode@@PAU_CONTEXT@@PAXPBU_s_FuncInfo@@H1E@Z 10012ed8 f i libvcruntime:frame.obj
 0001:00011fda       ??0HandlerMap@__FrameHandler3@@QAE@PBU_s_TryBlockMapEntry@@II@Z 10012fda f i libvcruntime:frame.obj
 0001:00011ff1       ??0TryBlockMap@__FrameHandler3@@QAE@PBU_s_FuncInfo@@I@Z 10012ff1 f i libvcruntime:frame.obj
 0001:00012005       ??0bad_exception@std@@QAE@ABV01@@Z 10013005 f i libvcruntime:frame.obj
 0001:00012020       ??0bad_exception@std@@QAE@XZ 10013020 f i libvcruntime:frame.obj
 0001:00012038       ??0iterator@HandlerMap@__FrameHandler3@@QAE@AAV12@I@Z 10013038 f i libvcruntime:frame.obj
 0001:0001204c       ??1bad_exception@std@@UAE@XZ 1001304c f i libvcruntime:frame.obj
 0001:0001205d       ??8iterator@HandlerMap@__FrameHandler3@@QBE_NABV012@@Z 1001305d f i libvcruntime:frame.obj
 0001:00012070       ??8type_info@@QBE_NABV0@@Z 10013070 f i libvcruntime:frame.obj
 0001:0001208f       ??9iterator@HandlerMap@__FrameHandler3@@QBE_NABV012@@Z 1001308f f i libvcruntime:frame.obj
 0001:000120a2       ??Diterator@HandlerMap@__FrameHandler3@@QAE?BU_s_HandlerType@@XZ 100130a2 f i libvcruntime:frame.obj
 0001:000120c1       ??Diterator@TryBlockMap@__FrameHandler3@@QAE?BU_s_TryBlockMapEntry@@XZ 100130c1 f i libvcruntime:frame.obj
 0001:000120e3       ??Eiterator@HandlerMap@__FrameHandler3@@QAEAAV012@XZ 100130e3 f i libvcruntime:frame.obj
 0001:000120e9       ??Eiterator@TryBlockMap@__FrameHandler3@@QAEAAV012@XZ 100130e9 f i libvcruntime:frame.obj
 0001:000120ef       ??Miterator@TryBlockMap@__FrameHandler3@@QBE_NABV012@@Z 100130ef f i libvcruntime:frame.obj
 0001:00012102       ??_Ebad_exception@std@@UAEPAXI@Z 10013102 f i libvcruntime:frame.obj
 0001:00012102       ??_Gbad_exception@std@@UAEPAXI@Z 10013102 f i libvcruntime:frame.obj
 0001:0001212f       ?BuildCatchObject@__FrameHandler3@@SAXPAUEHExceptionRecord@@PAXPBU_s_HandlerType@@PBU_s_CatchableType@@@Z 1001312f f   libvcruntime:frame.obj
 0001:00012134       ?BuildCatchObjectHelper@__FrameHandler3@@SAHPAUEHExceptionRecord@@PAXPBU_s_HandlerType@@PBU_s_CatchableType@@@Z 10013134 f   libvcruntime:frame.obj
 0001:0001238a       ?FrameUnwindToEmptyState@__FrameHandler3@@SAXPAUEHRegistrationNode@@PAXPBU_s_FuncInfo@@@Z 1001338a f   libvcruntime:frame.obj
 0001:000123a2       ?FrameUnwindToState@__FrameHandler3@@SAXPAUEHRegistrationNode@@PAXPBU_s_FuncInfo@@H@Z 100133a2 f   libvcruntime:frame.obj
 0001:0001248a       ?GetMaxState@__FrameHandler3@@SAHPAXPBU_s_FuncInfo@@@Z 1001348a f i libvcruntime:frame.obj
 0001:00012568       ?TypeMatch@__FrameHandler3@@SAHPBU_s_HandlerType@@PBU_s_CatchableType@@PBU_s_ThrowInfo@@@Z 10013568 f   libvcruntime:frame.obj
 0001:00012571       ?_CallMemberFunction1@@YGXQAX00@Z 10013571 f i libvcruntime:frame.obj
 0001:00012581       ?_CallMemberFunction2@@YGXQAX00H@Z 10013581 f i libvcruntime:frame.obj
 0001:00012594       ?begin@HandlerMap@__FrameHandler3@@QAE?AViterator@12@XZ 10013594 f i libvcruntime:frame.obj
 0001:000125a4       ?end@HandlerMap@__FrameHandler3@@QAE?AViterator@12@XZ 100135a4 f i libvcruntime:frame.obj
 0001:000125b5       ?getESTypes@__FrameHandler3@@SAPBU_s_ESTypeList@@PBU_s_FuncInfo@@@Z 100135b5 f i libvcruntime:frame.obj
 0001:000125c0       ?getLastEntry@HandlerMap@__FrameHandler3@@QAEPBU_s_HandlerType@@XZ 100135c0 f i libvcruntime:frame.obj
 0001:000125ce       ?getMagicNum@__FrameHandler3@@SAIPBU_s_FuncInfo@@@Z 100135ce f i libvcruntime:frame.obj
 0001:000125dd       ?getNumTryBlocks@TryBlockMap@__FrameHandler3@@QAEIXZ 100135dd f i libvcruntime:frame.obj
 0001:000125e3       ?isEHs@__FrameHandler3@@SA_NPBU_s_FuncInfo@@@Z 100135e3 f i libvcruntime:frame.obj
 0001:000125f0       ?isNoExcept@__FrameHandler3@@SA_NPBU_s_FuncInfo@@@Z 100135f0 f i libvcruntime:frame.obj
 0001:00012600       ___BuildCatchObject        10013600 f   libvcruntime:frame.obj
 0001:00012605       ___BuildCatchObjectHelper  10013605 f   libvcruntime:frame.obj
 0001:0001260e       ___TypeMatch               1001360e f   libvcruntime:frame.obj
 0001:00012617       ___vcrt_EncodePointer      10013617 f i libvcruntime:frame.obj
 0001:00012630       __CallSettingFrame@12      10013630 f   libvcruntime:lowhelpr.obj
 0001:00012657       __NLG_Return               10013657     libvcruntime:lowhelpr.obj
 0001:00012687       ___except_validate_context_record 10013687 f   libvcruntime:jbcxrval.obj
 0001:000126b7       ___except_validate_jump_buffer 100136b7 f   libvcruntime:jbcxrval.obj
 0001:000126e4       ___except_validate_jump_buffer_common 100136e4 f i libvcruntime:jbcxrval.obj
 0001:00012720       __local_unwind4            10013720 f   libvcruntime:exsup4.obj
 0001:00012810       __seh_longjmp_unwind4@4    10013810 f   libvcruntime:exsup4.obj
 0001:00012840       @_EH4_CallFilterFunc@8     10013840 f   libvcruntime:exsup4.obj
 0001:00012860       @_EH4_TransferToHandler@8  10013860 f   libvcruntime:exsup4.obj
 0001:00012880       @_EH4_GlobalUnwind2@8      10013880 f   libvcruntime:exsup4.obj
 0001:000128a0       @_EH4_LocalUnwind@16       100138a0 f   libvcruntime:exsup4.obj
 0001:000128b7       ___vcrt_initialize_locks   100138b7 f   libvcruntime:locks.obj
 0001:000128f3       ___vcrt_lock               100138f3 f   libvcruntime:locks.obj
 0001:00012908       ___vcrt_uninitialize_locks 10013908 f   libvcruntime:locks.obj
 0001:00012937       ___vcrt_unlock             10013937 f   libvcruntime:locks.obj
 0001:0001294c       ??$?0$00@DName@@QAE@PBDU?$StringLifeSelector@$00@@@Z 1001394c f i libvcruntime:undname.obj
 0001:0001297f       ??$?0$00@pcharNode@@QAE@PBDHU?$StringLifeSelector@$00@@@Z 1001397f f i libvcruntime:undname.obj
 0001:0001299a       ??$?0$01@DName@@QAE@PBDU?$StringLifeSelector@$01@@@Z 1001399a f i libvcruntime:undname.obj
 0001:000129cd       ??$?0$01@pcharNode@@QAE@PBDHU?$StringLifeSelector@$01@@@Z 100139cd f i libvcruntime:undname.obj
 0001:00012a0d       ??$?0$0A@@DName@@QAE@PBDU?$StringLifeSelector@$0A@@@@Z 10013a0d f i libvcruntime:undname.obj
 0001:00012a40       ??$?0$0A@@pcharNode@@QAE@PBDHU?$StringLifeSelector@$0A@@@@Z 10013a40 f i libvcruntime:undname.obj
 0001:00012a80       ??$?0_K$0A@@?$optional@_K@std@@QAE@$$QA_K@Z 10013a80 f i libvcruntime:undname.obj
 0001:00012a9a       ??$?0_K@?$_Optional_construct_base@_K@std@@QAE@Uin_place_t@1@$$QA_K@Z 10013a9a f i libvcruntime:undname.obj
 0001:00012ab4       ??$?0_K@?$_Optional_destruct_base@_K$00@std@@QAE@Uin_place_t@1@$$QA_K@Z 10013ab4 f i libvcruntime:undname.obj
 0001:00012ace       ??$append@VDNameNode@@@DName@@AAEXPBVDNameNode@@@Z 10013ace f i libvcruntime:undname.obj
 0001:00012b0f       ??$append@VDNameStatusNode@@@DName@@AAEXPBVDNameStatusNode@@@Z 10013b0f f i libvcruntime:undname.obj
 0001:00012b50       ??$append@VcharNode@@@DName@@AAEXPBVcharNode@@@Z 10013b50 f i libvcruntime:undname.obj
 0001:00012b91       ??$append@VpDNameNode@@@DName@@AAEXPBVpDNameNode@@@Z 10013b91 f i libvcruntime:undname.obj
 0001:00012bd2       ??$append@VpcharNode@@@DName@@AAEXPBVpcharNode@@@Z 10013bd2 f i libvcruntime:undname.obj
 0001:00012c13       ??$doPchar@$00@DName@@AAEXPBDH@Z 10013c13 f i libvcruntime:undname.obj
 0001:00012c7e       ??$doPchar@$01@DName@@AAEXPBDH@Z 10013c7e f i libvcruntime:undname.obj
 0001:00012cef       ??$doPchar@$0A@@DName@@AAEXPBDH@Z 10013cef f i libvcruntime:undname.obj
 0001:00012d60       ??$forward@_K@std@@YA$$QA_KAA_K@Z 10013d60 f i libvcruntime:undname.obj
 0001:00012d68       ??$size@D$04@std@@YAIAAY04$$CBD@Z 10013d68 f i libvcruntime:undname.obj
 0001:00012d6c       ??$size@D$0EB@@std@@YAIAAY0EB@$$CBD@Z 10013d6c f i libvcruntime:undname.obj
 0001:00012d70       ??0?$_Optional_construct_base@_K@std@@QAE@XZ 10013d70 f i libvcruntime:undname.obj
 0001:00012d77       ??0?$_Optional_destruct_base@_K$00@std@@QAE@XZ 10013d77 f i libvcruntime:undname.obj
 0001:00012d7e       ??0?$optional@_K@std@@QAE@XZ 10013d7e f i libvcruntime:undname.obj
 0001:00012d85       ??0Block@_HeapManager@@QAE@XZ 10013d85 f i libvcruntime:undname.obj
 0001:00012d8b       ??0DName@@QAE@AAPBDD@Z     10013d8b f   libvcruntime:undname.obj
 0001:00012e0b       ??0DName@@QAE@ABUStringLiteral@@@Z 10013e0b f   libvcruntime:undname.obj
 0001:00012e32       ??0DName@@QAE@ABV0@@Z      10013e32 f i libvcruntime:undname.obj
 0001:00012e48       ??0DName@@QAE@D@Z          10013e48 f   libvcruntime:undname.obj
 0001:00012e64       ??0DName@@QAE@PAV0@@Z      10013e64 f   libvcruntime:undname.obj
 0001:00012eab       ??0DName@@QAE@W4DNameStatus@@@Z 10013eab f   libvcruntime:undname.obj
 0001:00012eeb       ??0DName@@QAE@XZ           10013eeb f i libvcruntime:undname.obj
 0001:00012ef5       ??0DName@@QAE@_J@Z         10013ef5 f   libvcruntime:undname.obj
 0001:00012f81       ??0DName@@QAE@_K@Z         10013f81 f   libvcruntime:undname.obj
 0001:00012fe7       ??0DNameNode@@IAE@XZ       10013fe7 f i libvcruntime:undname.obj
 0001:00012ff0       ??0Replicator@@QAE@XZ      10013ff0 f i libvcruntime:undname.obj
 0001:00012fff       ??0UnDecorator@@QAE@PBDP6APADJ@ZK@Z 10013fff f i libvcruntime:undname.obj
 0001:0001304b       ??0_Nontrivial_dummy_type@std@@QAE@XZ 1001404b f i libvcruntime:undname.obj
 0001:0001304e       ??0charNode@@QAE@D@Z       1001404e f i libvcruntime:undname.obj
 0001:00013063       ??0pDNameNode@@QAE@PAVDName@@@Z 10014063 f   libvcruntime:undname.obj
 0001:0001308b       ??0pairNode@@QAE@PBVDNameNode@@0@Z 1001408b f i libvcruntime:undname.obj
 0001:000130b1       ??2@YAPAXIAAV_HeapManager@@H@Z 100140b1 f   libvcruntime:undname.obj
 0001:000130d0       ??4DName@@QAEAAV0@ABUStringLiteral@@@Z 100140d0 f   libvcruntime:undname.obj
 0001:000130f1       ??4DName@@QAEAAV0@ABV0@@Z  100140f1 f   libvcruntime:undname.obj
 0001:00013107       ??4DName@@QAEAAV0@D@Z      10014107 f i libvcruntime:undname.obj
 0001:00013123       ??4DName@@QAEAAV0@PAV0@@Z  10014123 f   libvcruntime:undname.obj
 0001:00013166       ??4DName@@QAEAAV0@W4DNameStatus@@@Z 10014166 f   libvcruntime:undname.obj
 0001:00013198       ??AReplicator@@QBE?AVDName@@H@Z 10014198 f   libvcruntime:undname.obj
 0001:000131de       ??B?$optional@_K@std@@QBE_NXZ 100141de f i libvcruntime:undname.obj
 0001:000131e2       ??D?$optional@_K@std@@QGAEAA_KXZ 100141e2 f i libvcruntime:undname.obj
 0001:000131e5       ??H@YA?AVDName@@ABUStringLiteral@@ABV0@@Z 100141e5 f i libvcruntime:undname.obj
 0001:00013207       ??H@YA?AVDName@@DABV0@@Z   10014207 f i libvcruntime:undname.obj
 0001:00013232       ??H@YA?AVDName@@W4DNameStatus@@ABV0@@Z 10014232 f i libvcruntime:undname.obj
 0001:00013254       ??HDName@@QBE?AV0@ABUStringLiteral@@@Z 10014254 f   libvcruntime:undname.obj
 0001:00013276       ??HDName@@QBE?AV0@ABV0@@Z  10014276 f   libvcruntime:undname.obj
 0001:00013298       ??HDName@@QBE?AV0@D@Z      10014298 f   libvcruntime:undname.obj
 0001:000132ba       ??HDName@@QBE?AV0@PAV0@@Z  100142ba f   libvcruntime:undname.obj
 0001:000132dc       ??HDName@@QBE?AV0@W4DNameStatus@@@Z 100142dc f   libvcruntime:undname.obj
 0001:000132fe       ??HStringLiteral@@QBE?AU0@H@Z 100142fe f i libvcruntime:undname.obj
 0001:00013318       ??YDName@@QAEAAV0@ABUStringLiteral@@@Z 10014318 f   libvcruntime:undname.obj
 0001:00013370       ??YDName@@QAEAAV0@ABV0@@Z  10014370 f   libvcruntime:undname.obj
 0001:000133c7       ??YDName@@QAEAAV0@D@Z      100143c7 f   libvcruntime:undname.obj
 0001:0001341c       ??YDName@@QAEAAV0@PAV0@@Z  1001441c f   libvcruntime:undname.obj
 0001:00013480       ??YDName@@QAEAAV0@W4DNameStatus@@@Z 10014480 f   libvcruntime:undname.obj
 0001:000134c0       ??YReplicator@@QAEAAV0@ABVDName@@@Z 100144c0 f   libvcruntime:undname.obj
 0001:000134fe       ??_5DName@@QAEAAV0@ABV0@@Z 100144fe f   libvcruntime:undname.obj
 0001:0001351a       ??__K_l@@YA?AUStringLiteral@@PBDI@Z 1001451a f i libvcruntime:undname.obj
 0001:00013525       ?Constructor@_HeapManager@@QAEXP6APAXI@ZP6AXPAX@Z@Z 10014525 f i libvcruntime:undname.obj
 0001:00013542       ?Destructor@_HeapManager@@QAEXXZ 10014542 f i libvcruntime:undname.obj
 0001:00013589       ?UScore@UnDecorator@@SA?AUStringLiteral@@W4Tokens@@@Z 10014589 f   libvcruntime:undname.obj
 0001:000135b0       ?composeDeclaration@UnDecorator@@CA?AVDName@@ABV2@@Z 100145b0 f i libvcruntime:undname.obj
 0001:000142e3       ?doAccessSpecifiers@UnDecorator@@SAHXZ 100152e3 f i libvcruntime:undname.obj
 0001:000142f1       ?doAllocationLanguage@UnDecorator@@SAHXZ 100152f1 f i libvcruntime:undname.obj
 0001:000142ff       ?doAllocationModel@UnDecorator@@SAHXZ 100152ff f i libvcruntime:undname.obj
 0001:0001430d       ?doEcsu@UnDecorator@@SAHXZ 1001530d f i libvcruntime:undname.obj
 0001:0001431b       ?doEllipsis@UnDecorator@@SAHXZ 1001531b f i libvcruntime:undname.obj
 0001:00014329       ?doFunctionReturns@UnDecorator@@SAHXZ 10015329 f i libvcruntime:undname.obj
 0001:00014337       ?doMSKeywords@UnDecorator@@SAHXZ 10015337 f i libvcruntime:undname.obj
 0001:00014344       ?doMemberTypes@UnDecorator@@SAHXZ 10015344 f i libvcruntime:undname.obj
 0001:00014352       ?doNameOnly@UnDecorator@@SAHXZ 10015352 f i libvcruntime:undname.obj
 0001:0001435d       ?doNoIdentCharCheck@UnDecorator@@SAHXZ 1001535d f i libvcruntime:undname.obj
 0001:00014368       ?doPchar@DName@@AAEXD@Z    10015368 f   libvcruntime:undname.obj
 0001:000143a0       ?doPtr64@UnDecorator@@SAHXZ 100153a0 f i libvcruntime:undname.obj
 0001:000143ae       ?doRestrictionSpec@UnDecorator@@SAHXZ 100153ae f i libvcruntime:undname.obj
 0001:000143bc       ?doThisTypes@UnDecorator@@SAHXZ 100153bc f i libvcruntime:undname.obj
 0001:000143ce       ?doThrowTypes@UnDecorator@@SAHXZ 100153ce f i libvcruntime:undname.obj
 0001:000143dc       ?doTypeOnly@UnDecorator@@SAHXZ 100153dc f i libvcruntime:undname.obj
 0001:000143e7       ?doUnderScore@UnDecorator@@SAHXZ 100153e7 f i libvcruntime:undname.obj
 0001:000143f2       ?getAddressOf@UnDecorator@@CA?AVDName@@XZ 100153f2 f   libvcruntime:undname.obj
 0001:00014465       ?getArgumentList@UnDecorator@@CA?AVDName@@XZ 10015465 f   libvcruntime:undname.obj
 0001:00014572       ?getArgumentTypes@UnDecorator@@CA?AVDName@@XZ 10015572 f   libvcruntime:undname.obj
 0001:0001468b       ?getArrayAccess@UnDecorator@@CA?AVDName@@XZ 1001568b f   libvcruntime:undname.obj
 0001:0001470a       ?getArrayObject@UnDecorator@@CA?AVDName@@XZ 1001570a f   libvcruntime:undname.obj
 0001:000147ac       ?getArrayType@UnDecorator@@CA?AVDName@@ABV2@@Z 100157ac f i libvcruntime:undname.obj
 0001:00014949       ?getBasedType@UnDecorator@@CA?AVDName@@XZ 10015949 f   libvcruntime:undname.obj
 0001:00014a04       ?getBasicDataType@UnDecorator@@CA?AVDName@@ABV2@@Z 10015a04 f   libvcruntime:undname.obj
 0001:00014f38       ?getCHPEName@UnDecorator@@QAEPADPADH@Z 10015f38 f i libvcruntime:undname.obj
 0001:00015015       ?getCallIndex@UnDecorator@@CA?AVDName@@XZ 10016015 f i libvcruntime:undname.obj
 0001:00015029       ?getCallingConvention@UnDecorator@@CA?AVDName@@XZ 10016029 f   libvcruntime:undname.obj
 0001:00015106       ?getDataIndirectType@UnDecorator@@CA?AVDName@@ABV2@W4IndirectionKind@@0H@Z 10016106 f   libvcruntime:undname.obj
 0001:0001579c       ?getDataIndirectType@UnDecorator@@CA?AVDName@@XZ 1001679c f i libvcruntime:undname.obj
 0001:000157ca       ?getDataType@UnDecorator@@CA?AVDName@@PAV2@@Z 100167ca f   libvcruntime:undname.obj
 0001:000158a1       ?getDecoratedName@UnDecorator@@CA?AVDName@@XZ 100168a1 f   libvcruntime:undname.obj
 0001:00015b0b       ?getDimension@UnDecorator@@CA?AVDName@@_N@Z 10016b0b f   libvcruntime:undname.obj
 0001:00015c22       ?getDispatchTarget@UnDecorator@@CA?AVDName@@XZ 10016c22 f   libvcruntime:undname.obj
 0001:00015c76       ?getDisplacement@UnDecorator@@CA?AVDName@@XZ 10016c76 f i libvcruntime:undname.obj
 0001:00015c8a       ?getECSUDataType@UnDecorator@@CA?AVDName@@XZ 10016c8a f   libvcruntime:undname.obj
 0001:00015e1a       ?getECSUName@UnDecorator@@CA?AVDName@@XZ 10016e1a f i libvcruntime:undname.obj
 0001:00015e2b       ?getEnumType@UnDecorator@@CA?AVDName@@XZ 10016e2b f i libvcruntime:undname.obj
 0001:00015f4b       ?getExtendedDataIndirectType@UnDecorator@@CA?AVDName@@AAW4IndirectionKind@@AA_NH@Z 10016f4b f   libvcruntime:undname.obj
 0001:000160fe       ?getExternalDataType@UnDecorator@@CA?AVDName@@ABV2@@Z 100170fe f i libvcruntime:undname.obj
 0001:00016163       ?getFloatingPoint@UnDecorator@@CA?AVDName@@H@Z 10017163 f   libvcruntime:undname.obj
 0001:00016257       ?getFunctionIndirectType@UnDecorator@@CA?AVDName@@ABV2@@Z 10017257 f   libvcruntime:undname.obj
 0001:00016610       ?getGuardNumber@UnDecorator@@CA?AVDName@@XZ 10017610 f i libvcruntime:undname.obj
 0001:00016624       ?getLastChar@DName@@QBEDXZ 10017624 f i libvcruntime:undname.obj
 0001:00016644       ?getLastChar@DNameStatusNode@@UBEDXZ 10017644 f i libvcruntime:undname.obj
 0001:00016650       ?getLastChar@charNode@@UBEDXZ 10017650 f i libvcruntime:undname.obj
 0001:00016654       ?getLastChar@pDNameNode@@UBEDXZ 10017654 f i libvcruntime:undname.obj
 0001:00016662       ?getLastChar@pairNode@@UBEDXZ 10017662 f i libvcruntime:undname.obj
 0001:00016697       ?getLastChar@pcharNode@@UBEDXZ 10017697 f i libvcruntime:undname.obj
 0001:000166a9       ?getLexicalFrame@UnDecorator@@CA?AVDName@@XZ 100176a9 f i libvcruntime:undname.obj
 0001:000166da       ?getMemberAccess@UnDecorator@@CA?AVDName@@XZ 100176da f   libvcruntime:undname.obj
 0001:00016755       ?getMemoryWithBuffer@_HeapManager@@QAEPAXI@Z 10017755 f   libvcruntime:undname.obj
 0001:000167bf       ?getMemoryWithoutBuffer@_HeapManager@@QAEPAXI@Z 100177bf f   libvcruntime:undname.obj
 0001:000167df       ?getNoexcept@UnDecorator@@CA?AVDName@@XZ 100177df f   libvcruntime:undname.obj
 0001:00016833       ?getNumberOfDimensions@UnDecorator@@CAHXZ 10017833 f   libvcruntime:undname.obj
 0001:00016894       ?getOperatorName@UnDecorator@@CA?AVDName@@_NPA_N@Z 10017894 f i libvcruntime:undname.obj
 0001:00016ffc       ?getPointerToMember@UnDecorator@@CA?AVDName@@XZ 10017ffc f   libvcruntime:undname.obj
 0001:000170b7       ?getPointerType@UnDecorator@@CA?AVDName@@ABV2@0@Z 100180b7 f i libvcruntime:undname.obj
 0001:000170d2       ?getPointerTypeArray@UnDecorator@@CA?AVDName@@ABV2@0@Z 100180d2 f i libvcruntime:undname.obj
 0001:000170ed       ?getPrimaryDataType@UnDecorator@@CA?AVDName@@ABV2@@Z 100180ed f   libvcruntime:undname.obj
 0001:0001733c       ?getPtrRefDataType@UnDecorator@@CA?AVDName@@ABV2@H@Z 1001833c f   libvcruntime:undname.obj
 0001:000174a9       ?getPtrRefType@UnDecorator@@CA?AVDName@@ABV2@0W4IndirectionKind@@@Z 100184a9 f   libvcruntime:undname.obj
 0001:000175ba       ?getReferenceType@UnDecorator@@CA?AVDName@@ABV2@0W4IndirectionKind@@@Z 100185ba f i libvcruntime:undname.obj
 0001:000175d6       ?getRestrictionSpec@UnDecorator@@CA?AVDName@@XZ 100185d6 f   libvcruntime:undname.obj
 0001:000176fe       ?getReturnType@UnDecorator@@CA?AVDName@@PAV2@@Z 100186fe f   libvcruntime:undname.obj
 0001:0001772d       ?getScope@UnDecorator@@CA?AVDName@@XZ 1001872d f   libvcruntime:undname.obj
 0001:00017adf       ?getScopedName@UnDecorator@@CA?AVDName@@XZ 10018adf f   libvcruntime:undname.obj
 0001:00017bca       ?getSignedDimension@UnDecorator@@CA?AVDName@@XZ 10018bca f   libvcruntime:undname.obj
 0001:00017c1b       ?getStorageConvention@UnDecorator@@CA?AVDName@@XZ 10018c1b f i libvcruntime:undname.obj
 0001:00017c2c       ?getString@DName@@QBEPADPAD0@Z 10018c2c f i libvcruntime:undname.obj
 0001:00017c59       ?getString@DName@@QBEPADPADH@Z 10018c59 f i libvcruntime:undname.obj
 0001:00017cae       ?getString@DNameStatusNode@@UBEPADPAD0@Z 10018cae f i libvcruntime:undname.obj
 0001:00017cf4       ?getString@charNode@@UBEPADPAD0@Z 10018cf4 f i libvcruntime:undname.obj
 0001:00017d09       ?getString@pDNameNode@@UBEPADPAD0@Z 10018d09 f i libvcruntime:undname.obj
 0001:00017d20       ?getString@pairNode@@UBEPADPAD0@Z 10018d20 f i libvcruntime:undname.obj
 0001:00017d66       ?getString@pcharNode@@UBEPADPAD0@Z 10018d66 f i libvcruntime:undname.obj
 0001:00017d81       ?getStringEncoding@UnDecorator@@CA?AVDName@@W4PrefixKind@@H@Z 10018d81 f   libvcruntime:undname.obj
 0001:00017e39       ?getStringHelper@@YAPADPADPBD1H@Z 10018e39 f i libvcruntime:undname.obj
 0001:00017e63       ?getStringObject@UnDecorator@@CA?AVDName@@XZ 10018e63 f   libvcruntime:undname.obj
 0001:00017eba       ?getSymbolName@UnDecorator@@CA?AVDName@@XZ 10018eba f i libvcruntime:undname.obj
 0001:00017f02       ?getTemplateArgumentList@UnDecorator@@CA?AVDName@@XZ 10018f02 f   libvcruntime:undname.obj
 0001:000180be       ?getTemplateName@UnDecorator@@CA?AVDName@@_N@Z 100190be f   libvcruntime:undname.obj
 0001:0001821f       ?getTemplateNonTypeArgument@UnDecorator@@CA?AVDName@@XZ 1001921f f   libvcruntime:undname.obj
 0001:000185d3       ?getTemplateTypeArgument@UnDecorator@@CA?AVDName@@XZ 100195d3 f   libvcruntime:undname.obj
 0001:000186d9       ?getThisType@UnDecorator@@CA?AVDName@@XZ 100196d9 f i libvcruntime:undname.obj
 0001:00018708       ?getThrowTypes@UnDecorator@@CA?AVDName@@XZ 10019708 f   libvcruntime:undname.obj
 0001:0001872b       ?getTypeEncoding@UnDecorator@@CAHXZ 1001972b f i libvcruntime:undname.obj
 0001:00018a8b       ?getUndecoratedName@UnDecorator@@QAEPADPADH@Z 10019a8b f i libvcruntime:undname.obj
 0001:00018baa       ?getUnionObject@UnDecorator@@CA?AVDName@@XZ 10019baa f   libvcruntime:undname.obj
 0001:00018c59       ?getVCallThunkType@UnDecorator@@CA?AVDName@@XZ 10019c59 f i libvcruntime:undname.obj
 0001:00018caf       ?getValue@UnDecorator@@CA?AV?$optional@_K@std@@XZ 10019caf f   libvcruntime:undname.obj
 0001:00018d1d       ?getValueObject@UnDecorator@@CA?AVDName@@XZ 10019d1d f   libvcruntime:undname.obj
 0001:00018e35       ?getVbTableType@UnDecorator@@CA?AVDName@@ABV2@@Z 10019e35 f i libvcruntime:undname.obj
 0001:00018e4a       ?getVdispMapType@UnDecorator@@CA?AVDName@@ABV2@@Z 10019e4a f i libvcruntime:undname.obj
 0001:00018eab       ?getVfTableType@UnDecorator@@CA?AVDName@@ABV2@@Z 10019eab f i libvcruntime:undname.obj
 0001:00019001       ?getZName@UnDecorator@@CA?AVDName@@_N0@Z 1001a001 f   libvcruntime:undname.obj
 0001:00019216       ?haveTemplateParameters@UnDecorator@@SAHXZ 1001a216 f i libvcruntime:undname.obj
 0001:00019221       ?isArray@DName@@QBEHXZ     1001a221 f i libvcruntime:undname.obj
 0001:0001922b       ?isComArray@DName@@QBEHXZ  1001a22b f i libvcruntime:undname.obj
 0001:00019235       ?isEmpty@DName@@QBEHXZ     1001a235 f i libvcruntime:undname.obj
 0001:0001923d       ?isFull@Replicator@@QBEHXZ 1001a23d f i libvcruntime:undname.obj
 0001:00019246       ?isNoTE@DName@@QBEHXZ      1001a246 f i libvcruntime:undname.obj
 0001:00019250       ?isPinPtr@DName@@QBEHXZ    1001a250 f i libvcruntime:undname.obj
 0001:0001925a       ?isPtrRef@DName@@QBEHXZ    1001a25a f i libvcruntime:undname.obj
 0001:00019264       ?isUDC@DName@@QBEHXZ       1001a264 f i libvcruntime:undname.obj
 0001:00019275       ?isUDTThunk@DName@@QBEHXZ  1001a275 f i libvcruntime:undname.obj
 0001:00019286       ?isVCallThunk@DName@@QBEHXZ 1001a286 f i libvcruntime:undname.obj
 0001:00019290       ?isValid@DName@@QBEHXZ     1001a290 f i libvcruntime:undname.obj
 0001:0001929a       ?length@DName@@QBEHXZ      1001a29a f i libvcruntime:undname.obj
 0001:000192b9       ?length@DNameStatusNode@@UBEHXZ 1001a2b9 f i libvcruntime:undname.obj
 0001:000192bd       ?length@charNode@@UBEHXZ   1001a2bd f i libvcruntime:undname.obj
 0001:000192c1       ?length@pDNameNode@@UBEHXZ 1001a2c1 f i libvcruntime:undname.obj
 0001:000192cf       ?length@pairNode@@UBEHXZ   1001a2cf f i libvcruntime:undname.obj
 0001:00019318       ?length@pcharNode@@UBEHXZ  1001a318 f i libvcruntime:undname.obj
 0001:0001931c       ?make@DNameStatusNode@@SAPBV1@W4DNameStatus@@@Z 1001a31c f i libvcruntime:undname.obj
 0001:00019338       ?parseDecoratedName@UnDecorator@@CA?AVDName@@XZ 1001a338 f   libvcruntime:undname.obj
 0001:00019432       ?raw_length@DNameStatusNode@@UBEHXZ 1001a432 f i libvcruntime:undname.obj
 0001:00019436       ?raw_length@charNode@@UBEHXZ 1001a436 f i libvcruntime:undname.obj
 0001:0001943a       ?raw_length@pDNameNode@@UBEHXZ 1001a43a f i libvcruntime:undname.obj
 0001:0001943e       ?raw_length@pairNode@@UBEHXZ 1001a43e f i libvcruntime:undname.obj
 0001:00019442       ?raw_length@pcharNode@@UBEHXZ 1001a442 f i libvcruntime:undname.obj
 0001:00019446       ?setIsArray@DName@@QAEXXZ  1001a446 f i libvcruntime:undname.obj
 0001:0001944e       ?setIsComArray@DName@@QAEXXZ 1001a44e f i libvcruntime:undname.obj
 0001:00019456       ?setIsNoTE@DName@@QAEXXZ   1001a456 f i libvcruntime:undname.obj
 0001:0001945e       ?setIsPinPtr@DName@@QAEXXZ 1001a45e f i libvcruntime:undname.obj
 0001:00019466       ?setIsUDC@DName@@QAEXXZ    1001a466 f i libvcruntime:undname.obj
 0001:00019473       ?setIsVCallThunk@DName@@QAEXXZ 1001a473 f i libvcruntime:undname.obj
 0001:0001947b       ?setPtrRef@DName@@QAEAAV1@XZ 1001a47b f i libvcruntime:undname.obj
 0001:00019485       ?status@DName@@QBE?AW4DNameStatus@@XZ 1001a485 f i libvcruntime:undname.obj
 0001:000194f1       ___unDName                 1001a4f1 f   libvcruntime:undname.obj
 0001:00019514       ___unDNameEx               1001a514 f   libvcruntime:undname.obj
 0001:000195b3       __vsprintf_s_l             1001a5b3 f i libvcruntime:undname.obj
 0001:000195e0       _sprintf_s                 1001a5e0 f i libvcruntime:undname.obj
 0001:000195fc       _unDNameGenerateCHPE       1001a5fc f   libvcruntime:undname.obj
 0001:00019699       ??$__crt_interlocked_exchange_pointer@UHINSTANCE__@@PAU1@@@YAPAUHINSTANCE__@@PDSAU0@QAU0@@Z 1001a699 f i libvcruntime:winapi_downlevel.obj
 0001:000196a6       ??$__crt_interlocked_exchange_pointer@UHINSTANCE__@@PAX@@YAPAUHINSTANCE__@@PDSAU0@QAX@Z 1001a6a6 f i libvcruntime:winapi_downlevel.obj
 0001:000196b3       ??$__crt_interlocked_exchange_pointer@XPAX@@YAPAXPDSAXQAX@Z 1001a6b3 f i libvcruntime:winapi_downlevel.obj
 0001:000196c0       ??$__crt_interlocked_read_pointer@UHINSTANCE__@@@@YAPAUHINSTANCE__@@PDSAU0@@Z 1001a6c0 f i libvcruntime:winapi_downlevel.obj
 0001:000196ca       ??$__crt_interlocked_read_pointer@X@@YAPAXPDSAX@Z 1001a6ca f i libvcruntime:winapi_downlevel.obj
 0001:000198f9       ___vcrt_FlsAlloc           1001a8f9 f   libvcruntime:winapi_downlevel.obj
 0001:00019934       ___vcrt_FlsFree            1001a934 f   libvcruntime:winapi_downlevel.obj
 0001:0001996f       ___vcrt_FlsGetValue        1001a96f f   libvcruntime:winapi_downlevel.obj
 0001:000199aa       ___vcrt_FlsSetValue        1001a9aa f   libvcruntime:winapi_downlevel.obj
 0001:000199e8       ___vcrt_InitializeCriticalSectionEx 1001a9e8 f   libvcruntime:winapi_downlevel.obj
 0001:00019a2f       ?GetCurrentState@__FrameHandler3@@SAHPAUEHRegistrationNode@@PAXPBU_s_FuncInfo@@@Z 1001aa2f f   libvcruntime:ehstate.obj
 0001:00019a4c       ?SetState@__FrameHandler3@@SAXPAUEHRegistrationNode@@PBU_s_FuncInfo@@H@Z 1001aa4c f   libvcruntime:ehstate.obj
 0001:00019a60       __global_unwind2           1001aa60 f   libvcruntime:exsup.obj
 0001:00019ae0       __local_unwind2            1001aae0 f   libvcruntime:exsup.obj
 0001:00019b80       __abnormal_termination     1001ab80 f   libvcruntime:exsup.obj
 0001:00019bb0       __NLG_Notify1              1001abb0 f   libvcruntime:exsup.obj
 0001:00019bc0       __NLG_Notify               1001abc0 f   libvcruntime:exsup.obj
 0001:00019bd7       __NLG_Dispatch             1001abd7     libvcruntime:exsup.obj
 0001:00019bd7       __NLG_Dispatch2            1001abd7     libvcruntime:exsup.obj
 0001:00019be0       __NLG_Call                 1001abe0 f   libvcruntime:exsup.obj
 0001:00019be2       __NLG_Return2              1001abe2     libvcruntime:exsup.obj
 0001:00019be3       ??$__crt_fast_decode_pointer@P6AXPB_W00II@Z@@YAP6AXPB_W00II@ZQ6AX000II@Z@Z 1001abe3 f i libucrt:invalid_parameter.obj
 0001:00019bfe       ??$__crt_fast_encode_pointer@P6AXPB_W00II@Z@@YAP6AXPB_W00II@ZQ6AX000II@Z@Z 1001abfe f i libucrt:invalid_parameter.obj
 0001:00019c1d       ??$initialize_from_array@$$BY00Q6AXPB_W00II@Z@?$dual_state_global@P6AXPB_W00II@Z@__crt_state_management@@QAAXAAY00Q6AXPB_W00II@Z@Z 1001ac1d f i libucrt:invalid_parameter.obj
 0001:00019c2e       ??0?$cached@H@__crt_cached_ptd_host@@QAE@XZ 1001ac2e f i libucrt:invalid_parameter.obj
 0001:00019c35       ??0?$cached@K@__crt_cached_ptd_host@@QAE@XZ 1001ac35 f i libucrt:invalid_parameter.obj
 0001:00019c3c       ??0__crt_cached_ptd_host@@QAE@QAU__crt_locale_pointers@@@Z 1001ac3c f i libucrt:invalid_parameter.obj
 0001:00019c84       ??0__crt_scoped_get_last_error_reset@@QAE@XZ 1001ac84 f i libucrt:invalid_parameter.obj
 0001:00019c95       ??1__crt_cached_ptd_host@@QAE@XZ 1001ac95 f i libucrt:invalid_parameter.obj
 0001:00019cd1       ??1__crt_scoped_get_last_error_reset@@QAE@XZ 1001acd1 f i libucrt:invalid_parameter.obj
 0001:00019cda       ?__crt_rotate_pointer_value@@YAIIH@Z 1001acda f i libucrt:invalid_parameter.obj
 0001:00019ce9       ?check_synchronize_global_state_index@__crt_cached_ptd_host@@AAEIABV__crt_scoped_get_last_error_reset@@@Z 1001ace9 f i libucrt:invalid_parameter.obj
 0001:00019d01       ?check_synchronize_global_state_index@__crt_cached_ptd_host@@AAEIXZ 1001ad01 f i libucrt:invalid_parameter.obj
 0001:00019d2a       ?check_synchronize_per_thread_data@__crt_cached_ptd_host@@AAEPAU__acrt_ptd@@XZ 1001ad2a f i libucrt:invalid_parameter.obj
 0001:00019d47       ?dangerous_get_state_array@?$dual_state_global@P6AXPB_W00II@Z@__crt_state_management@@QAEPAP6AXPB_W00II@ZXZ 1001ad47 f i libucrt:invalid_parameter.obj
 0001:00019d4a       ?force_synchronize_global_state_index@__crt_cached_ptd_host@@AAEIABV__crt_scoped_get_last_error_reset@@@Z 1001ad4a f i libucrt:invalid_parameter.obj
 0001:00019d57       ?force_synchronize_per_thread_data@__crt_cached_ptd_host@@AAEPAU__acrt_ptd@@XZ 1001ad57 f i libucrt:invalid_parameter.obj
 0001:00019d9d       ?get_current_global_state_index@__crt_cached_ptd_host@@QAEIXZ 1001ad9d f i libucrt:invalid_parameter.obj
 0001:00019da2       ?get_current_state_index@__crt_state_management@@YAIABV__crt_scoped_get_last_error_reset@@@Z 1001ada2 f i libucrt:invalid_parameter.obj
 0001:00019da5       ?get_current_state_index@__crt_state_management@@YAIXZ 1001ada5 f i libucrt:invalid_parameter.obj
 0001:00019da8       ?get_raw_ptd@__crt_cached_ptd_host@@QAEPAU__acrt_ptd@@XZ 1001ada8 f i libucrt:invalid_parameter.obj
 0001:00019dc5       ?get_raw_ptd_noexit@__crt_cached_ptd_host@@QAEPAU__acrt_ptd@@XZ 1001adc5 f i libucrt:invalid_parameter.obj
 0001:00019dd0       ?try_synchronize_per_thread_data@__crt_cached_ptd_host@@AAEPAU__acrt_ptd@@XZ 1001add0 f i libucrt:invalid_parameter.obj
 0001:00019ddb       ?unsafe_value@?$cached@H@__crt_cached_ptd_host@@QAEHXZ 1001addb f i libucrt:invalid_parameter.obj
 0001:00019dde       ?unsafe_value@?$cached@K@__crt_cached_ptd_host@@QAEKXZ 1001adde f i libucrt:invalid_parameter.obj
 0001:00019de1       ?valid@?$cached@H@__crt_cached_ptd_host@@QBE_NXZ 1001ade1 f i libucrt:invalid_parameter.obj
 0001:00019de5       ?valid@?$cached@K@__crt_cached_ptd_host@@QBE_NXZ 1001ade5 f i libucrt:invalid_parameter.obj
 0001:00019de9       ?value@?$dual_state_global@P6AXPB_W00II@Z@__crt_state_management@@QAEAAP6AXPB_W00II@ZAAV__crt_cached_ptd_host@@@Z 1001ade9 f i libucrt:invalid_parameter.obj
 0001:00019e01       ?value@?$dual_state_global@P6AXPB_W00II@Z@__crt_state_management@@QAEAAP6AXPB_W00II@ZXZ 1001ae01 f i libucrt:invalid_parameter.obj
 0001:00019e04       ___acrt_call_reportfault   1001ae04 f   libucrt:invalid_parameter.obj
 0001:00019f3d       ___acrt_enable_global_locale_sync 1001af3d f i libucrt:invalid_parameter.obj
 0001:00019f52       ___acrt_initialize_invalid_parameter_handler 1001af52 f   libucrt:invalid_parameter.obj
 0001:00019f61       ___acrt_locale_changed     1001af61 f i libucrt:invalid_parameter.obj
 0001:00019f6c       __get_invalid_parameter_handler 1001af6c f   libucrt:invalid_parameter.obj
 0001:00019f83       __get_thread_local_invalid_parameter_handler 1001af83 f   libucrt:invalid_parameter.obj
 0001:00019f94       __invalid_parameter        1001af94 f   libucrt:invalid_parameter.obj
 0001:00019fcb       __invalid_parameter_internal 1001afcb f   libucrt:invalid_parameter.obj
 0001:0001a048       __invalid_parameter_noinfo 1001b048 f   libucrt:invalid_parameter.obj
 0001:0001a058       __invalid_parameter_noinfo_noreturn 1001b058 f   libucrt:invalid_parameter.obj
 0001:0001a075       __invoke_watson            1001b075 f   libucrt:invalid_parameter.obj
 0001:0001a0a9       __set_invalid_parameter_handler 1001b0a9 f   libucrt:invalid_parameter.obj
 0001:0001a0d9       __set_thread_local_invalid_parameter_handler 1001b0d9 f   libucrt:invalid_parameter.obj
 0001:0001a0f6       ?get_doserrno@__crt_cached_ptd_host@@QAE@XZ 1001b0f6 f i libucrt:errno.obj
 0001:0001a0fa       ?get_errno@__crt_cached_ptd_host@@QAE@XZ 1001b0fa f i libucrt:errno.obj
 0001:0001a0fe       ?set@?$cached@H@__crt_cached_ptd_host@@QAEHH@Z 1001b0fe f i libucrt:errno.obj
 0001:0001a110       ?set@?$cached@K@__crt_cached_ptd_host@@QAEKK@Z 1001b110 f i libucrt:errno.obj
 0001:0001a122       ___acrt_errno_from_os_error 1001b122 f   libucrt:errno.obj
 0001:0001a165       ___acrt_errno_map_os_error 1001b165 f   libucrt:errno.obj
 0001:0001a188       ___acrt_errno_map_os_error_ptd 1001b188 f   libucrt:errno.obj
 0001:0001a1ac       ___doserrno                1001b1ac f   libucrt:errno.obj
 0001:0001a1bf       __errno                    1001b1bf f   libucrt:errno.obj
 0001:0001a1d2       __get_doserrno             1001b1d2 f   libucrt:errno.obj
 0001:0001a1f7       __get_errno                1001b1f7 f   libucrt:errno.obj
 0001:0001a21c       __set_doserrno             1001b21c f   libucrt:errno.obj
 0001:0001a23d       __set_errno                1001b23d f   libucrt:errno.obj
 0001:0001a2c2       _wcscpy_s                  1001b2c2 f   libucrt:wcscpy_s.obj
 0001:0001a3f4       _wcsncpy_s                 1001b3f4 f   libucrt:wcsncpy_s.obj
 0001:0001abfa       ??1?$__crt_simd_cleanup_guard@$00@@QAE@XZ 1001bbfa f i libucrt:strnlen.obj
 0001:0001abfe       ??1?$__crt_simd_cleanup_guard@$0A@@@QAE@XZ 1001bbfe f i libucrt:strnlen.obj
 0001:0001ac01       ?compare_equals@?$__crt_simd_traits@$00E@@SA?AT__m256i@@T2@0@Z 1001bc01 f i libucrt:strnlen.obj
 0001:0001ac06       ?compare_equals@?$__crt_simd_traits@$00G@@SA?AT__m256i@@T2@0@Z 1001bc06 f i libucrt:strnlen.obj
 0001:0001ac0b       ?compare_equals@?$__crt_simd_traits@$0A@E@@SA?AT__m128i@@T2@0@Z 1001bc0b f i libucrt:strnlen.obj
 0001:0001ac10       ?compare_equals@?$__crt_simd_traits@$0A@G@@SA?AT__m128i@@T2@0@Z 1001bc10 f i libucrt:strnlen.obj
 0001:0001ac15       ?compute_byte_mask@?$__crt_simd_pack_traits@$00@@SAHT__m256i@@@Z 1001bc15 f i libucrt:strnlen.obj
 0001:0001ac1a       ?compute_byte_mask@?$__crt_simd_pack_traits@$0A@@@SAHT__m128i@@@Z 1001bc1a f i libucrt:strnlen.obj
 0001:0001ac1f       ?get_zero_pack@?$__crt_simd_pack_traits@$00@@SA?AT__m256i@@XZ 1001bc1f f i libucrt:strnlen.obj
 0001:0001ac24       ?get_zero_pack@?$__crt_simd_pack_traits@$0A@@@SA?AT__m128i@@XZ 1001bc24 f i libucrt:strnlen.obj
 0001:0001ac28       _strnlen                   1001bc28 f   libucrt:strnlen.obj
 0001:0001ad4a       _wcslen                    1001bd4a f   libucrt:strnlen.obj
 0001:0001ae72       _wcsnlen                   1001be72 f   libucrt:strnlen.obj
 0001:0001b022       _wcsncmp                   1001c022 f   libucrt:wcsncmp.obj
 0001:0001b05c       ??$?0ABV?$stream_output_adapter@D@__crt_stdio_output@@AB_KABQBDAAV__crt_cached_ptd_host@@ABQAD@?$format_validation_base@DV?$stream_output_adapter@D@__crt_stdio_output@@@__crt_stdio_output@@IAE@ABV?$stream_output_adapter@D@1@AB_KABQBDAAV__crt_cached_ptd_host@@ABQAD@Z 1001c05c f i libucrt:output.obj
 0001:0001b07f       ??$?0ABV?$stream_output_adapter@D@__crt_stdio_output@@AB_KABQBDAAV__crt_cached_ptd_host@@ABQAD@?$positional_parameter_base@DV?$stream_output_adapter@D@__crt_stdio_output@@@__crt_stdio_output@@IAE@ABV?$stream_output_adapter@D@1@AB_KABQBDAAV__crt_cached_ptd_host@@ABQAD@Z 1001c07f f i libucrt:output.obj
 0001:0001b0c7       ??$?0ABV?$stream_output_adapter@D@__crt_stdio_output@@AB_KABQBDAAV__crt_cached_ptd_host@@ABQAD@?$standard_base@DV?$stream_output_adapter@D@__crt_stdio_output@@@__crt_stdio_output@@IAE@ABV?$stream_output_adapter@D@1@AB_KABQBDAAV__crt_cached_ptd_host@@ABQAD@Z 1001c0c7 f i libucrt:output.obj
 0001:0001b0fa       ??$?0ABV?$stream_output_adapter@_W@__crt_stdio_output@@AB_KABQB_WAAV__crt_cached_ptd_host@@ABQAD@?$format_validation_base@_WV?$stream_output_adapter@_W@__crt_stdio_output@@@__crt_stdio_output@@IAE@ABV?$stream_output_adapter@_W@1@AB_KABQB_WAAV__crt_cached_ptd_host@@ABQAD@Z 1001c0fa f i libucrt:output.obj
 0001:0001b11d       ??$?0ABV?$stream_output_adapter@_W@__crt_stdio_output@@AB_KABQB_WAAV__crt_cached_ptd_host@@ABQAD@?$positional_parameter_base@_WV?$stream_output_adapter@_W@__crt_stdio_output@@@__crt_stdio_output@@IAE@ABV?$stream_output_adapter@_W@1@AB_KABQB_WAAV__crt_cached_ptd_host@@ABQAD@Z 1001c11d f i libucrt:output.obj
 0001:0001b165       ??$?0ABV?$stream_output_adapter@_W@__crt_stdio_output@@AB_KABQB_WAAV__crt_cached_ptd_host@@ABQAD@?$standard_base@_WV?$stream_output_adapter@_W@__crt_stdio_output@@@__crt_stdio_output@@IAE@ABV?$stream_output_adapter@_W@1@AB_KABQB_WAAV__crt_cached_ptd_host@@ABQAD@Z 1001c165 f i libucrt:output.obj
 0001:0001b198       ??$?0ABV?$string_output_adapter@D@__crt_stdio_output@@AB_KABQBDAAV__crt_cached_ptd_host@@ABQAD@?$format_validation_base@DV?$string_output_adapter@D@__crt_stdio_output@@@__crt_stdio_output@@IAE@ABV?$string_output_adapter@D@1@AB_KABQBDAAV__crt_cached_ptd_host@@ABQAD@Z 1001c198 f i libucrt:output.obj
 0001:0001b1bb       ??$?0ABV?$string_output_adapter@D@__crt_stdio_output@@AB_KABQBDAAV__crt_cached_ptd_host@@ABQAD@?$positional_parameter_base@DV?$string_output_adapter@D@__crt_stdio_output@@@__crt_stdio_output@@IAE@ABV?$string_output_adapter@D@1@AB_KABQBDAAV__crt_cached_ptd_host@@ABQAD@Z 1001c1bb f i libucrt:output.obj
 0001:0001b203       ??$?0ABV?$string_output_adapter@D@__crt_stdio_output@@AB_KABQBDAAV__crt_cached_ptd_host@@ABQAD@?$standard_base@DV?$string_output_adapter@D@__crt_stdio_output@@@__crt_stdio_output@@IAE@ABV?$string_output_adapter@D@1@AB_KABQBDAAV__crt_cached_ptd_host@@ABQAD@Z 1001c203 f i libucrt:output.obj
 0001:0001b236       ??$?0ABV?$string_output_adapter@_W@__crt_stdio_output@@AB_KABQB_WAAV__crt_cached_ptd_host@@ABQAD@?$format_validation_base@_WV?$string_output_adapter@_W@__crt_stdio_output@@@__crt_stdio_output@@IAE@ABV?$string_output_adapter@_W@1@AB_KABQB_WAAV__crt_cached_ptd_host@@ABQAD@Z 1001c236 f i libucrt:output.obj
 0001:0001b259       ??$?0ABV?$string_output_adapter@_W@__crt_stdio_output@@AB_KABQB_WAAV__crt_cached_ptd_host@@ABQAD@?$positional_parameter_base@_WV?$string_output_adapter@_W@__crt_stdio_output@@@__crt_stdio_output@@IAE@ABV?$string_output_adapter@_W@1@AB_KABQB_WAAV__crt_cached_ptd_host@@ABQAD@Z 1001c259 f i libucrt:output.obj
 0001:0001b2a1       ??$?0ABV?$string_output_adapter@_W@__crt_stdio_output@@AB_KABQB_WAAV__crt_cached_ptd_host@@ABQAD@?$standard_base@_WV?$string_output_adapter@_W@__crt_stdio_output@@@__crt_stdio_output@@IAE@ABV?$string_output_adapter@_W@1@AB_KABQB_WAAV__crt_cached_ptd_host@@ABQAD@Z 1001c2a1 f i libucrt:output.obj
 0001:0001b5da       ??$__crt_interlocked_read@J@@YAJPDJ@Z 1001c5da f i libucrt:output.obj
 0001:0001b5e7       ??$_tcstol_internal@DPAPAD$0A@@@YAJAAV__crt_cached_ptd_host@@QBDQAPADH@Z 1001c5e7 f i libucrt:output.obj
 0001:0001b612       ??$_tcstol_internal@_WPAPA_W$0A@@@YAJAAV__crt_cached_ptd_host@@QB_WQAPA_WH@Z 1001c612 f i libucrt:output.obj
 0001:0001c56c       ??$count@D@formatting_buffer@__crt_stdio_output@@QBEIXZ 1001d56c f i libucrt:output.obj
 0001:0001c584       ??$count@_W@formatting_buffer@__crt_stdio_output@@QBEIXZ 1001d584 f i libucrt:output.obj
 0001:0001c59d       ??$data@D@formatting_buffer@__crt_stdio_output@@QAEPADXZ 1001d59d f i libucrt:output.obj
 0001:0001c5aa       ??$data@_W@formatting_buffer@__crt_stdio_output@@QAEPA_WXZ 1001d5aa f i libucrt:output.obj
 0001:0001c5b7       ??$ensure_buffer_is_big_enough@D@formatting_buffer@__crt_stdio_output@@QAE_NIAAV__crt_cached_ptd_host@@@Z 1001d5b7 f i libucrt:output.obj
 0001:0001c638       ??$ensure_buffer_is_big_enough@_W@formatting_buffer@__crt_stdio_output@@QAE_NIAAV__crt_cached_ptd_host@@@Z 1001d638 f i libucrt:output.obj
 0001:0001c6ba       ??$extract_argument_from_va_list@C_J@?$positional_parameter_base@DV?$stream_output_adapter@D@__crt_stdio_output@@@__crt_stdio_output@@IAE_NAA_J@Z 1001d6ba f i libucrt:output.obj
 0001:0001c749       ??$extract_argument_from_va_list@C_J@?$positional_parameter_base@DV?$string_output_adapter@D@__crt_stdio_output@@@__crt_stdio_output@@IAE_NAA_J@Z 1001d749 f i libucrt:output.obj
 0001:0001c7d8       ??$extract_argument_from_va_list@C_J@?$positional_parameter_base@_WV?$stream_output_adapter@_W@__crt_stdio_output@@@__crt_stdio_output@@IAE_NAA_J@Z 1001d7d8 f i libucrt:output.obj
 0001:0001c868       ??$extract_argument_from_va_list@C_J@?$positional_parameter_base@_WV?$string_output_adapter@_W@__crt_stdio_output@@@__crt_stdio_output@@IAE_NAA_J@Z 1001d868 f i libucrt:output.obj
 0001:0001c8f8       ??$extract_argument_from_va_list@C_J@?$standard_base@DV?$stream_output_adapter@D@__crt_stdio_output@@@__crt_stdio_output@@IAE_NAA_J@Z 1001d8f8 f i libucrt:output.obj
 0001:0001c918       ??$extract_argument_from_va_list@C_J@?$standard_base@DV?$string_output_adapter@D@__crt_stdio_output@@@__crt_stdio_output@@IAE_NAA_J@Z 1001d918 f i libucrt:output.obj
 0001:0001c938       ??$extract_argument_from_va_list@C_J@?$standard_base@_WV?$stream_output_adapter@_W@__crt_stdio_output@@@__crt_stdio_output@@IAE_NAA_J@Z 1001d938 f i libucrt:output.obj
 0001:0001c958       ??$extract_argument_from_va_list@C_J@?$standard_base@_WV?$string_output_adapter@_W@__crt_stdio_output@@@__crt_stdio_output@@IAE_NAA_J@Z 1001d958 f i libucrt:output.obj
 0001:0001c978       ??$extract_argument_from_va_list@E_J@?$positional_parameter_base@DV?$stream_output_adapter@D@__crt_stdio_output@@@__crt_stdio_output@@IAE_NAA_J@Z 1001d978 f i libucrt:output.obj
 0001:0001ca07       ??$extract_argument_from_va_list@E_J@?$positional_parameter_base@DV?$string_output_adapter@D@__crt_stdio_output@@@__crt_stdio_output@@IAE_NAA_J@Z 1001da07 f i libucrt:output.obj
 0001:0001ca96       ??$extract_argument_from_va_list@E_J@?$positional_parameter_base@_WV?$stream_output_adapter@_W@__crt_stdio_output@@@__crt_stdio_output@@IAE_NAA_J@Z 1001da96 f i libucrt:output.obj
 0001:0001cb26       ??$extract_argument_from_va_list@E_J@?$positional_parameter_base@_WV?$string_output_adapter@_W@__crt_stdio_output@@@__crt_stdio_output@@IAE_NAA_J@Z 1001db26 f i libucrt:output.obj
 0001:0001cbb6       ??$extract_argument_from_va_list@E_J@?$standard_base@DV?$stream_output_adapter@D@__crt_stdio_output@@@__crt_stdio_output@@IAE_NAA_J@Z 1001dbb6 f i libucrt:output.obj
 0001:0001cbd6       ??$extract_argument_from_va_list@E_J@?$standard_base@DV?$string_output_adapter@D@__crt_stdio_output@@@__crt_stdio_output@@IAE_NAA_J@Z 1001dbd6 f i libucrt:output.obj
 0001:0001cbf6       ??$extract_argument_from_va_list@E_J@?$standard_base@_WV?$stream_output_adapter@_W@__crt_stdio_output@@@__crt_stdio_output@@IAE_NAA_J@Z 1001dbf6 f i libucrt:output.obj
 0001:0001cc16       ??$extract_argument_from_va_list@E_J@?$standard_base@_WV?$string_output_adapter@_W@__crt_stdio_output@@@__crt_stdio_output@@IAE_NAA_J@Z 1001dc16 f i libucrt:output.obj
 0001:0001cc36       ??$extract_argument_from_va_list@F_J@?$positional_parameter_base@DV?$stream_output_adapter@D@__crt_stdio_output@@@__crt_stdio_output@@IAE_NAA_J@Z 1001dc36 f i libucrt:output.obj
 0001:0001ccc5       ??$extract_argument_from_va_list@F_J@?$positional_parameter_base@DV?$string_output_adapter@D@__crt_stdio_output@@@__crt_stdio_output@@IAE_NAA_J@Z 1001dcc5 f i libucrt:output.obj
 0001:0001cd54       ??$extract_argument_from_va_list@F_J@?$positional_parameter_base@_WV?$stream_output_adapter@_W@__crt_stdio_output@@@__crt_stdio_output@@IAE_NAA_J@Z 1001dd54 f i libucrt:output.obj
 0001:0001cde4       ??$extract_argument_from_va_list@F_J@?$positional_parameter_base@_WV?$string_output_adapter@_W@__crt_stdio_output@@@__crt_stdio_output@@IAE_NAA_J@Z 1001dde4 f i libucrt:output.obj
 0001:0001ce74       ??$extract_argument_from_va_list@F_J@?$standard_base@DV?$stream_output_adapter@D@__crt_stdio_output@@@__crt_stdio_output@@IAE_NAA_J@Z 1001de74 f i libucrt:output.obj
 0001:0001ce94       ??$extract_argument_from_va_list@F_J@?$standard_base@DV?$string_output_adapter@D@__crt_stdio_output@@@__crt_stdio_output@@IAE_NAA_J@Z 1001de94 f i libucrt:output.obj
 0001:0001ceb4       ??$extract_argument_from_va_list@F_J@?$standard_base@_WV?$stream_output_adapter@_W@__crt_stdio_output@@@__crt_stdio_output@@IAE_NAA_J@Z 1001deb4 f i libucrt:output.obj
 0001:0001ced4       ??$extract_argument_from_va_list@F_J@?$standard_base@_WV?$string_output_adapter@_W@__crt_stdio_output@@@__crt_stdio_output@@IAE_NAA_J@Z 1001ded4 f i libucrt:output.obj
 0001:0001cef4       ??$extract_argument_from_va_list@GD@?$positional_parameter_base@DV?$stream_output_adapter@D@__crt_stdio_output@@@__crt_stdio_output@@IAE_NAAD@Z 1001def4 f i libucrt:output.obj
 0001:0001cf82       ??$extract_argument_from_va_list@GD@?$positional_parameter_base@DV?$string_output_adapter@D@__crt_stdio_output@@@__crt_stdio_output@@IAE_NAAD@Z 1001df82 f i libucrt:output.obj
 0001:0001d010       ??$extract_argument_from_va_list@GD@?$standard_base@DV?$stream_output_adapter@D@__crt_stdio_output@@@__crt_stdio_output@@IAE_NAAD@Z 1001e010 f i libucrt:output.obj
 0001:0001d02b       ??$extract_argument_from_va_list@GD@?$standard_base@DV?$string_output_adapter@D@__crt_stdio_output@@@__crt_stdio_output@@IAE_NAAD@Z 1001e02b f i libucrt:output.obj
 0001:0001d046       ??$extract_argument_from_va_list@G_J@?$positional_parameter_base@DV?$stream_output_adapter@D@__crt_stdio_output@@@__crt_stdio_output@@IAE_NAA_J@Z 1001e046 f i libucrt:output.obj
 0001:0001d0d5       ??$extract_argument_from_va_list@G_J@?$positional_parameter_base@DV?$string_output_adapter@D@__crt_stdio_output@@@__crt_stdio_output@@IAE_NAA_J@Z 1001e0d5 f i libucrt:output.obj
 0001:0001d164       ??$extract_argument_from_va_list@G_J@?$positional_parameter_base@_WV?$stream_output_adapter@_W@__crt_stdio_output@@@__crt_stdio_output@@IAE_NAA_J@Z 1001e164 f i libucrt:output.obj
 0001:0001d1f4       ??$extract_argument_from_va_list@G_J@?$positional_parameter_base@_WV?$string_output_adapter@_W@__crt_stdio_output@@@__crt_stdio_output@@IAE_NAA_J@Z 1001e1f4 f i libucrt:output.obj
 0001:0001d284       ??$extract_argument_from_va_list@G_J@?$standard_base@DV?$stream_output_adapter@D@__crt_stdio_output@@@__crt_stdio_output@@IAE_NAA_J@Z 1001e284 f i libucrt:output.obj
 0001:0001d2a4       ??$extract_argument_from_va_list@G_J@?$standard_base@DV?$string_output_adapter@D@__crt_stdio_output@@@__crt_stdio_output@@IAE_NAA_J@Z 1001e2a4 f i libucrt:output.obj
 0001:0001d2c4       ??$extract_argument_from_va_list@G_J@?$standard_base@_WV?$stream_output_adapter@_W@__crt_stdio_output@@@__crt_stdio_output@@IAE_NAA_J@Z 1001e2c4 f i libucrt:output.obj
 0001:0001d2e4       ??$extract_argument_from_va_list@G_J@?$standard_base@_WV?$string_output_adapter@_W@__crt_stdio_output@@@__crt_stdio_output@@IAE_NAA_J@Z 1001e2e4 f i libucrt:output.obj
 0001:0001d304       ??$extract_argument_from_va_list@H_J@?$positional_parameter_base@DV?$stream_output_adapter@D@__crt_stdio_output@@@__crt_stdio_output@@IAE_NAA_J@Z 1001e304 f i libucrt:output.obj
 0001:0001d38d       ??$extract_argument_from_va_list@H_J@?$positional_parameter_base@DV?$string_output_adapter@D@__crt_stdio_output@@@__crt_stdio_output@@IAE_NAA_J@Z 1001e38d f i libucrt:output.obj
 0001:0001d416       ??$extract_argument_from_va_list@H_J@?$positional_parameter_base@_WV?$stream_output_adapter@_W@__crt_stdio_output@@@__crt_stdio_output@@IAE_NAA_J@Z 1001e416 f i libucrt:output.obj
 0001:0001d4a0       ??$extract_argument_from_va_list@H_J@?$positional_parameter_base@_WV?$string_output_adapter@_W@__crt_stdio_output@@@__crt_stdio_output@@IAE_NAA_J@Z 1001e4a0 f i libucrt:output.obj
 0001:0001d52a       ??$extract_argument_from_va_list@H_J@?$standard_base@DV?$stream_output_adapter@D@__crt_stdio_output@@@__crt_stdio_output@@IAE_NAA_J@Z 1001e52a f i libucrt:output.obj
 0001:0001d549       ??$extract_argument_from_va_list@H_J@?$standard_base@DV?$string_output_adapter@D@__crt_stdio_output@@@__crt_stdio_output@@IAE_NAA_J@Z 1001e549 f i libucrt:output.obj
 0001:0001d568       ??$extract_argument_from_va_list@H_J@?$standard_base@_WV?$stream_output_adapter@_W@__crt_stdio_output@@@__crt_stdio_output@@IAE_NAA_J@Z 1001e568 f i libucrt:output.obj
 0001:0001d587       ??$extract_argument_from_va_list@H_J@?$standard_base@_WV?$string_output_adapter@_W@__crt_stdio_output@@@__crt_stdio_output@@IAE_NAA_J@Z 1001e587 f i libucrt:output.obj
 0001:0001d5a6       ??$extract_argument_from_va_list@I_J@?$positional_parameter_base@DV?$stream_output_adapter@D@__crt_stdio_output@@@__crt_stdio_output@@IAE_NAA_J@Z 1001e5a6 f i libucrt:output.obj
 0001:0001d63c       ??$extract_argument_from_va_list@I_J@?$positional_parameter_base@DV?$string_output_adapter@D@__crt_stdio_output@@@__crt_stdio_output@@IAE_NAA_J@Z 1001e63c f i libucrt:output.obj
 0001:0001d6d2       ??$extract_argument_from_va_list@I_J@?$positional_parameter_base@_WV?$stream_output_adapter@_W@__crt_stdio_output@@@__crt_stdio_output@@IAE_NAA_J@Z 1001e6d2 f i libucrt:output.obj
 0001:0001d769       ??$extract_argument_from_va_list@I_J@?$positional_parameter_base@_WV?$string_output_adapter@_W@__crt_stdio_output@@@__crt_stdio_output@@IAE_NAA_J@Z 1001e769 f i libucrt:output.obj
 0001:0001d800       ??$extract_argument_from_va_list@I_J@?$standard_base@DV?$stream_output_adapter@D@__crt_stdio_output@@@__crt_stdio_output@@IAE_NAA_J@Z 1001e800 f i libucrt:output.obj
 0001:0001d81f       ??$extract_argument_from_va_list@I_J@?$standard_base@DV?$string_output_adapter@D@__crt_stdio_output@@@__crt_stdio_output@@IAE_NAA_J@Z 1001e81f f i libucrt:output.obj
 0001:0001d83e       ??$extract_argument_from_va_list@I_J@?$standard_base@_WV?$stream_output_adapter@_W@__crt_stdio_output@@@__crt_stdio_output@@IAE_NAA_J@Z 1001e83e f i libucrt:output.obj
 0001:0001d85d       ??$extract_argument_from_va_list@I_J@?$standard_base@_WV?$string_output_adapter@_W@__crt_stdio_output@@@__crt_stdio_output@@IAE_NAA_J@Z 1001e85d f i libucrt:output.obj
 0001:0001d87c       ??$extract_argument_from_va_list@PADPAD@?$positional_parameter_base@DV?$stream_output_adapter@D@__crt_stdio_output@@@__crt_stdio_output@@IAE_NAAPAD@Z 1001e87c f i libucrt:output.obj
 0001:0001d90a       ??$extract_argument_from_va_list@PADPAD@?$positional_parameter_base@DV?$string_output_adapter@D@__crt_stdio_output@@@__crt_stdio_output@@IAE_NAAPAD@Z 1001e90a f i libucrt:output.obj
 0001:0001d998       ??$extract_argument_from_va_list@PADPAD@?$positional_parameter_base@_WV?$stream_output_adapter@_W@__crt_stdio_output@@@__crt_stdio_output@@IAE_NAAPAD@Z 1001e998 f i libucrt:output.obj
 0001:0001da27       ??$extract_argument_from_va_list@PADPAD@?$positional_parameter_base@_WV?$string_output_adapter@_W@__crt_stdio_output@@@__crt_stdio_output@@IAE_NAAPAD@Z 1001ea27 f i libucrt:output.obj
 0001:0001dab6       ??$extract_argument_from_va_list@PADPAD@?$standard_base@DV?$stream_output_adapter@D@__crt_stdio_output@@@__crt_stdio_output@@IAE_NAAPAD@Z 1001eab6 f i libucrt:output.obj
 0001:0001dad3       ??$extract_argument_from_va_list@PADPAD@?$standard_base@DV?$string_output_adapter@D@__crt_stdio_output@@@__crt_stdio_output@@IAE_NAAPAD@Z 1001ead3 f i libucrt:output.obj
 0001:0001daf0       ??$extract_argument_from_va_list@PADPAD@?$standard_base@_WV?$stream_output_adapter@_W@__crt_stdio_output@@@__crt_stdio_output@@IAE_NAAPAD@Z 1001eaf0 f i libucrt:output.obj
 0001:0001db0d       ??$extract_argument_from_va_list@PADPAD@?$standard_base@_WV?$string_output_adapter@_W@__crt_stdio_output@@@__crt_stdio_output@@IAE_NAAPAD@Z 1001eb0d f i libucrt:output.obj
 0001:0001db2a       ??$extract_argument_from_va_list@PAUansi_string@?1??type_case_Z@?$output_processor@DV?$stream_output_adapter@D@__crt_stdio_output@@V?$format_validation_base@DV?$stream_output_adapter@D@__crt_stdio_output@@@2@@__crt_stdio_output@@AAE_NXZ@PAU1?1??234@AAE_NXZ@@?$standard_base@DV?$stream_output_adapter@D@__crt_stdio_output@@@__crt_stdio_output@@IAE_NAAPAUansi_string@?1??type_case_Z@?$output_processor@DV?$stream_output_adapter@D@__crt_stdio_output@@V?$format_validation_base@DV?$stream_output_adapter@D@__crt_stdio_output@@@2@@1@AAE_NXZ@@Z 1001eb2a f i libucrt:output.obj
 0001:0001db47       ??$extract_argument_from_va_list@PAUansi_string@?1??type_case_Z@?$output_processor@DV?$stream_output_adapter@D@__crt_stdio_output@@V?$positional_parameter_base@DV?$stream_output_adapter@D@__crt_stdio_output@@@2@@__crt_stdio_output@@AAE_NXZ@PAU1?1??234@AAE_NXZ@@?$positional_parameter_base@DV?$stream_output_adapter@D@__crt_stdio_output@@@__crt_stdio_output@@IAE_NAAPAUansi_string@?1??type_case_Z@?$output_processor@DV?$stream_output_adapter@D@__crt_stdio_output@@V?$positional_parameter_base@DV?$stream_output_adapter@D@__crt_stdio_output@@@2@@1@AAE_NXZ@@Z 1001eb47 f i libucrt:output.obj
 0001:0001dbd5       ??$extract_argument_from_va_list@PAUansi_string@?1??type_case_Z@?$output_processor@DV?$stream_output_adapter@D@__crt_stdio_output@@V?$positional_parameter_base@DV?$stream_output_adapter@D@__crt_stdio_output@@@2@@__crt_stdio_output@@AAE_NXZ@PAU1?1??234@AAE_NXZ@@?$standard_base@DV?$stream_output_adapter@D@__crt_stdio_output@@@__crt_stdio_output@@IAE_NAAPAUansi_string@?1??type_case_Z@?$output_processor@DV?$stream_output_adapter@D@__crt_stdio_output@@V?$positional_parameter_base@DV?$stream_output_adapter@D@__crt_stdio_output@@@2@@1@AAE_NXZ@@Z 1001ebd5 f i libucrt:output.obj
 0001:0001dbf2       ??$extract_argument_from_va_list@PAUansi_string@?1??type_case_Z@?$output_processor@DV?$stream_output_adapter@D@__crt_stdio_output@@V?$standard_base@DV?$stream_output_adapter@D@__crt_stdio_output@@@2@@__crt_stdio_output@@AAE_NXZ@PAU1?1??234@AAE_NXZ@@?$standard_base@DV?$stream_output_adapter@D@__crt_stdio_output@@@__crt_stdio_output@@IAE_NAAPAUansi_string@?1??type_case_Z@?$output_processor@DV?$stream_output_adapter@D@__crt_stdio_output@@V?$standard_base@DV?$stream_output_adapter@D@__crt_stdio_output@@@2@@1@AAE_NXZ@@Z 1001ebf2 f i libucrt:output.obj
 0001:0001dc0f       ??$extract_argument_from_va_list@PAUansi_string@?1??type_case_Z@?$output_processor@DV?$string_output_adapter@D@__crt_stdio_output@@V?$format_validation_base@DV?$string_output_adapter@D@__crt_stdio_output@@@2@@__crt_stdio_output@@AAE_NXZ@PAU1?1??234@AAE_NXZ@@?$standard_base@DV?$string_output_adapter@D@__crt_stdio_output@@@__crt_stdio_output@@IAE_NAAPAUansi_string@?1??type_case_Z@?$output_processor@DV?$string_output_adapter@D@__crt_stdio_output@@V?$format_validation_base@DV?$string_output_adapter@D@__crt_stdio_output@@@2@@1@AAE_NXZ@@Z 1001ec0f f i libucrt:output.obj
 0001:0001dc2c       ??$extract_argument_from_va_list@PAUansi_string@?1??type_case_Z@?$output_processor@DV?$string_output_adapter@D@__crt_stdio_output@@V?$positional_parameter_base@DV?$string_output_adapter@D@__crt_stdio_output@@@2@@__crt_stdio_output@@AAE_NXZ@PAU1?1??234@AAE_NXZ@@?$positional_parameter_base@DV?$string_output_adapter@D@__crt_stdio_output@@@__crt_stdio_output@@IAE_NAAPAUansi_string@?1??type_case_Z@?$output_processor@DV?$string_output_adapter@D@__crt_stdio_output@@V?$positional_parameter_base@DV?$string_output_adapter@D@__crt_stdio_output@@@2@@1@AAE_NXZ@@Z 1001ec2c f i libucrt:output.obj
 0001:0001dcba       ??$extract_argument_from_va_list@PAUansi_string@?1??type_case_Z@?$output_processor@DV?$string_output_adapter@D@__crt_stdio_output@@V?$positional_parameter_base@DV?$string_output_adapter@D@__crt_stdio_output@@@2@@__crt_stdio_output@@AAE_NXZ@PAU1?1??234@AAE_NXZ@@?$standard_base@DV?$string_output_adapter@D@__crt_stdio_output@@@__crt_stdio_output@@IAE_NAAPAUansi_string@?1??type_case_Z@?$output_processor@DV?$string_output_adapter@D@__crt_stdio_output@@V?$positional_parameter_base@DV?$string_output_adapter@D@__crt_stdio_output@@@2@@1@AAE_NXZ@@Z 1001ecba f i libucrt:output.obj
 0001:0001dcd7       ??$extract_argument_from_va_list@PAUansi_string@?1??type_case_Z@?$output_processor@DV?$string_output_adapter@D@__crt_stdio_output@@V?$standard_base@DV?$string_output_adapter@D@__crt_stdio_output@@@2@@__crt_stdio_output@@AAE_NXZ@PAU1?1??234@AAE_NXZ@@?$standard_base@DV?$string_output_adapter@D@__crt_stdio_output@@@__crt_stdio_output@@IAE_NAAPAUansi_string@?1??type_case_Z@?$output_processor@DV?$string_output_adapter@D@__crt_stdio_output@@V?$standard_base@DV?$string_output_adapter@D@__crt_stdio_output@@@2@@1@AAE_NXZ@@Z 1001ecd7 f i libucrt:output.obj
 0001:0001dcf4       ??$extract_argument_from_va_list@PAUansi_string@?1??type_case_Z@?$output_processor@_WV?$stream_output_adapter@_W@__crt_stdio_output@@V?$format_validation_base@_WV?$stream_output_adapter@_W@__crt_stdio_output@@@2@@__crt_stdio_output@@AAE_NXZ@PAU1?1??234@AAE_NXZ@@?$standard_base@_WV?$stream_output_adapter@_W@__crt_stdio_output@@@__crt_stdio_output@@IAE_NAAPAUansi_string@?1??type_case_Z@?$output_processor@_WV?$stream_output_adapter@_W@__crt_stdio_output@@V?$format_validation_base@_WV?$stream_output_adapter@_W@__crt_stdio_output@@@2@@1@AAE_NXZ@@Z 1001ecf4 f i libucrt:output.obj
 0001:0001dd11       ??$extract_argument_from_va_list@PAUansi_string@?1??type_case_Z@?$output_processor@_WV?$stream_output_adapter@_W@__crt_stdio_output@@V?$positional_parameter_base@_WV?$stream_output_adapter@_W@__crt_stdio_output@@@2@@__crt_stdio_output@@AAE_NXZ@PAU1?1??234@AAE_NXZ@@?$positional_parameter_base@_WV?$stream_output_adapter@_W@__crt_stdio_output@@@__crt_stdio_output@@IAE_NAAPAUansi_string@?1??type_case_Z@?$output_processor@_WV?$stream_output_adapter@_W@__crt_stdio_output@@V?$positional_parameter_base@_WV?$stream_output_adapter@_W@__crt_stdio_output@@@2@@1@AAE_NXZ@@Z 1001ed11 f i libucrt:output.obj
 0001:0001dda0       ??$extract_argument_from_va_list@PAUansi_string@?1??type_case_Z@?$output_processor@_WV?$stream_output_adapter@_W@__crt_stdio_output@@V?$positional_parameter_base@_WV?$stream_output_adapter@_W@__crt_stdio_output@@@2@@__crt_stdio_output@@AAE_NXZ@PAU1?1??234@AAE_NXZ@@?$standard_base@_WV?$stream_output_adapter@_W@__crt_stdio_output@@@__crt_stdio_output@@IAE_NAAPAUansi_string@?1??type_case_Z@?$output_processor@_WV?$stream_output_adapter@_W@__crt_stdio_output@@V?$positional_parameter_base@_WV?$stream_output_adapter@_W@__crt_stdio_output@@@2@@1@AAE_NXZ@@Z 1001eda0 f i libucrt:output.obj
 0001:0001ddbd       ??$extract_argument_from_va_list@PAUansi_string@?1??type_case_Z@?$output_processor@_WV?$stream_output_adapter@_W@__crt_stdio_output@@V?$standard_base@_WV?$stream_output_adapter@_W@__crt_stdio_output@@@2@@__crt_stdio_output@@AAE_NXZ@PAU1?1??234@AAE_NXZ@@?$standard_base@_WV?$stream_output_adapter@_W@__crt_stdio_output@@@__crt_stdio_output@@IAE_NAAPAUansi_string@?1??type_case_Z@?$output_processor@_WV?$stream_output_adapter@_W@__crt_stdio_output@@V?$standard_base@_WV?$stream_output_adapter@_W@__crt_stdio_output@@@2@@1@AAE_NXZ@@Z 1001edbd f i libucrt:output.obj
 0001:0001ddda       ??$extract_argument_from_va_list@PAUansi_string@?1??type_case_Z@?$output_processor@_WV?$string_output_adapter@_W@__crt_stdio_output@@V?$format_validation_base@_WV?$string_output_adapter@_W@__crt_stdio_output@@@2@@__crt_stdio_output@@AAE_NXZ@PAU1?1??234@AAE_NXZ@@?$standard_base@_WV?$string_output_adapter@_W@__crt_stdio_output@@@__crt_stdio_output@@IAE_NAAPAUansi_string@?1??type_case_Z@?$output_processor@_WV?$string_output_adapter@_W@__crt_stdio_output@@V?$format_validation_base@_WV?$string_output_adapter@_W@__crt_stdio_output@@@2@@1@AAE_NXZ@@Z 1001edda f i libucrt:output.obj
 0001:0001ddf7       ??$extract_argument_from_va_list@PAUansi_string@?1??type_case_Z@?$output_processor@_WV?$string_output_adapter@_W@__crt_stdio_output@@V?$positional_parameter_base@_WV?$string_output_adapter@_W@__crt_stdio_output@@@2@@__crt_stdio_output@@AAE_NXZ@PAU1?1??234@AAE_NXZ@@?$positional_parameter_base@_WV?$string_output_adapter@_W@__crt_stdio_output@@@__crt_stdio_output@@IAE_NAAPAUansi_string@?1??type_case_Z@?$output_processor@_WV?$string_output_adapter@_W@__crt_stdio_output@@V?$positional_parameter_base@_WV?$string_output_adapter@_W@__crt_stdio_output@@@2@@1@AAE_NXZ@@Z 1001edf7 f i libucrt:output.obj
 0001:0001de86       ??$extract_argument_from_va_list@PAUansi_string@?1??type_case_Z@?$output_processor@_WV?$string_output_adapter@_W@__crt_stdio_output@@V?$positional_parameter_base@_WV?$string_output_adapter@_W@__crt_stdio_output@@@2@@__crt_stdio_output@@AAE_NXZ@PAU1?1??234@AAE_NXZ@@?$standard_base@_WV?$string_output_adapter@_W@__crt_stdio_output@@@__crt_stdio_output@@IAE_NAAPAUansi_string@?1??type_case_Z@?$output_processor@_WV?$string_output_adapter@_W@__crt_stdio_output@@V?$positional_parameter_base@_WV?$string_output_adapter@_W@__crt_stdio_output@@@2@@1@AAE_NXZ@@Z 1001ee86 f i libucrt:output.obj
 0001:0001dea3       ??$extract_argument_from_va_list@PAUansi_string@?1??type_case_Z@?$output_processor@_WV?$string_output_adapter@_W@__crt_stdio_output@@V?$standard_base@_WV?$string_output_adapter@_W@__crt_stdio_output@@@2@@__crt_stdio_output@@AAE_NXZ@PAU1?1??234@AAE_NXZ@@?$standard_base@_WV?$string_output_adapter@_W@__crt_stdio_output@@@__crt_stdio_output@@IAE_NAAPAUansi_string@?1??type_case_Z@?$output_processor@_WV?$string_output_adapter@_W@__crt_stdio_output@@V?$standard_base@_WV?$string_output_adapter@_W@__crt_stdio_output@@@2@@1@AAE_NXZ@@Z 1001eea3 f i libucrt:output.obj
 0001:0001dec0       ??$extract_argument_from_va_list@PAXPAX@?$positional_parameter_base@DV?$stream_output_adapter@D@__crt_stdio_output@@@__crt_stdio_output@@IAE_NAAPAX@Z 1001eec0 f i libucrt:output.obj
 0001:0001df4e       ??$extract_argument_from_va_list@PAXPAX@?$positional_parameter_base@DV?$string_output_adapter@D@__crt_stdio_output@@@__crt_stdio_output@@IAE_NAAPAX@Z 1001ef4e f i libucrt:output.obj
 0001:0001dfdc       ??$extract_argument_from_va_list@PAXPAX@?$positional_parameter_base@_WV?$stream_output_adapter@_W@__crt_stdio_output@@@__crt_stdio_output@@IAE_NAAPAX@Z 1001efdc f i libucrt:output.obj
 0001:0001e06b       ??$extract_argument_from_va_list@PAXPAX@?$positional_parameter_base@_WV?$string_output_adapter@_W@__crt_stdio_output@@@__crt_stdio_output@@IAE_NAAPAX@Z 1001f06b f i libucrt:output.obj
 0001:0001e0fa       ??$extract_argument_from_va_list@PAXPAX@?$standard_base@DV?$stream_output_adapter@D@__crt_stdio_output@@@__crt_stdio_output@@IAE_NAAPAX@Z 1001f0fa f i libucrt:output.obj
 0001:0001e117       ??$extract_argument_from_va_list@PAXPAX@?$standard_base@DV?$string_output_adapter@D@__crt_stdio_output@@@__crt_stdio_output@@IAE_NAAPAX@Z 1001f117 f i libucrt:output.obj
 0001:0001e134       ??$extract_argument_from_va_list@PAXPAX@?$standard_base@_WV?$stream_output_adapter@_W@__crt_stdio_output@@@__crt_stdio_output@@IAE_NAAPAX@Z 1001f134 f i libucrt:output.obj
 0001:0001e151       ??$extract_argument_from_va_list@PAXPAX@?$standard_base@_WV?$string_output_adapter@_W@__crt_stdio_output@@@__crt_stdio_output@@IAE_NAAPAX@Z 1001f151 f i libucrt:output.obj
 0001:0001e16e       ??$extract_argument_from_va_list@U_CRT_DOUBLE@@U1@@?$positional_parameter_base@DV?$stream_output_adapter@D@__crt_stdio_output@@@__crt_stdio_output@@IAE_NAAU_CRT_DOUBLE@@@Z 1001f16e f i libucrt:output.obj
 0001:0001e204       ??$extract_argument_from_va_list@U_CRT_DOUBLE@@U1@@?$positional_parameter_base@DV?$string_output_adapter@D@__crt_stdio_output@@@__crt_stdio_output@@IAE_NAAU_CRT_DOUBLE@@@Z 1001f204 f i libucrt:output.obj
 0001:0001e29a       ??$extract_argument_from_va_list@U_CRT_DOUBLE@@U1@@?$positional_parameter_base@_WV?$stream_output_adapter@_W@__crt_stdio_output@@@__crt_stdio_output@@IAE_NAAU_CRT_DOUBLE@@@Z 1001f29a f i libucrt:output.obj
 0001:0001e331       ??$extract_argument_from_va_list@U_CRT_DOUBLE@@U1@@?$positional_parameter_base@_WV?$string_output_adapter@_W@__crt_stdio_output@@@__crt_stdio_output@@IAE_NAAU_CRT_DOUBLE@@@Z 1001f331 f i libucrt:output.obj
 0001:0001e3c8       ??$extract_argument_from_va_list@U_CRT_DOUBLE@@U1@@?$standard_base@DV?$stream_output_adapter@D@__crt_stdio_output@@@__crt_stdio_output@@IAE_NAAU_CRT_DOUBLE@@@Z 1001f3c8 f i libucrt:output.obj
 0001:0001e3e9       ??$extract_argument_from_va_list@U_CRT_DOUBLE@@U1@@?$standard_base@DV?$string_output_adapter@D@__crt_stdio_output@@@__crt_stdio_output@@IAE_NAAU_CRT_DOUBLE@@@Z 1001f3e9 f i libucrt:output.obj
 0001:0001e40a       ??$extract_argument_from_va_list@U_CRT_DOUBLE@@U1@@?$standard_base@_WV?$stream_output_adapter@_W@__crt_stdio_output@@@__crt_stdio_output@@IAE_NAAU_CRT_DOUBLE@@@Z 1001f40a f i libucrt:output.obj
 0001:0001e42b       ??$extract_argument_from_va_list@U_CRT_DOUBLE@@U1@@?$standard_base@_WV?$string_output_adapter@_W@__crt_stdio_output@@@__crt_stdio_output@@IAE_NAAU_CRT_DOUBLE@@@Z 1001f42b f i libucrt:output.obj
 0001:0001e44c       ??$extract_argument_from_va_list@_J_J@?$positional_parameter_base@DV?$stream_output_adapter@D@__crt_stdio_output@@@__crt_stdio_output@@IAE_NAA_J@Z 1001f44c f i libucrt:output.obj
 0001:0001e4e6       ??$extract_argument_from_va_list@_J_J@?$positional_parameter_base@DV?$string_output_adapter@D@__crt_stdio_output@@@__crt_stdio_output@@IAE_NAA_J@Z 1001f4e6 f i libucrt:output.obj
 0001:0001e580       ??$extract_argument_from_va_list@_J_J@?$positional_parameter_base@_WV?$stream_output_adapter@_W@__crt_stdio_output@@@__crt_stdio_output@@IAE_NAA_J@Z 1001f580 f i libucrt:output.obj
 0001:0001e61b       ??$extract_argument_from_va_list@_J_J@?$positional_parameter_base@_WV?$string_output_adapter@_W@__crt_stdio_output@@@__crt_stdio_output@@IAE_NAA_J@Z 1001f61b f i libucrt:output.obj
 0001:0001e6b6       ??$extract_argument_from_va_list@_J_J@?$standard_base@DV?$stream_output_adapter@D@__crt_stdio_output@@@__crt_stdio_output@@IAE_NAA_J@Z 1001f6b6 f i libucrt:output.obj
 0001:0001e6d7       ??$extract_argument_from_va_list@_J_J@?$standard_base@DV?$string_output_adapter@D@__crt_stdio_output@@@__crt_stdio_output@@IAE_NAA_J@Z 1001f6d7 f i libucrt:output.obj
 0001:0001e6f8       ??$extract_argument_from_va_list@_J_J@?$standard_base@_WV?$stream_output_adapter@_W@__crt_stdio_output@@@__crt_stdio_output@@IAE_NAA_J@Z 1001f6f8 f i libucrt:output.obj
 0001:0001e719       ??$extract_argument_from_va_list@_J_J@?$standard_base@_WV?$string_output_adapter@_W@__crt_stdio_output@@@__crt_stdio_output@@IAE_NAA_J@Z 1001f719 f i libucrt:output.obj
 0001:0001e73a       ??$extract_argument_from_va_list@_K_J@?$positional_parameter_base@DV?$stream_output_adapter@D@__crt_stdio_output@@@__crt_stdio_output@@IAE_NAA_J@Z 1001f73a f i libucrt:output.obj
 0001:0001e7d4       ??$extract_argument_from_va_list@_K_J@?$positional_parameter_base@DV?$string_output_adapter@D@__crt_stdio_output@@@__crt_stdio_output@@IAE_NAA_J@Z 1001f7d4 f i libucrt:output.obj
 0001:0001e86e       ??$extract_argument_from_va_list@_K_J@?$positional_parameter_base@_WV?$stream_output_adapter@_W@__crt_stdio_output@@@__crt_stdio_output@@IAE_NAA_J@Z 1001f86e f i libucrt:output.obj
 0001:0001e909       ??$extract_argument_from_va_list@_K_J@?$positional_parameter_base@_WV?$string_output_adapter@_W@__crt_stdio_output@@@__crt_stdio_output@@IAE_NAA_J@Z 1001f909 f i libucrt:output.obj
 0001:0001e9a4       ??$extract_argument_from_va_list@_K_J@?$standard_base@DV?$stream_output_adapter@D@__crt_stdio_output@@@__crt_stdio_output@@IAE_NAA_J@Z 1001f9a4 f i libucrt:output.obj
 0001:0001e9c5       ??$extract_argument_from_va_list@_K_J@?$standard_base@DV?$string_output_adapter@D@__crt_stdio_output@@@__crt_stdio_output@@IAE_NAA_J@Z 1001f9c5 f i libucrt:output.obj
 0001:0001e9e6       ??$extract_argument_from_va_list@_K_J@?$standard_base@_WV?$stream_output_adapter@_W@__crt_stdio_output@@@__crt_stdio_output@@IAE_NAA_J@Z 1001f9e6 f i libucrt:output.obj
 0001:0001ea07       ??$extract_argument_from_va_list@_K_J@?$standard_base@_WV?$string_output_adapter@_W@__crt_stdio_output@@@__crt_stdio_output@@IAE_NAA_J@Z 1001fa07 f i libucrt:output.obj
 0001:0001ea28       ??$extract_argument_from_va_list@_W_W@?$positional_parameter_base@DV?$stream_output_adapter@D@__crt_stdio_output@@@__crt_stdio_output@@IAE_NAA_W@Z 1001fa28 f i libucrt:output.obj
 0001:0001eaba       ??$extract_argument_from_va_list@_W_W@?$positional_parameter_base@DV?$string_output_adapter@D@__crt_stdio_output@@@__crt_stdio_output@@IAE_NAA_W@Z 1001faba f i libucrt:output.obj
 0001:0001eb4c       ??$extract_argument_from_va_list@_W_W@?$positional_parameter_base@_WV?$stream_output_adapter@_W@__crt_stdio_output@@@__crt_stdio_output@@IAE_NAA_W@Z 1001fb4c f i libucrt:output.obj
 0001:0001ebdf       ??$extract_argument_from_va_list@_W_W@?$positional_parameter_base@_WV?$string_output_adapter@_W@__crt_stdio_output@@@__crt_stdio_output@@IAE_NAA_W@Z 1001fbdf f i libucrt:output.obj
 0001:0001ec72       ??$extract_argument_from_va_list@_W_W@?$standard_base@DV?$stream_output_adapter@D@__crt_stdio_output@@@__crt_stdio_output@@IAE_NAA_W@Z 1001fc72 f i libucrt:output.obj
 0001:0001ec8f       ??$extract_argument_from_va_list@_W_W@?$standard_base@DV?$string_output_adapter@D@__crt_stdio_output@@@__crt_stdio_output@@IAE_NAA_W@Z 1001fc8f f i libucrt:output.obj
 0001:0001ecac       ??$extract_argument_from_va_list@_W_W@?$standard_base@_WV?$stream_output_adapter@_W@__crt_stdio_output@@@__crt_stdio_output@@IAE_NAA_W@Z 1001fcac f i libucrt:output.obj
 0001:0001ecc9       ??$extract_argument_from_va_list@_W_W@?$standard_base@_WV?$string_output_adapter@_W@__crt_stdio_output@@@__crt_stdio_output@@IAE_NAA_W@Z 1001fcc9 f i libucrt:output.obj
 0001:0001ece6       ??$get_parameter_type@D@?$positional_parameter_base@DV?$stream_output_adapter@D@__crt_stdio_output@@@__crt_stdio_output@@CA?AW4parameter_type@01@PAD@Z 1001fce6 f i libucrt:output.obj
 0001:0001ecea       ??$get_parameter_type@D@?$positional_parameter_base@DV?$string_output_adapter@D@__crt_stdio_output@@@__crt_stdio_output@@CA?AW4parameter_type@01@PAD@Z 1001fcea f i libucrt:output.obj
 0001:0001ecee       ??$get_parameter_type@D@?$positional_parameter_base@_WV?$stream_output_adapter@_W@__crt_stdio_output@@@__crt_stdio_output@@CA?AW4parameter_type@01@PAD@Z 1001fcee f i libucrt:output.obj
 0001:0001ecf2       ??$get_parameter_type@D@?$positional_parameter_base@_WV?$string_output_adapter@_W@__crt_stdio_output@@@__crt_stdio_output@@CA?AW4parameter_type@01@PAD@Z 1001fcf2 f i libucrt:output.obj
 0001:0001ecf6       ??$get_parameter_type@Uansi_string@?1??type_case_Z@?$output_processor@DV?$stream_output_adapter@D@__crt_stdio_output@@V?$positional_parameter_base@DV?$stream_output_adapter@D@__crt_stdio_output@@@2@@__crt_stdio_output@@AAE_NXZ@@?$positional_parameter_base@DV?$stream_output_adapter@D@__crt_stdio_output@@@__crt_stdio_output@@CA?AW4parameter_type@01@PAUansi_string@?1??type_case_Z@?$output_processor@DV?$stream_output_adapter@D@__crt_stdio_output@@V?$positional_parameter_base@DV?$stream_output_adapter@D@__crt_stdio_output@@@2@@1@AAE_NXZ@@Z 1001fcf6 f i libucrt:output.obj
 0001:0001ecfa       ??$get_parameter_type@Uansi_string@?1??type_case_Z@?$output_processor@DV?$string_output_adapter@D@__crt_stdio_output@@V?$positional_parameter_base@DV?$string_output_adapter@D@__crt_stdio_output@@@2@@__crt_stdio_output@@AAE_NXZ@@?$positional_parameter_base@DV?$string_output_adapter@D@__crt_stdio_output@@@__crt_stdio_output@@CA?AW4parameter_type@01@PAUansi_string@?1??type_case_Z@?$output_processor@DV?$string_output_adapter@D@__crt_stdio_output@@V?$positional_parameter_base@DV?$string_output_adapter@D@__crt_stdio_output@@@2@@1@AAE_NXZ@@Z 1001fcfa f i libucrt:output.obj
 0001:0001ecfe       ??$get_parameter_type@Uansi_string@?1??type_case_Z@?$output_processor@_WV?$stream_output_adapter@_W@__crt_stdio_output@@V?$positional_parameter_base@_WV?$stream_output_adapter@_W@__crt_stdio_output@@@2@@__crt_stdio_output@@AAE_NXZ@@?$positional_parameter_base@_WV?$stream_output_adapter@_W@__crt_stdio_output@@@__crt_stdio_output@@CA?AW4parameter_type@01@PAUansi_string@?1??type_case_Z@?$output_processor@_WV?$stream_output_adapter@_W@__crt_stdio_output@@V?$positional_parameter_base@_WV?$stream_output_adapter@_W@__crt_stdio_output@@@2@@1@AAE_NXZ@@Z 1001fcfe f i libucrt:output.obj
 0001:0001ed02       ??$get_parameter_type@Uansi_string@?1??type_case_Z@?$output_processor@_WV?$string_output_adapter@_W@__crt_stdio_output@@V?$positional_parameter_base@_WV?$string_output_adapter@_W@__crt_stdio_output@@@2@@__crt_stdio_output@@AAE_NXZ@@?$positional_parameter_base@_WV?$string_output_adapter@_W@__crt_stdio_output@@@__crt_stdio_output@@CA?AW4parameter_type@01@PAUansi_string@?1??type_case_Z@?$output_processor@_WV?$string_output_adapter@_W@__crt_stdio_output@@V?$positional_parameter_base@_WV?$string_output_adapter@_W@__crt_stdio_output@@@2@@1@AAE_NXZ@@Z 1001fd02 f i libucrt:output.obj
 0001:0001ed06       ??$get_parameter_type@X@?$positional_parameter_base@DV?$stream_output_adapter@D@__crt_stdio_output@@@__crt_stdio_output@@CA?AW4parameter_type@01@PAX@Z 1001fd06 f i libucrt:output.obj
 0001:0001ed0a       ??$get_parameter_type@X@?$positional_parameter_base@DV?$string_output_adapter@D@__crt_stdio_output@@@__crt_stdio_output@@CA?AW4parameter_type@01@PAX@Z 1001fd0a f i libucrt:output.obj
 0001:0001ed0e       ??$get_parameter_type@X@?$positional_parameter_base@_WV?$stream_output_adapter@_W@__crt_stdio_output@@@__crt_stdio_output@@CA?AW4parameter_type@01@PAX@Z 1001fd0e f i libucrt:output.obj
 0001:0001ed12       ??$get_parameter_type@X@?$positional_parameter_base@_WV?$string_output_adapter@_W@__crt_stdio_output@@@__crt_stdio_output@@CA?AW4parameter_type@01@PAX@Z 1001fd12 f i libucrt:output.obj
 0001:0001ed16       ??$is_character_specifier@D@?$positional_parameter_base@DV?$stream_output_adapter@D@__crt_stdio_output@@@__crt_stdio_output@@CA_ND@Z 1001fd16 f i libucrt:output.obj
 0001:0001ed2e       ??$is_character_specifier@D@?$positional_parameter_base@DV?$string_output_adapter@D@__crt_stdio_output@@@__crt_stdio_output@@CA_ND@Z 1001fd2e f i libucrt:output.obj
 0001:0001ed46       ??$is_character_specifier@_W@?$positional_parameter_base@_WV?$stream_output_adapter@_W@__crt_stdio_output@@@__crt_stdio_output@@CA_N_W@Z 1001fd46 f i libucrt:output.obj
 0001:0001ed61       ??$is_character_specifier@_W@?$positional_parameter_base@_WV?$string_output_adapter@_W@__crt_stdio_output@@@__crt_stdio_output@@CA_N_W@Z 1001fd61 f i libucrt:output.obj
 0001:0001ed7c       ??$is_integral_specifier@D@?$positional_parameter_base@DV?$stream_output_adapter@D@__crt_stdio_output@@@__crt_stdio_output@@CA_ND@Z 1001fd7c f i libucrt:output.obj
 0001:0001eda8       ??$is_integral_specifier@D@?$positional_parameter_base@DV?$string_output_adapter@D@__crt_stdio_output@@@__crt_stdio_output@@CA_ND@Z 1001fda8 f i libucrt:output.obj
 0001:0001edd4       ??$is_integral_specifier@_W@?$positional_parameter_base@_WV?$stream_output_adapter@_W@__crt_stdio_output@@@__crt_stdio_output@@CA_N_W@Z 1001fdd4 f i libucrt:output.obj
 0001:0001ee0f       ??$is_integral_specifier@_W@?$positional_parameter_base@_WV?$string_output_adapter@_W@__crt_stdio_output@@@__crt_stdio_output@@CA_N_W@Z 1001fe0f f i libucrt:output.obj
 0001:0001ee4a       ??$is_overflow_condition@K@__crt_strtox@@YA_NIK@Z 1001fe4a f i libucrt:output.obj
 0001:0001ee7e       ??$is_pointer_specifier@D@?$positional_parameter_base@DV?$stream_output_adapter@D@__crt_stdio_output@@@__crt_stdio_output@@CA_ND@Z 1001fe7e f i libucrt:output.obj
 0001:0001ee8c       ??$is_pointer_specifier@D@?$positional_parameter_base@DV?$string_output_adapter@D@__crt_stdio_output@@@__crt_stdio_output@@CA_ND@Z 1001fe8c f i libucrt:output.obj
 0001:0001ee9a       ??$is_pointer_specifier@_W@?$positional_parameter_base@_WV?$stream_output_adapter@_W@__crt_stdio_output@@@__crt_stdio_output@@CA_N_W@Z 1001fe9a f i libucrt:output.obj
 0001:0001eea9       ??$is_pointer_specifier@_W@?$positional_parameter_base@_WV?$string_output_adapter@_W@__crt_stdio_output@@@__crt_stdio_output@@CA_N_W@Z 1001fea9 f i libucrt:output.obj
 0001:0001eeb8       ??$is_string_specifier@D@?$positional_parameter_base@DV?$stream_output_adapter@D@__crt_stdio_output@@@__crt_stdio_output@@CA_ND@Z 1001feb8 f i libucrt:output.obj
 0001:0001eed0       ??$is_string_specifier@D@?$positional_parameter_base@DV?$string_output_adapter@D@__crt_stdio_output@@@__crt_stdio_output@@CA_ND@Z 1001fed0 f i libucrt:output.obj
 0001:0001eee8       ??$is_string_specifier@_W@?$positional_parameter_base@_WV?$stream_output_adapter@_W@__crt_stdio_output@@@__crt_stdio_output@@CA_N_W@Z 1001fee8 f i libucrt:output.obj
 0001:0001ef03       ??$is_string_specifier@_W@?$positional_parameter_base@_WV?$string_output_adapter@_W@__crt_stdio_output@@@__crt_stdio_output@@CA_N_W@Z 1001ff03 f i libucrt:output.obj
 0001:0001ef1e       ??$is_wide_character_specifier@D@__crt_stdio_output@@YA_N_KDW4length_modifier@0@@Z 1001ff1e f i libucrt:output.obj
 0001:0001ef4f       ??$is_wide_character_specifier@_W@__crt_stdio_output@@YA_N_K_WW4length_modifier@0@@Z 1001ff4f f i libucrt:output.obj
 0001:0001ef9d       ??$make_c_string_character_source@DPAPAD@__crt_strtox@@YA?AV?$c_string_character_source@D@0@QBDQAPAD@Z 1001ff9d f i libucrt:output.obj
 0001:0001efb8       ??$make_c_string_character_source@_WPAPA_W@__crt_strtox@@YA?AV?$c_string_character_source@_W@0@QB_WQAPA_W@Z 1001ffb8 f i libucrt:output.obj
 0001:0001efd3       ??$parse_integer@KV?$c_string_character_source@D@__crt_strtox@@$0A@@__crt_strtox@@YAKAAV__crt_cached_ptd_host@@V?$c_string_character_source@D@0@H_N@Z 1001ffd3 f i libucrt:output.obj
 0001:0001f1e2       ??$parse_integer@KV?$c_string_character_source@_W@__crt_strtox@@$0A@@__crt_strtox@@YAKAAV__crt_cached_ptd_host@@V?$c_string_character_source@_W@0@H_N@Z 100201e2 f i libucrt:output.obj
 0001:0001f7b5       ??$peek_va_arg@C@__crt_stdio_output@@YACPAD@Z 100207b5 f i libucrt:output.obj
 0001:0001f7c1       ??$peek_va_arg@E@__crt_stdio_output@@YAEPAD@Z 100207c1 f i libucrt:output.obj
 0001:0001f7cd       ??$peek_va_arg@F@__crt_stdio_output@@YAFPAD@Z 100207cd f i libucrt:output.obj
 0001:0001f7da       ??$peek_va_arg@G@__crt_stdio_output@@YAGPAD@Z 100207da f i libucrt:output.obj
 0001:0001f7e7       ??$peek_va_arg@H@__crt_stdio_output@@YAHPAD@Z 100207e7 f i libucrt:output.obj
 0001:0001f7f3       ??$peek_va_arg@I@__crt_stdio_output@@YAIPAD@Z 100207f3 f i libucrt:output.obj
 0001:0001f7ff       ??$peek_va_arg@PAD@__crt_stdio_output@@YAPADPAD@Z 100207ff f i libucrt:output.obj
 0001:0001f80b       ??$peek_va_arg@PAUansi_string@?1??type_case_Z@?$output_processor@DV?$stream_output_adapter@D@__crt_stdio_output@@V?$positional_parameter_base@DV?$stream_output_adapter@D@__crt_stdio_output@@@2@@__crt_stdio_output@@AAE_NXZ@@__crt_stdio_output@@YAPAUansi_string@?1??type_case_Z@?$output_processor@DV?$stream_output_adapter@D@__crt_stdio_output@@V?$positional_parameter_base@DV?$stream_output_adapter@D@__crt_stdio_output@@@2@@0@AAE_NXZ@PAD@Z 1002080b f i libucrt:output.obj
 0001:0001f817       ??$peek_va_arg@PAUansi_string@?1??type_case_Z@?$output_processor@DV?$string_output_adapter@D@__crt_stdio_output@@V?$positional_parameter_base@DV?$string_output_adapter@D@__crt_stdio_output@@@2@@__crt_stdio_output@@AAE_NXZ@@__crt_stdio_output@@YAPAUansi_string@?1??type_case_Z@?$output_processor@DV?$string_output_adapter@D@__crt_stdio_output@@V?$positional_parameter_base@DV?$string_output_adapter@D@__crt_stdio_output@@@2@@0@AAE_NXZ@PAD@Z 10020817 f i libucrt:output.obj
 0001:0001f823       ??$peek_va_arg@PAUansi_string@?1??type_case_Z@?$output_processor@_WV?$stream_output_adapter@_W@__crt_stdio_output@@V?$positional_parameter_base@_WV?$stream_output_adapter@_W@__crt_stdio_output@@@2@@__crt_stdio_output@@AAE_NXZ@@__crt_stdio_output@@YAPAUansi_string@?1??type_case_Z@?$output_processor@_WV?$stream_output_adapter@_W@__crt_stdio_output@@V?$positional_parameter_base@_WV?$stream_output_adapter@_W@__crt_stdio_output@@@2@@0@AAE_NXZ@PAD@Z 10020823 f i libucrt:output.obj
 0001:0001f82f       ??$peek_va_arg@PAUansi_string@?1??type_case_Z@?$output_processor@_WV?$string_output_adapter@_W@__crt_stdio_output@@V?$positional_parameter_base@_WV?$string_output_adapter@_W@__crt_stdio_output@@@2@@__crt_stdio_output@@AAE_NXZ@@__crt_stdio_output@@YAPAUansi_string@?1??type_case_Z@?$output_processor@_WV?$string_output_adapter@_W@__crt_stdio_output@@V?$positional_parameter_base@_WV?$string_output_adapter@_W@__crt_stdio_output@@@2@@0@AAE_NXZ@PAD@Z 1002082f f i libucrt:output.obj
 0001:0001f83b       ??$peek_va_arg@PAX@__crt_stdio_output@@YAPAXPAD@Z 1002083b f i libucrt:output.obj
 0001:0001f847       ??$peek_va_arg@U_CRT_DOUBLE@@@__crt_stdio_output@@YA?AU_CRT_DOUBLE@@PAD@Z 10020847 f i libucrt:output.obj
 0001:0001f856       ??$peek_va_arg@_J@__crt_stdio_output@@YA_JPAD@Z 10020856 f i libucrt:output.obj
 0001:0001f865       ??$peek_va_arg@_K@__crt_stdio_output@@YA_KPAD@Z 10020865 f i libucrt:output.obj
 0001:0001f874       ??$peek_va_arg@_W@__crt_stdio_output@@YA_WPAD@Z 10020874 f i libucrt:output.obj
 0001:0001f881       ??$puttc_nolock_internal@ABDPAU_iobuf@@AAV__crt_cached_ptd_host@@@?$__crt_char_traits@D@@SAHABD$$QAPAU_iobuf@@AAV__crt_cached_ptd_host@@@Z 10020881 f i libucrt:output.obj
 0001:0001f89f       ??$puttc_nolock_internal@AB_WPAU_iobuf@@AAV__crt_cached_ptd_host@@@?$__crt_char_traits@_W@@SAGAB_W$$QAPAU_iobuf@@AAV__crt_cached_ptd_host@@@Z 1002089f f i libucrt:output.obj
 0001:0001f8bd       ??$read_va_arg@C@__crt_stdio_output@@YACAAPAD@Z 100208bd f i libucrt:output.obj
 0001:0001f8d0       ??$read_va_arg@E@__crt_stdio_output@@YAEAAPAD@Z 100208d0 f i libucrt:output.obj
 0001:0001f8e3       ??$read_va_arg@F@__crt_stdio_output@@YAFAAPAD@Z 100208e3 f i libucrt:output.obj
 0001:0001f8f7       ??$read_va_arg@G@__crt_stdio_output@@YAGAAPAD@Z 100208f7 f i libucrt:output.obj
 0001:0001f90b       ??$read_va_arg@H@__crt_stdio_output@@YAHAAPAD@Z 1002090b f i libucrt:output.obj
 0001:0001f91e       ??$read_va_arg@I@__crt_stdio_output@@YAIAAPAD@Z 1002091e f i libucrt:output.obj
 0001:0001f931       ??$read_va_arg@PAD@__crt_stdio_output@@YAPADAAPAD@Z 10020931 f i libucrt:output.obj
 0001:0001f944       ??$read_va_arg@PAUansi_string@?1??type_case_Z@?$output_processor@DV?$stream_output_adapter@D@__crt_stdio_output@@V?$format_validation_base@DV?$stream_output_adapter@D@__crt_stdio_output@@@2@@__crt_stdio_output@@AAE_NXZ@@__crt_stdio_output@@YAPAUansi_string@?1??type_case_Z@?$output_processor@DV?$stream_output_adapter@D@__crt_stdio_output@@V?$format_validation_base@DV?$stream_output_adapter@D@__crt_stdio_output@@@2@@0@AAE_NXZ@AAPAD@Z 10020944 f i libucrt:output.obj
 0001:0001f957       ??$read_va_arg@PAUansi_string@?1??type_case_Z@?$output_processor@DV?$stream_output_adapter@D@__crt_stdio_output@@V?$positional_parameter_base@DV?$stream_output_adapter@D@__crt_stdio_output@@@2@@__crt_stdio_output@@AAE_NXZ@@__crt_stdio_output@@YAPAUansi_string@?1??type_case_Z@?$output_processor@DV?$stream_output_adapter@D@__crt_stdio_output@@V?$positional_parameter_base@DV?$stream_output_adapter@D@__crt_stdio_output@@@2@@0@AAE_NXZ@AAPAD@Z 10020957 f i libucrt:output.obj
 0001:0001f96a       ??$read_va_arg@PAUansi_string@?1??type_case_Z@?$output_processor@DV?$stream_output_adapter@D@__crt_stdio_output@@V?$standard_base@DV?$stream_output_adapter@D@__crt_stdio_output@@@2@@__crt_stdio_output@@AAE_NXZ@@__crt_stdio_output@@YAPAUansi_string@?1??type_case_Z@?$output_processor@DV?$stream_output_adapter@D@__crt_stdio_output@@V?$standard_base@DV?$stream_output_adapter@D@__crt_stdio_output@@@2@@0@AAE_NXZ@AAPAD@Z 1002096a f i libucrt:output.obj
 0001:0001f97d       ??$read_va_arg@PAUansi_string@?1??type_case_Z@?$output_processor@DV?$string_output_adapter@D@__crt_stdio_output@@V?$format_validation_base@DV?$string_output_adapter@D@__crt_stdio_output@@@2@@__crt_stdio_output@@AAE_NXZ@@__crt_stdio_output@@YAPAUansi_string@?1??type_case_Z@?$output_processor@DV?$string_output_adapter@D@__crt_stdio_output@@V?$format_validation_base@DV?$string_output_adapter@D@__crt_stdio_output@@@2@@0@AAE_NXZ@AAPAD@Z 1002097d f i libucrt:output.obj
 0001:0001f990       ??$read_va_arg@PAUansi_string@?1??type_case_Z@?$output_processor@DV?$string_output_adapter@D@__crt_stdio_output@@V?$positional_parameter_base@DV?$string_output_adapter@D@__crt_stdio_output@@@2@@__crt_stdio_output@@AAE_NXZ@@__crt_stdio_output@@YAPAUansi_string@?1??type_case_Z@?$output_processor@DV?$string_output_adapter@D@__crt_stdio_output@@V?$positional_parameter_base@DV?$string_output_adapter@D@__crt_stdio_output@@@2@@0@AAE_NXZ@AAPAD@Z 10020990 f i libucrt:output.obj
 0001:0001f9a3       ??$read_va_arg@PAUansi_string@?1??type_case_Z@?$output_processor@DV?$string_output_adapter@D@__crt_stdio_output@@V?$standard_base@DV?$string_output_adapter@D@__crt_stdio_output@@@2@@__crt_stdio_output@@AAE_NXZ@@__crt_stdio_output@@YAPAUansi_string@?1??type_case_Z@?$output_processor@DV?$string_output_adapter@D@__crt_stdio_output@@V?$standard_base@DV?$string_output_adapter@D@__crt_stdio_output@@@2@@0@AAE_NXZ@AAPAD@Z 100209a3 f i libucrt:output.obj
 0001:0001f9b6       ??$read_va_arg@PAUansi_string@?1??type_case_Z@?$output_processor@_WV?$stream_output_adapter@_W@__crt_stdio_output@@V?$format_validation_base@_WV?$stream_output_adapter@_W@__crt_stdio_output@@@2@@__crt_stdio_output@@AAE_NXZ@@__crt_stdio_output@@YAPAUansi_string@?1??type_case_Z@?$output_processor@_WV?$stream_output_adapter@_W@__crt_stdio_output@@V?$format_validation_base@_WV?$stream_output_adapter@_W@__crt_stdio_output@@@2@@0@AAE_NXZ@AAPAD@Z 100209b6 f i libucrt:output.obj
 0001:0001f9c9       ??$read_va_arg@PAUansi_string@?1??type_case_Z@?$output_processor@_WV?$stream_output_adapter@_W@__crt_stdio_output@@V?$positional_parameter_base@_WV?$stream_output_adapter@_W@__crt_stdio_output@@@2@@__crt_stdio_output@@AAE_NXZ@@__crt_stdio_output@@YAPAUansi_string@?1??type_case_Z@?$output_processor@_WV?$stream_output_adapter@_W@__crt_stdio_output@@V?$positional_parameter_base@_WV?$stream_output_adapter@_W@__crt_stdio_output@@@2@@0@AAE_NXZ@AAPAD@Z 100209c9 f i libucrt:output.obj
 0001:0001f9dc       ??$read_va_arg@PAUansi_string@?1??type_case_Z@?$output_processor@_WV?$stream_output_adapter@_W@__crt_stdio_output@@V?$standard_base@_WV?$stream_output_adapter@_W@__crt_stdio_output@@@2@@__crt_stdio_output@@AAE_NXZ@@__crt_stdio_output@@YAPAUansi_string@?1??type_case_Z@?$output_processor@_WV?$stream_output_adapter@_W@__crt_stdio_output@@V?$standard_base@_WV?$stream_output_adapter@_W@__crt_stdio_output@@@2@@0@AAE_NXZ@AAPAD@Z 100209dc f i libucrt:output.obj
 0001:0001f9ef       ??$read_va_arg@PAUansi_string@?1??type_case_Z@?$output_processor@_WV?$string_output_adapter@_W@__crt_stdio_output@@V?$format_validation_base@_WV?$string_output_adapter@_W@__crt_stdio_output@@@2@@__crt_stdio_output@@AAE_NXZ@@__crt_stdio_output@@YAPAUansi_string@?1??type_case_Z@?$output_processor@_WV?$string_output_adapter@_W@__crt_stdio_output@@V?$format_validation_base@_WV?$string_output_adapter@_W@__crt_stdio_output@@@2@@0@AAE_NXZ@AAPAD@Z 100209ef f i libucrt:output.obj
 0001:0001fa02       ??$read_va_arg@PAUansi_string@?1??type_case_Z@?$output_processor@_WV?$string_output_adapter@_W@__crt_stdio_output@@V?$positional_parameter_base@_WV?$string_output_adapter@_W@__crt_stdio_output@@@2@@__crt_stdio_output@@AAE_NXZ@@__crt_stdio_output@@YAPAUansi_string@?1??type_case_Z@?$output_processor@_WV?$string_output_adapter@_W@__crt_stdio_output@@V?$positional_parameter_base@_WV?$string_output_adapter@_W@__crt_stdio_output@@@2@@0@AAE_NXZ@AAPAD@Z 10020a02 f i libucrt:output.obj
 0001:0001fa15       ??$read_va_arg@PAUansi_string@?1??type_case_Z@?$output_processor@_WV?$string_output_adapter@_W@__crt_stdio_output@@V?$standard_base@_WV?$string_output_adapter@_W@__crt_stdio_output@@@2@@__crt_stdio_output@@AAE_NXZ@@__crt_stdio_output@@YAPAUansi_string@?1??type_case_Z@?$output_processor@_WV?$string_output_adapter@_W@__crt_stdio_output@@V?$standard_base@_WV?$string_output_adapter@_W@__crt_stdio_output@@@2@@0@AAE_NXZ@AAPAD@Z 10020a15 f i libucrt:output.obj
 0001:0001fa28       ??$read_va_arg@PAX@__crt_stdio_output@@YAPAXAAPAD@Z 10020a28 f i libucrt:output.obj
 0001:0001fa3b       ??$read_va_arg@U_CRT_DOUBLE@@@__crt_stdio_output@@YA?AU_CRT_DOUBLE@@AAPAD@Z 10020a3b f i libucrt:output.obj
 0001:0001fa51       ??$read_va_arg@_J@__crt_stdio_output@@YA_JAAPAD@Z 10020a51 f i libucrt:output.obj
 0001:0001fa67       ??$read_va_arg@_K@__crt_stdio_output@@YA_KAAPAD@Z 10020a67 f i libucrt:output.obj
 0001:0001fa7d       ??$read_va_arg@_W@__crt_stdio_output@@YA_WAAPAD@Z 10020a7d f i libucrt:output.obj
 0001:0001fa91       ??$scratch_count@D@formatting_buffer@__crt_stdio_output@@QBEIXZ 10020a91 f i libucrt:output.obj
 0001:0001fa96       ??$scratch_data@D@formatting_buffer@__crt_stdio_output@@QAEPADXZ 10020a96 f i libucrt:output.obj
 0001:0001fab4       ??$type_case_integer@$07@?$output_processor@DV?$stream_output_adapter@D@__crt_stdio_output@@V?$format_validation_base@DV?$stream_output_adapter@D@__crt_stdio_output@@@2@@__crt_stdio_output@@AAE_N_N@Z 10020ab4 f i libucrt:output.obj
 0001:0001fc41       ??$type_case_integer@$07@?$output_processor@DV?$stream_output_adapter@D@__crt_stdio_output@@V?$positional_parameter_base@DV?$stream_output_adapter@D@__crt_stdio_output@@@2@@__crt_stdio_output@@AAE_N_N@Z 10020c41 f i libucrt:output.obj
 0001:0001fddd       ??$type_case_integer@$07@?$output_processor@DV?$stream_output_adapter@D@__crt_stdio_output@@V?$standard_base@DV?$stream_output_adapter@D@__crt_stdio_output@@@2@@__crt_stdio_output@@AAE_N_N@Z 10020ddd f i libucrt:output.obj
 0001:0001ff6a       ??$type_case_integer@$07@?$output_processor@DV?$string_output_adapter@D@__crt_stdio_output@@V?$format_validation_base@DV?$string_output_adapter@D@__crt_stdio_output@@@2@@__crt_stdio_output@@AAE_N_N@Z 10020f6a f i libucrt:output.obj
 0001:000200f7       ??$type_case_integer@$07@?$output_processor@DV?$string_output_adapter@D@__crt_stdio_output@@V?$positional_parameter_base@DV?$string_output_adapter@D@__crt_stdio_output@@@2@@__crt_stdio_output@@AAE_N_N@Z 100210f7 f i libucrt:output.obj
 0001:00020293       ??$type_case_integer@$07@?$output_processor@DV?$string_output_adapter@D@__crt_stdio_output@@V?$standard_base@DV?$string_output_adapter@D@__crt_stdio_output@@@2@@__crt_stdio_output@@AAE_N_N@Z 10021293 f i libucrt:output.obj
 0001:00020420       ??$type_case_integer@$07@?$output_processor@_WV?$stream_output_adapter@_W@__crt_stdio_output@@V?$format_validation_base@_WV?$stream_output_adapter@_W@__crt_stdio_output@@@2@@__crt_stdio_output@@AAE_N_N@Z 10021420 f i libucrt:output.obj
 0001:000205b2       ??$type_case_integer@$07@?$output_processor@_WV?$stream_output_adapter@_W@__crt_stdio_output@@V?$positional_parameter_base@_WV?$stream_output_adapter@_W@__crt_stdio_output@@@2@@__crt_stdio_output@@AAE_N_N@Z 100215b2 f i libucrt:output.obj
 0001:00020752       ??$type_case_integer@$07@?$output_processor@_WV?$stream_output_adapter@_W@__crt_stdio_output@@V?$standard_base@_WV?$stream_output_adapter@_W@__crt_stdio_output@@@2@@__crt_stdio_output@@AAE_N_N@Z 10021752 f i libucrt:output.obj
 0001:000208e4       ??$type_case_integer@$07@?$output_processor@_WV?$string_output_adapter@_W@__crt_stdio_output@@V?$format_validation_base@_WV?$string_output_adapter@_W@__crt_stdio_output@@@2@@__crt_stdio_output@@AAE_N_N@Z 100218e4 f i libucrt:output.obj
 0001:00020a76       ??$type_case_integer@$07@?$output_processor@_WV?$string_output_adapter@_W@__crt_stdio_output@@V?$positional_parameter_base@_WV?$string_output_adapter@_W@__crt_stdio_output@@@2@@__crt_stdio_output@@AAE_N_N@Z 10021a76 f i libucrt:output.obj
 0001:00020c16       ??$type_case_integer@$07@?$output_processor@_WV?$string_output_adapter@_W@__crt_stdio_output@@V?$standard_base@_WV?$string_output_adapter@_W@__crt_stdio_output@@@2@@__crt_stdio_output@@AAE_N_N@Z 10021c16 f i libucrt:output.obj
 0001:00020da8       ??$type_case_integer@$09@?$output_processor@DV?$stream_output_adapter@D@__crt_stdio_output@@V?$format_validation_base@DV?$stream_output_adapter@D@__crt_stdio_output@@@2@@__crt_stdio_output@@AAE_N_N@Z 10021da8 f i libucrt:output.obj
 0001:00020f35       ??$type_case_integer@$09@?$output_processor@DV?$stream_output_adapter@D@__crt_stdio_output@@V?$positional_parameter_base@DV?$stream_output_adapter@D@__crt_stdio_output@@@2@@__crt_stdio_output@@AAE_N_N@Z 10021f35 f i libucrt:output.obj
 0001:000210d1       ??$type_case_integer@$09@?$output_processor@DV?$stream_output_adapter@D@__crt_stdio_output@@V?$standard_base@DV?$stream_output_adapter@D@__crt_stdio_output@@@2@@__crt_stdio_output@@AAE_N_N@Z 100220d1 f i libucrt:output.obj
 0001:0002125e       ??$type_case_integer@$09@?$output_processor@DV?$string_output_adapter@D@__crt_stdio_output@@V?$format_validation_base@DV?$string_output_adapter@D@__crt_stdio_output@@@2@@__crt_stdio_output@@AAE_N_N@Z 1002225e f i libucrt:output.obj
 0001:000213eb       ??$type_case_integer@$09@?$output_processor@DV?$string_output_adapter@D@__crt_stdio_output@@V?$positional_parameter_base@DV?$string_output_adapter@D@__crt_stdio_output@@@2@@__crt_stdio_output@@AAE_N_N@Z 100223eb f i libucrt:output.obj
 0001:00021587       ??$type_case_integer@$09@?$output_processor@DV?$string_output_adapter@D@__crt_stdio_output@@V?$standard_base@DV?$string_output_adapter@D@__crt_stdio_output@@@2@@__crt_stdio_output@@AAE_N_N@Z 10022587 f i libucrt:output.obj
 0001:00021714       ??$type_case_integer@$09@?$output_processor@_WV?$stream_output_adapter@_W@__crt_stdio_output@@V?$format_validation_base@_WV?$stream_output_adapter@_W@__crt_stdio_output@@@2@@__crt_stdio_output@@AAE_N_N@Z 10022714 f i libucrt:output.obj
 0001:000218a6       ??$type_case_integer@$09@?$output_processor@_WV?$stream_output_adapter@_W@__crt_stdio_output@@V?$positional_parameter_base@_WV?$stream_output_adapter@_W@__crt_stdio_output@@@2@@__crt_stdio_output@@AAE_N_N@Z 100228a6 f i libucrt:output.obj
 0001:00021a46       ??$type_case_integer@$09@?$output_processor@_WV?$stream_output_adapter@_W@__crt_stdio_output@@V?$standard_base@_WV?$stream_output_adapter@_W@__crt_stdio_output@@@2@@__crt_stdio_output@@AAE_N_N@Z 10022a46 f i libucrt:output.obj
 0001:00021bd8       ??$type_case_integer@$09@?$output_processor@_WV?$string_output_adapter@_W@__crt_stdio_output@@V?$format_validation_base@_WV?$string_output_adapter@_W@__crt_stdio_output@@@2@@__crt_stdio_output@@AAE_N_N@Z 10022bd8 f i libucrt:output.obj
 0001:00021d6a       ??$type_case_integer@$09@?$output_processor@_WV?$string_output_adapter@_W@__crt_stdio_output@@V?$positional_parameter_base@_WV?$string_output_adapter@_W@__crt_stdio_output@@@2@@__crt_stdio_output@@AAE_N_N@Z 10022d6a f i libucrt:output.obj
 0001:00021f0a       ??$type_case_integer@$09@?$output_processor@_WV?$string_output_adapter@_W@__crt_stdio_output@@V?$standard_base@_WV?$string_output_adapter@_W@__crt_stdio_output@@@2@@__crt_stdio_output@@AAE_N_N@Z 10022f0a f i libucrt:output.obj
 0001:0002209c       ??$type_case_integer@$0BA@@?$output_processor@DV?$stream_output_adapter@D@__crt_stdio_output@@V?$format_validation_base@DV?$stream_output_adapter@D@__crt_stdio_output@@@2@@__crt_stdio_output@@AAE_N_N@Z 1002309c f i libucrt:output.obj
 0001:00022229       ??$type_case_integer@$0BA@@?$output_processor@DV?$stream_output_adapter@D@__crt_stdio_output@@V?$positional_parameter_base@DV?$stream_output_adapter@D@__crt_stdio_output@@@2@@__crt_stdio_output@@AAE_N_N@Z 10023229 f i libucrt:output.obj
 0001:000223c5       ??$type_case_integer@$0BA@@?$output_processor@DV?$stream_output_adapter@D@__crt_stdio_output@@V?$standard_base@DV?$stream_output_adapter@D@__crt_stdio_output@@@2@@__crt_stdio_output@@AAE_N_N@Z 100233c5 f i libucrt:output.obj
 0001:00022552       ??$type_case_integer@$0BA@@?$output_processor@DV?$string_output_adapter@D@__crt_stdio_output@@V?$format_validation_base@DV?$string_output_adapter@D@__crt_stdio_output@@@2@@__crt_stdio_output@@AAE_N_N@Z 10023552 f i libucrt:output.obj
 0001:000226df       ??$type_case_integer@$0BA@@?$output_processor@DV?$string_output_adapter@D@__crt_stdio_output@@V?$positional_parameter_base@DV?$string_output_adapter@D@__crt_stdio_output@@@2@@__crt_stdio_output@@AAE_N_N@Z 100236df f i libucrt:output.obj
 0001:0002287b       ??$type_case_integer@$0BA@@?$output_processor@DV?$string_output_adapter@D@__crt_stdio_output@@V?$standard_base@DV?$string_output_adapter@D@__crt_stdio_output@@@2@@__crt_stdio_output@@AAE_N_N@Z 1002387b f i libucrt:output.obj
 0001:00022a08       ??$type_case_integer@$0BA@@?$output_processor@_WV?$stream_output_adapter@_W@__crt_stdio_output@@V?$format_validation_base@_WV?$stream_output_adapter@_W@__crt_stdio_output@@@2@@__crt_stdio_output@@AAE_N_N@Z 10023a08 f i libucrt:output.obj
 0001:00022b9a       ??$type_case_integer@$0BA@@?$output_processor@_WV?$stream_output_adapter@_W@__crt_stdio_output@@V?$positional_parameter_base@_WV?$stream_output_adapter@_W@__crt_stdio_output@@@2@@__crt_stdio_output@@AAE_N_N@Z 10023b9a f i libucrt:output.obj
 0001:00022d3a       ??$type_case_integer@$0BA@@?$output_processor@_WV?$stream_output_adapter@_W@__crt_stdio_output@@V?$standard_base@_WV?$stream_output_adapter@_W@__crt_stdio_output@@@2@@__crt_stdio_output@@AAE_N_N@Z 10023d3a f i libucrt:output.obj
 0001:00022ecc       ??$type_case_integer@$0BA@@?$output_processor@_WV?$string_output_adapter@_W@__crt_stdio_output@@V?$format_validation_base@_WV?$string_output_adapter@_W@__crt_stdio_output@@@2@@__crt_stdio_output@@AAE_N_N@Z 10023ecc f i libucrt:output.obj
 0001:0002305e       ??$type_case_integer@$0BA@@?$output_processor@_WV?$string_output_adapter@_W@__crt_stdio_output@@V?$positional_parameter_base@_WV?$string_output_adapter@_W@__crt_stdio_output@@@2@@__crt_stdio_output@@AAE_N_N@Z 1002405e f i libucrt:output.obj
 0001:000231fe       ??$type_case_integer@$0BA@@?$output_processor@_WV?$string_output_adapter@_W@__crt_stdio_output@@V?$standard_base@_WV?$string_output_adapter@_W@__crt_stdio_output@@@2@@__crt_stdio_output@@AAE_N_N@Z 100241fe f i libucrt:output.obj
 0001:00023390       ??$type_case_integer_parse_into_buffer@I$07@?$output_processor@DV?$stream_output_adapter@D@__crt_stdio_output@@V?$format_validation_base@DV?$stream_output_adapter@D@__crt_stdio_output@@@2@@__crt_stdio_output@@AAEXI_N@Z 10024390 f i libucrt:output.obj
 0001:000233f3       ??$type_case_integer_parse_into_buffer@I$07@?$output_processor@DV?$stream_output_adapter@D@__crt_stdio_output@@V?$positional_parameter_base@DV?$stream_output_adapter@D@__crt_stdio_output@@@2@@__crt_stdio_output@@AAEXI_N@Z 100243f3 f i libucrt:output.obj
 0001:00023456       ??$type_case_integer_parse_into_buffer@I$07@?$output_processor@DV?$stream_output_adapter@D@__crt_stdio_output@@V?$standard_base@DV?$stream_output_adapter@D@__crt_stdio_output@@@2@@__crt_stdio_output@@AAEXI_N@Z 10024456 f i libucrt:output.obj
 0001:000234b9       ??$type_case_integer_parse_into_buffer@I$07@?$output_processor@DV?$string_output_adapter@D@__crt_stdio_output@@V?$format_validation_base@DV?$string_output_adapter@D@__crt_stdio_output@@@2@@__crt_stdio_output@@AAEXI_N@Z 100244b9 f i libucrt:output.obj
 0001:0002351c       ??$type_case_integer_parse_into_buffer@I$07@?$output_processor@DV?$string_output_adapter@D@__crt_stdio_output@@V?$positional_parameter_base@DV?$string_output_adapter@D@__crt_stdio_output@@@2@@__crt_stdio_output@@AAEXI_N@Z 1002451c f i libucrt:output.obj
 0001:0002357f       ??$type_case_integer_parse_into_buffer@I$07@?$output_processor@DV?$string_output_adapter@D@__crt_stdio_output@@V?$standard_base@DV?$string_output_adapter@D@__crt_stdio_output@@@2@@__crt_stdio_output@@AAEXI_N@Z 1002457f f i libucrt:output.obj
 0001:000235e2       ??$type_case_integer_parse_into_buffer@I$07@?$output_processor@_WV?$stream_output_adapter@_W@__crt_stdio_output@@V?$format_validation_base@_WV?$stream_output_adapter@_W@__crt_stdio_output@@@2@@__crt_stdio_output@@AAEXI_N@Z 100245e2 f i libucrt:output.obj
 0001:00023655       ??$type_case_integer_parse_into_buffer@I$07@?$output_processor@_WV?$stream_output_adapter@_W@__crt_stdio_output@@V?$positional_parameter_base@_WV?$stream_output_adapter@_W@__crt_stdio_output@@@2@@__crt_stdio_output@@AAEXI_N@Z 10024655 f i libucrt:output.obj
 0001:000236c8       ??$type_case_integer_parse_into_buffer@I$07@?$output_processor@_WV?$stream_output_adapter@_W@__crt_stdio_output@@V?$standard_base@_WV?$stream_output_adapter@_W@__crt_stdio_output@@@2@@__crt_stdio_output@@AAEXI_N@Z 100246c8 f i libucrt:output.obj
 0001:0002373b       ??$type_case_integer_parse_into_buffer@I$07@?$output_processor@_WV?$string_output_adapter@_W@__crt_stdio_output@@V?$format_validation_base@_WV?$string_output_adapter@_W@__crt_stdio_output@@@2@@__crt_stdio_output@@AAEXI_N@Z 1002473b f i libucrt:output.obj
 0001:000237ae       ??$type_case_integer_parse_into_buffer@I$07@?$output_processor@_WV?$string_output_adapter@_W@__crt_stdio_output@@V?$positional_parameter_base@_WV?$string_output_adapter@_W@__crt_stdio_output@@@2@@__crt_stdio_output@@AAEXI_N@Z 100247ae f i libucrt:output.obj
 0001:00023821       ??$type_case_integer_parse_into_buffer@I$07@?$output_processor@_WV?$string_output_adapter@_W@__crt_stdio_output@@V?$standard_base@_WV?$string_output_adapter@_W@__crt_stdio_output@@@2@@__crt_stdio_output@@AAEXI_N@Z 10024821 f i libucrt:output.obj
 0001:00023894       ??$type_case_integer_parse_into_buffer@I$09@?$output_processor@DV?$stream_output_adapter@D@__crt_stdio_output@@V?$format_validation_base@DV?$stream_output_adapter@D@__crt_stdio_output@@@2@@__crt_stdio_output@@AAEXI_N@Z 10024894 f i libucrt:output.obj
 0001:0002391b       ??$type_case_integer_parse_into_buffer@I$09@?$output_processor@DV?$stream_output_adapter@D@__crt_stdio_output@@V?$positional_parameter_base@DV?$stream_output_adapter@D@__crt_stdio_output@@@2@@__crt_stdio_output@@AAEXI_N@Z 1002491b f i libucrt:output.obj
 0001:000239a2       ??$type_case_integer_parse_into_buffer@I$09@?$output_processor@DV?$stream_output_adapter@D@__crt_stdio_output@@V?$standard_base@DV?$stream_output_adapter@D@__crt_stdio_output@@@2@@__crt_stdio_output@@AAEXI_N@Z 100249a2 f i libucrt:output.obj
 0001:00023a29       ??$type_case_integer_parse_into_buffer@I$09@?$output_processor@DV?$string_output_adapter@D@__crt_stdio_output@@V?$format_validation_base@DV?$string_output_adapter@D@__crt_stdio_output@@@2@@__crt_stdio_output@@AAEXI_N@Z 10024a29 f i libucrt:output.obj
 0001:00023ab0       ??$type_case_integer_parse_into_buffer@I$09@?$output_processor@DV?$string_output_adapter@D@__crt_stdio_output@@V?$positional_parameter_base@DV?$string_output_adapter@D@__crt_stdio_output@@@2@@__crt_stdio_output@@AAEXI_N@Z 10024ab0 f i libucrt:output.obj
 0001:00023b37       ??$type_case_integer_parse_into_buffer@I$09@?$output_processor@DV?$string_output_adapter@D@__crt_stdio_output@@V?$standard_base@DV?$string_output_adapter@D@__crt_stdio_output@@@2@@__crt_stdio_output@@AAEXI_N@Z 10024b37 f i libucrt:output.obj
 0001:00023bbe       ??$type_case_integer_parse_into_buffer@I$09@?$output_processor@_WV?$stream_output_adapter@_W@__crt_stdio_output@@V?$format_validation_base@_WV?$stream_output_adapter@_W@__crt_stdio_output@@@2@@__crt_stdio_output@@AAEXI_N@Z 10024bbe f i libucrt:output.obj
 0001:00023c5a       ??$type_case_integer_parse_into_buffer@I$09@?$output_processor@_WV?$stream_output_adapter@_W@__crt_stdio_output@@V?$positional_parameter_base@_WV?$stream_output_adapter@_W@__crt_stdio_output@@@2@@__crt_stdio_output@@AAEXI_N@Z 10024c5a f i libucrt:output.obj
 0001:00023cf6       ??$type_case_integer_parse_into_buffer@I$09@?$output_processor@_WV?$stream_output_adapter@_W@__crt_stdio_output@@V?$standard_base@_WV?$stream_output_adapter@_W@__crt_stdio_output@@@2@@__crt_stdio_output@@AAEXI_N@Z 10024cf6 f i libucrt:output.obj
 0001:00023d92       ??$type_case_integer_parse_into_buffer@I$09@?$output_processor@_WV?$string_output_adapter@_W@__crt_stdio_output@@V?$format_validation_base@_WV?$string_output_adapter@_W@__crt_stdio_output@@@2@@__crt_stdio_output@@AAEXI_N@Z 10024d92 f i libucrt:output.obj
 0001:00023e2e       ??$type_case_integer_parse_into_buffer@I$09@?$output_processor@_WV?$string_output_adapter@_W@__crt_stdio_output@@V?$positional_parameter_base@_WV?$string_output_adapter@_W@__crt_stdio_output@@@2@@__crt_stdio_output@@AAEXI_N@Z 10024e2e f i libucrt:output.obj
 0001:00023eca       ??$type_case_integer_parse_into_buffer@I$09@?$output_processor@_WV?$string_output_adapter@_W@__crt_stdio_output@@V?$standard_base@_WV?$string_output_adapter@_W@__crt_stdio_output@@@2@@__crt_stdio_output@@AAEXI_N@Z 10024eca f i libucrt:output.obj
 0001:00023f66       ??$type_case_integer_parse_into_buffer@I$0BA@@?$output_processor@DV?$stream_output_adapter@D@__crt_stdio_output@@V?$format_validation_base@DV?$stream_output_adapter@D@__crt_stdio_output@@@2@@__crt_stdio_output@@AAEXI_N@Z 10024f66 f i libucrt:output.obj
 0001:00023fe3       ??$type_case_integer_parse_into_buffer@I$0BA@@?$output_processor@DV?$stream_output_adapter@D@__crt_stdio_output@@V?$positional_parameter_base@DV?$stream_output_adapter@D@__crt_stdio_output@@@2@@__crt_stdio_output@@AAEXI_N@Z 10024fe3 f i libucrt:output.obj
 0001:00024060       ??$type_case_integer_parse_into_buffer@I$0BA@@?$output_processor@DV?$stream_output_adapter@D@__crt_stdio_output@@V?$standard_base@DV?$stream_output_adapter@D@__crt_stdio_output@@@2@@__crt_stdio_output@@AAEXI_N@Z 10025060 f i libucrt:output.obj
 0001:000240dd       ??$type_case_integer_parse_into_buffer@I$0BA@@?$output_processor@DV?$string_output_adapter@D@__crt_stdio_output@@V?$format_validation_base@DV?$string_output_adapter@D@__crt_stdio_output@@@2@@__crt_stdio_output@@AAEXI_N@Z 100250dd f i libucrt:output.obj
 0001:0002415a       ??$type_case_integer_parse_into_buffer@I$0BA@@?$output_processor@DV?$string_output_adapter@D@__crt_stdio_output@@V?$positional_parameter_base@DV?$string_output_adapter@D@__crt_stdio_output@@@2@@__crt_stdio_output@@AAEXI_N@Z 1002515a f i libucrt:output.obj
 0001:000241d7       ??$type_case_integer_parse_into_buffer@I$0BA@@?$output_processor@DV?$string_output_adapter@D@__crt_stdio_output@@V?$standard_base@DV?$string_output_adapter@D@__crt_stdio_output@@@2@@__crt_stdio_output@@AAEXI_N@Z 100251d7 f i libucrt:output.obj
 0001:00024254       ??$type_case_integer_parse_into_buffer@I$0BA@@?$output_processor@_WV?$stream_output_adapter@_W@__crt_stdio_output@@V?$format_validation_base@_WV?$stream_output_adapter@_W@__crt_stdio_output@@@2@@__crt_stdio_output@@AAEXI_N@Z 10025254 f i libucrt:output.obj
 0001:000242de       ??$type_case_integer_parse_into_buffer@I$0BA@@?$output_processor@_WV?$stream_output_adapter@_W@__crt_stdio_output@@V?$positional_parameter_base@_WV?$stream_output_adapter@_W@__crt_stdio_output@@@2@@__crt_stdio_output@@AAEXI_N@Z 100252de f i libucrt:output.obj
 0001:00024368       ??$type_case_integer_parse_into_buffer@I$0BA@@?$output_processor@_WV?$stream_output_adapter@_W@__crt_stdio_output@@V?$standard_base@_WV?$stream_output_adapter@_W@__crt_stdio_output@@@2@@__crt_stdio_output@@AAEXI_N@Z 10025368 f i libucrt:output.obj
 0001:000243f2       ??$type_case_integer_parse_into_buffer@I$0BA@@?$output_processor@_WV?$string_output_adapter@_W@__crt_stdio_output@@V?$format_validation_base@_WV?$string_output_adapter@_W@__crt_stdio_output@@@2@@__crt_stdio_output@@AAEXI_N@Z 100253f2 f i libucrt:output.obj
 0001:0002447c       ??$type_case_integer_parse_into_buffer@I$0BA@@?$output_processor@_WV?$string_output_adapter@_W@__crt_stdio_output@@V?$positional_parameter_base@_WV?$string_output_adapter@_W@__crt_stdio_output@@@2@@__crt_stdio_output@@AAEXI_N@Z 1002547c f i libucrt:output.obj
 0001:00024506       ??$type_case_integer_parse_into_buffer@I$0BA@@?$output_processor@_WV?$string_output_adapter@_W@__crt_stdio_output@@V?$standard_base@_WV?$string_output_adapter@_W@__crt_stdio_output@@@2@@__crt_stdio_output@@AAEXI_N@Z 10025506 f i libucrt:output.obj
 0001:00024590       ??$type_case_integer_parse_into_buffer@_K$07@?$output_processor@DV?$stream_output_adapter@D@__crt_stdio_output@@V?$format_validation_base@DV?$stream_output_adapter@D@__crt_stdio_output@@@2@@__crt_stdio_output@@AAEX_K_N@Z 10025590 f i libucrt:output.obj
 0001:00024608       ??$type_case_integer_parse_into_buffer@_K$07@?$output_processor@DV?$stream_output_adapter@D@__crt_stdio_output@@V?$positional_parameter_base@DV?$stream_output_adapter@D@__crt_stdio_output@@@2@@__crt_stdio_output@@AAEX_K_N@Z 10025608 f i libucrt:output.obj
 0001:00024680       ??$type_case_integer_parse_into_buffer@_K$07@?$output_processor@DV?$stream_output_adapter@D@__crt_stdio_output@@V?$standard_base@DV?$stream_output_adapter@D@__crt_stdio_output@@@2@@__crt_stdio_output@@AAEX_K_N@Z 10025680 f i libucrt:output.obj
 0001:000246f8       ??$type_case_integer_parse_into_buffer@_K$07@?$output_processor@DV?$string_output_adapter@D@__crt_stdio_output@@V?$format_validation_base@DV?$string_output_adapter@D@__crt_stdio_output@@@2@@__crt_stdio_output@@AAEX_K_N@Z 100256f8 f i libucrt:output.obj
 0001:00024770       ??$type_case_integer_parse_into_buffer@_K$07@?$output_processor@DV?$string_output_adapter@D@__crt_stdio_output@@V?$positional_parameter_base@DV?$string_output_adapter@D@__crt_stdio_output@@@2@@__crt_stdio_output@@AAEX_K_N@Z 10025770 f i libucrt:output.obj
 0001:000247e8       ??$type_case_integer_parse_into_buffer@_K$07@?$output_processor@DV?$string_output_adapter@D@__crt_stdio_output@@V?$standard_base@DV?$string_output_adapter@D@__crt_stdio_output@@@2@@__crt_stdio_output@@AAEX_K_N@Z 100257e8 f i libucrt:output.obj
 0001:00024860       ??$type_case_integer_parse_into_buffer@_K$07@?$output_processor@_WV?$stream_output_adapter@_W@__crt_stdio_output@@V?$format_validation_base@_WV?$stream_output_adapter@_W@__crt_stdio_output@@@2@@__crt_stdio_output@@AAEX_K_N@Z 10025860 f i libucrt:output.obj
 0001:000248e7       ??$type_case_integer_parse_into_buffer@_K$07@?$output_processor@_WV?$stream_output_adapter@_W@__crt_stdio_output@@V?$positional_parameter_base@_WV?$stream_output_adapter@_W@__crt_stdio_output@@@2@@__crt_stdio_output@@AAEX_K_N@Z 100258e7 f i libucrt:output.obj
 0001:0002496e       ??$type_case_integer_parse_into_buffer@_K$07@?$output_processor@_WV?$stream_output_adapter@_W@__crt_stdio_output@@V?$standard_base@_WV?$stream_output_adapter@_W@__crt_stdio_output@@@2@@__crt_stdio_output@@AAEX_K_N@Z 1002596e f i libucrt:output.obj
 0001:000249f5       ??$type_case_integer_parse_into_buffer@_K$07@?$output_processor@_WV?$string_output_adapter@_W@__crt_stdio_output@@V?$format_validation_base@_WV?$string_output_adapter@_W@__crt_stdio_output@@@2@@__crt_stdio_output@@AAEX_K_N@Z 100259f5 f i libucrt:output.obj
 0001:00024a7c       ??$type_case_integer_parse_into_buffer@_K$07@?$output_processor@_WV?$string_output_adapter@_W@__crt_stdio_output@@V?$positional_parameter_base@_WV?$string_output_adapter@_W@__crt_stdio_output@@@2@@__crt_stdio_output@@AAEX_K_N@Z 10025a7c f i libucrt:output.obj
 0001:00024b03       ??$type_case_integer_parse_into_buffer@_K$07@?$output_processor@_WV?$string_output_adapter@_W@__crt_stdio_output@@V?$standard_base@_WV?$string_output_adapter@_W@__crt_stdio_output@@@2@@__crt_stdio_output@@AAEX_K_N@Z 10025b03 f i libucrt:output.obj
 0001:00024b8a       ??$type_case_integer_parse_into_buffer@_K$09@?$output_processor@DV?$stream_output_adapter@D@__crt_stdio_output@@V?$format_validation_base@DV?$stream_output_adapter@D@__crt_stdio_output@@@2@@__crt_stdio_output@@AAEX_K_N@Z 10025b8a f i libucrt:output.obj
 0001:00024c31       ??$type_case_integer_parse_into_buffer@_K$09@?$output_processor@DV?$stream_output_adapter@D@__crt_stdio_output@@V?$positional_parameter_base@DV?$stream_output_adapter@D@__crt_stdio_output@@@2@@__crt_stdio_output@@AAEX_K_N@Z 10025c31 f i libucrt:output.obj
 0001:00024cd8       ??$type_case_integer_parse_into_buffer@_K$09@?$output_processor@DV?$stream_output_adapter@D@__crt_stdio_output@@V?$standard_base@DV?$stream_output_adapter@D@__crt_stdio_output@@@2@@__crt_stdio_output@@AAEX_K_N@Z 10025cd8 f i libucrt:output.obj
 0001:00024d7f       ??$type_case_integer_parse_into_buffer@_K$09@?$output_processor@DV?$string_output_adapter@D@__crt_stdio_output@@V?$format_validation_base@DV?$string_output_adapter@D@__crt_stdio_output@@@2@@__crt_stdio_output@@AAEX_K_N@Z 10025d7f f i libucrt:output.obj
 0001:00024e26       ??$type_case_integer_parse_into_buffer@_K$09@?$output_processor@DV?$string_output_adapter@D@__crt_stdio_output@@V?$positional_parameter_base@DV?$string_output_adapter@D@__crt_stdio_output@@@2@@__crt_stdio_output@@AAEX_K_N@Z 10025e26 f i libucrt:output.obj
 0001:00024ecd       ??$type_case_integer_parse_into_buffer@_K$09@?$output_processor@DV?$string_output_adapter@D@__crt_stdio_output@@V?$standard_base@DV?$string_output_adapter@D@__crt_stdio_output@@@2@@__crt_stdio_output@@AAEX_K_N@Z 10025ecd f i libucrt:output.obj
 0001:00024f74       ??$type_case_integer_parse_into_buffer@_K$09@?$output_processor@_WV?$stream_output_adapter@_W@__crt_stdio_output@@V?$format_validation_base@_WV?$stream_output_adapter@_W@__crt_stdio_output@@@2@@__crt_stdio_output@@AAEX_K_N@Z 10025f74 f i libucrt:output.obj
 0001:00025031       ??$type_case_integer_parse_into_buffer@_K$09@?$output_processor@_WV?$stream_output_adapter@_W@__crt_stdio_output@@V?$positional_parameter_base@_WV?$stream_output_adapter@_W@__crt_stdio_output@@@2@@__crt_stdio_output@@AAEX_K_N@Z 10026031 f i libucrt:output.obj
 0001:000250ee       ??$type_case_integer_parse_into_buffer@_K$09@?$output_processor@_WV?$stream_output_adapter@_W@__crt_stdio_output@@V?$standard_base@_WV?$stream_output_adapter@_W@__crt_stdio_output@@@2@@__crt_stdio_output@@AAEX_K_N@Z 100260ee f i libucrt:output.obj
 0001:000251ab       ??$type_case_integer_parse_into_buffer@_K$09@?$output_processor@_WV?$string_output_adapter@_W@__crt_stdio_output@@V?$format_validation_base@_WV?$string_output_adapter@_W@__crt_stdio_output@@@2@@__crt_stdio_output@@AAEX_K_N@Z 100261ab f i libucrt:output.obj
 0001:00025268       ??$type_case_integer_parse_into_buffer@_K$09@?$output_processor@_WV?$string_output_adapter@_W@__crt_stdio_output@@V?$positional_parameter_base@_WV?$string_output_adapter@_W@__crt_stdio_output@@@2@@__crt_stdio_output@@AAEX_K_N@Z 10026268 f i libucrt:output.obj
 0001:00025325       ??$type_case_integer_parse_into_buffer@_K$09@?$output_processor@_WV?$string_output_adapter@_W@__crt_stdio_output@@V?$standard_base@_WV?$string_output_adapter@_W@__crt_stdio_output@@@2@@__crt_stdio_output@@AAEX_K_N@Z 10026325 f i libucrt:output.obj
 0001:000253e2       ??$type_case_integer_parse_into_buffer@_K$0BA@@?$output_processor@DV?$stream_output_adapter@D@__crt_stdio_output@@V?$format_validation_base@DV?$stream_output_adapter@D@__crt_stdio_output@@@2@@__crt_stdio_output@@AAEX_K_N@Z 100263e2 f i libucrt:output.obj
 0001:0002546c       ??$type_case_integer_parse_into_buffer@_K$0BA@@?$output_processor@DV?$stream_output_adapter@D@__crt_stdio_output@@V?$positional_parameter_base@DV?$stream_output_adapter@D@__crt_stdio_output@@@2@@__crt_stdio_output@@AAEX_K_N@Z 1002646c f i libucrt:output.obj
 0001:000254f6       ??$type_case_integer_parse_into_buffer@_K$0BA@@?$output_processor@DV?$stream_output_adapter@D@__crt_stdio_output@@V?$standard_base@DV?$stream_output_adapter@D@__crt_stdio_output@@@2@@__crt_stdio_output@@AAEX_K_N@Z 100264f6 f i libucrt:output.obj
 0001:00025580       ??$type_case_integer_parse_into_buffer@_K$0BA@@?$output_processor@DV?$string_output_adapter@D@__crt_stdio_output@@V?$format_validation_base@DV?$string_output_adapter@D@__crt_stdio_output@@@2@@__crt_stdio_output@@AAEX_K_N@Z 10026580 f i libucrt:output.obj
 0001:0002560a       ??$type_case_integer_parse_into_buffer@_K$0BA@@?$output_processor@DV?$string_output_adapter@D@__crt_stdio_output@@V?$positional_parameter_base@DV?$string_output_adapter@D@__crt_stdio_output@@@2@@__crt_stdio_output@@AAEX_K_N@Z 1002660a f i libucrt:output.obj
 0001:00025694       ??$type_case_integer_parse_into_buffer@_K$0BA@@?$output_processor@DV?$string_output_adapter@D@__crt_stdio_output@@V?$standard_base@DV?$string_output_adapter@D@__crt_stdio_output@@@2@@__crt_stdio_output@@AAEX_K_N@Z 10026694 f i libucrt:output.obj
 0001:0002571e       ??$type_case_integer_parse_into_buffer@_K$0BA@@?$output_processor@_WV?$stream_output_adapter@_W@__crt_stdio_output@@V?$format_validation_base@_WV?$stream_output_adapter@_W@__crt_stdio_output@@@2@@__crt_stdio_output@@AAEX_K_N@Z 1002671e f i libucrt:output.obj
 0001:000257b4       ??$type_case_integer_parse_into_buffer@_K$0BA@@?$output_processor@_WV?$stream_output_adapter@_W@__crt_stdio_output@@V?$positional_parameter_base@_WV?$stream_output_adapter@_W@__crt_stdio_output@@@2@@__crt_stdio_output@@AAEX_K_N@Z 100267b4 f i libucrt:output.obj
 0001:0002584a       ??$type_case_integer_parse_into_buffer@_K$0BA@@?$output_processor@_WV?$stream_output_adapter@_W@__crt_stdio_output@@V?$standard_base@_WV?$stream_output_adapter@_W@__crt_stdio_output@@@2@@__crt_stdio_output@@AAEX_K_N@Z 1002684a f i libucrt:output.obj
 0001:000258e0       ??$type_case_integer_parse_into_buffer@_K$0BA@@?$output_processor@_WV?$string_output_adapter@_W@__crt_stdio_output@@V?$format_validation_base@_WV?$string_output_adapter@_W@__crt_stdio_output@@@2@@__crt_stdio_output@@AAEX_K_N@Z 100268e0 f i libucrt:output.obj
 0001:00025976       ??$type_case_integer_parse_into_buffer@_K$0BA@@?$output_processor@_WV?$string_output_adapter@_W@__crt_stdio_output@@V?$positional_parameter_base@_WV?$string_output_adapter@_W@__crt_stdio_output@@@2@@__crt_stdio_output@@AAEX_K_N@Z 10026976 f i libucrt:output.obj
 0001:00025a0c       ??$type_case_integer_parse_into_buffer@_K$0BA@@?$output_processor@_WV?$string_output_adapter@_W@__crt_stdio_output@@V?$standard_base@_WV?$string_output_adapter@_W@__crt_stdio_output@@@2@@__crt_stdio_output@@AAEX_K_N@Z 10026a0c f i libucrt:output.obj
 0001:00025aa2       ??$write_multiple_characters@V?$stream_output_adapter@D@__crt_stdio_output@@D@__crt_stdio_output@@YAXABV?$stream_output_adapter@D@0@DHQAHAAV__crt_cached_ptd_host@@@Z 10026aa2 f i libucrt:output.obj
 0001:00025ad1       ??$write_multiple_characters@V?$stream_output_adapter@_W@__crt_stdio_output@@D@__crt_stdio_output@@YAXABV?$stream_output_adapter@_W@0@DHQAHAAV__crt_cached_ptd_host@@@Z 10026ad1 f i libucrt:output.obj
 0001:00025b05       ??$write_multiple_characters@V?$string_output_adapter@D@__crt_stdio_output@@D@__crt_stdio_output@@YAXABV?$string_output_adapter@D@0@DHQAHAAV__crt_cached_ptd_host@@@Z 10026b05 f i libucrt:output.obj
 0001:00025b68       ??$write_multiple_characters@V?$string_output_adapter@_W@__crt_stdio_output@@D@__crt_stdio_output@@YAXABV?$string_output_adapter@_W@0@DHQAHAAV__crt_cached_ptd_host@@@Z 10026b68 f i libucrt:output.obj
 0001:00025d97       ??0?$c_string_character_source@D@__crt_strtox@@QAE@QBDQAPBD@Z 10026d97 f i libucrt:output.obj
 0001:00025db3       ??0?$c_string_character_source@_W@__crt_strtox@@QAE@QB_WQAPB_W@Z 10026db3 f i libucrt:output.obj
 0001:00025dcf       ??0?$common_data@D@__crt_stdio_output@@IAE@AAV__crt_cached_ptd_host@@@Z 10026dcf f i libucrt:output.obj
 0001:00025e16       ??0?$common_data@_W@__crt_stdio_output@@IAE@AAV__crt_cached_ptd_host@@@Z 10026e16 f i libucrt:output.obj
 0001:00025e62       ??0?$output_adapter_data@DV?$stream_output_adapter@D@__crt_stdio_output@@@__crt_stdio_output@@IAE@ABV?$stream_output_adapter@D@1@_KQBDAAV__crt_cached_ptd_host@@QAD@Z 10026e62 f i libucrt:output.obj
 0001:00025ec9       ??0?$output_adapter_data@DV?$string_output_adapter@D@__crt_stdio_output@@@__crt_stdio_output@@IAE@ABV?$string_output_adapter@D@1@_KQBDAAV__crt_cached_ptd_host@@QAD@Z 10026ec9 f i libucrt:output.obj
 0001:00025f30       ??0?$output_adapter_data@_WV?$stream_output_adapter@_W@__crt_stdio_output@@@__crt_stdio_output@@IAE@ABV?$stream_output_adapter@_W@1@_KQB_WAAV__crt_cached_ptd_host@@QAD@Z 10026f30 f i libucrt:output.obj
 0001:00025f9c       ??0?$output_adapter_data@_WV?$string_output_adapter@_W@__crt_stdio_output@@@__crt_stdio_output@@IAE@ABV?$string_output_adapter@_W@1@_KQB_WAAV__crt_cached_ptd_host@@QAD@Z 10026f9c f i libucrt:output.obj
 0001:00026008       ??0?$output_processor@DV?$stream_output_adapter@D@__crt_stdio_output@@V?$format_validation_base@DV?$stream_output_adapter@D@__crt_stdio_output@@@2@@__crt_stdio_output@@QAE@ABV?$stream_output_adapter@D@1@_KQBDAAV__crt_cached_ptd_host@@QAD@Z 10027008 f i libucrt:output.obj
 0001:00026035       ??0?$output_processor@DV?$stream_output_adapter@D@__crt_stdio_output@@V?$positional_parameter_base@DV?$stream_output_adapter@D@__crt_stdio_output@@@2@@__crt_stdio_output@@QAE@ABV?$stream_output_adapter@D@1@_KQBDAAV__crt_cached_ptd_host@@QAD@Z 10027035 f i libucrt:output.obj
 0001:0002605b       ??0?$output_processor@DV?$stream_output_adapter@D@__crt_stdio_output@@V?$standard_base@DV?$stream_output_adapter@D@__crt_stdio_output@@@2@@__crt_stdio_output@@QAE@ABV?$stream_output_adapter@D@1@_KQBDAAV__crt_cached_ptd_host@@QAD@Z 1002705b f i libucrt:output.obj
 0001:00026088       ??0?$output_processor@DV?$string_output_adapter@D@__crt_stdio_output@@V?$format_validation_base@DV?$string_output_adapter@D@__crt_stdio_output@@@2@@__crt_stdio_output@@QAE@ABV?$string_output_adapter@D@1@_KQBDAAV__crt_cached_ptd_host@@QAD@Z 10027088 f i libucrt:output.obj
 0001:000260b5       ??0?$output_processor@DV?$string_output_adapter@D@__crt_stdio_output@@V?$positional_parameter_base@DV?$string_output_adapter@D@__crt_stdio_output@@@2@@__crt_stdio_output@@QAE@ABV?$string_output_adapter@D@1@_KQBDAAV__crt_cached_ptd_host@@QAD@Z 100270b5 f i libucrt:output.obj
 0001:000260db       ??0?$output_processor@DV?$string_output_adapter@D@__crt_stdio_output@@V?$standard_base@DV?$string_output_adapter@D@__crt_stdio_output@@@2@@__crt_stdio_output@@QAE@ABV?$string_output_adapter@D@1@_KQBDAAV__crt_cached_ptd_host@@QAD@Z 100270db f i libucrt:output.obj
 0001:00026108       ??0?$output_processor@_WV?$stream_output_adapter@_W@__crt_stdio_output@@V?$format_validation_base@_WV?$stream_output_adapter@_W@__crt_stdio_output@@@2@@__crt_stdio_output@@QAE@ABV?$stream_output_adapter@_W@1@_KQB_WAAV__crt_cached_ptd_host@@QAD@Z 10027108 f i libucrt:output.obj
 0001:00026135       ??0?$output_processor@_WV?$stream_output_adapter@_W@__crt_stdio_output@@V?$positional_parameter_base@_WV?$stream_output_adapter@_W@__crt_stdio_output@@@2@@__crt_stdio_output@@QAE@ABV?$stream_output_adapter@_W@1@_KQB_WAAV__crt_cached_ptd_host@@QAD@Z 10027135 f i libucrt:output.obj
 0001:0002615b       ??0?$output_processor@_WV?$stream_output_adapter@_W@__crt_stdio_output@@V?$standard_base@_WV?$stream_output_adapter@_W@__crt_stdio_output@@@2@@__crt_stdio_output@@QAE@ABV?$stream_output_adapter@_W@1@_KQB_WAAV__crt_cached_ptd_host@@QAD@Z 1002715b f i libucrt:output.obj
 0001:00026188       ??0?$output_processor@_WV?$string_output_adapter@_W@__crt_stdio_output@@V?$format_validation_base@_WV?$string_output_adapter@_W@__crt_stdio_output@@@2@@__crt_stdio_output@@QAE@ABV?$string_output_adapter@_W@1@_KQB_WAAV__crt_cached_ptd_host@@QAD@Z 10027188 f i libucrt:output.obj
 0001:000261b5       ??0?$output_processor@_WV?$string_output_adapter@_W@__crt_stdio_output@@V?$positional_parameter_base@_WV?$string_output_adapter@_W@__crt_stdio_output@@@2@@__crt_stdio_output@@QAE@ABV?$string_output_adapter@_W@1@_KQB_WAAV__crt_cached_ptd_host@@QAD@Z 100271b5 f i libucrt:output.obj
 0001:000261db       ??0?$output_processor@_WV?$string_output_adapter@_W@__crt_stdio_output@@V?$standard_base@_WV?$string_output_adapter@_W@__crt_stdio_output@@@2@@__crt_stdio_output@@QAE@ABV?$string_output_adapter@_W@1@_KQB_WAAV__crt_cached_ptd_host@@QAD@Z 100271db f i libucrt:output.obj
 0001:00026208       ??0?$stream_output_adapter@D@__crt_stdio_output@@QAE@QAU_iobuf@@@Z 10027208 f i libucrt:output.obj
 0001:00026218       ??0?$stream_output_adapter@_W@__crt_stdio_output@@QAE@QAU_iobuf@@@Z 10027218 f i libucrt:output.obj
 0001:00026228       ??0?$string_output_adapter@D@__crt_stdio_output@@QAE@QAU?$string_output_adapter_context@D@1@@Z 10027228 f i libucrt:output.obj
 0001:00026238       ??0?$string_output_adapter@_W@__crt_stdio_output@@QAE@QAU?$string_output_adapter_context@_W@1@@Z 10027238 f i libucrt:output.obj
 0001:00026248       ??0__acrt_stdio_temporary_buffering_guard@@QAE@QAU_iobuf@@AAV__crt_cached_ptd_host@@@Z 10027248 f i libucrt:output.obj
 0001:0002626c       ??0__crt_stdio_stream@@QAE@QAU_iobuf@@@Z 1002726c f i libucrt:output.obj
 0001:0002627c       ??0formatting_buffer@__crt_stdio_output@@QAE@XZ 1002727c f i libucrt:output.obj
 0001:0002628d       ??0guard@?$cached@H@__crt_cached_ptd_host@@QAE@AAU12@@Z 1002728d f i libucrt:output.obj
 0001:000262ac       ??1?$c_string_character_source@D@__crt_strtox@@QAE@XZ 100272ac f i libucrt:output.obj
 0001:000262b8       ??1?$c_string_character_source@_W@__crt_strtox@@QAE@XZ 100272b8 f i libucrt:output.obj
 0001:000262c4       ??1?$common_data@D@__crt_stdio_output@@QAE@XZ 100272c4 f i libucrt:output.obj
 0001:000262cc       ??1?$common_data@_W@__crt_stdio_output@@QAE@XZ 100272cc f i libucrt:output.obj
 0001:000262d4       ??1?$format_validation_base@DV?$stream_output_adapter@D@__crt_stdio_output@@@__crt_stdio_output@@QAE@XZ 100272d4 f i libucrt:output.obj
 0001:000262dc       ??1?$format_validation_base@DV?$string_output_adapter@D@__crt_stdio_output@@@__crt_stdio_output@@QAE@XZ 100272dc f i libucrt:output.obj
 0001:000262e4       ??1?$format_validation_base@_WV?$stream_output_adapter@_W@__crt_stdio_output@@@__crt_stdio_output@@QAE@XZ 100272e4 f i libucrt:output.obj
 0001:000262ec       ??1?$format_validation_base@_WV?$string_output_adapter@_W@__crt_stdio_output@@@__crt_stdio_output@@QAE@XZ 100272ec f i libucrt:output.obj
 0001:000262f4       ??1?$output_adapter_data@DV?$stream_output_adapter@D@__crt_stdio_output@@@__crt_stdio_output@@QAE@XZ 100272f4 f i libucrt:output.obj
 0001:000262fc       ??1?$output_adapter_data@DV?$string_output_adapter@D@__crt_stdio_output@@@__crt_stdio_output@@QAE@XZ 100272fc f i libucrt:output.obj
 0001:00026304       ??1?$output_adapter_data@_WV?$stream_output_adapter@_W@__crt_stdio_output@@@__crt_stdio_output@@QAE@XZ 10027304 f i libucrt:output.obj
 0001:0002630c       ??1?$output_adapter_data@_WV?$string_output_adapter@_W@__crt_stdio_output@@@__crt_stdio_output@@QAE@XZ 1002730c f i libucrt:output.obj
 0001:00026314       ??1?$output_processor@DV?$stream_output_adapter@D@__crt_stdio_output@@V?$format_validation_base@DV?$stream_output_adapter@D@__crt_stdio_output@@@2@@__crt_stdio_output@@QAE@XZ 10027314 f i libucrt:output.obj
 0001:0002631c       ??1?$output_processor@DV?$stream_output_adapter@D@__crt_stdio_output@@V?$positional_parameter_base@DV?$stream_output_adapter@D@__crt_stdio_output@@@2@@__crt_stdio_output@@QAE@XZ 1002731c f i libucrt:output.obj
 0001:00026324       ??1?$output_processor@DV?$stream_output_adapter@D@__crt_stdio_output@@V?$standard_base@DV?$stream_output_adapter@D@__crt_stdio_output@@@2@@__crt_stdio_output@@QAE@XZ 10027324 f i libucrt:output.obj
 0001:0002632c       ??1?$output_processor@DV?$string_output_adapter@D@__crt_stdio_output@@V?$format_validation_base@DV?$string_output_adapter@D@__crt_stdio_output@@@2@@__crt_stdio_output@@QAE@XZ 1002732c f i libucrt:output.obj
 0001:00026334       ??1?$output_processor@DV?$string_output_adapter@D@__crt_stdio_output@@V?$positional_parameter_base@DV?$string_output_adapter@D@__crt_stdio_output@@@2@@__crt_stdio_output@@QAE@XZ 10027334 f i libucrt:output.obj
 0001:0002633c       ??1?$output_processor@DV?$string_output_adapter@D@__crt_stdio_output@@V?$standard_base@DV?$string_output_adapter@D@__crt_stdio_output@@@2@@__crt_stdio_output@@QAE@XZ 1002733c f i libucrt:output.obj
 0001:00026344       ??1?$output_processor@_WV?$stream_output_adapter@_W@__crt_stdio_output@@V?$format_validation_base@_WV?$stream_output_adapter@_W@__crt_stdio_output@@@2@@__crt_stdio_output@@QAE@XZ 10027344 f i libucrt:output.obj
 0001:0002634c       ??1?$output_processor@_WV?$stream_output_adapter@_W@__crt_stdio_output@@V?$positional_parameter_base@_WV?$stream_output_adapter@_W@__crt_stdio_output@@@2@@__crt_stdio_output@@QAE@XZ 1002734c f i libucrt:output.obj
 0001:00026354       ??1?$output_processor@_WV?$stream_output_adapter@_W@__crt_stdio_output@@V?$standard_base@_WV?$stream_output_adapter@_W@__crt_stdio_output@@@2@@__crt_stdio_output@@QAE@XZ 10027354 f i libucrt:output.obj
 0001:0002635c       ??1?$output_processor@_WV?$string_output_adapter@_W@__crt_stdio_output@@V?$format_validation_base@_WV?$string_output_adapter@_W@__crt_stdio_output@@@2@@__crt_stdio_output@@QAE@XZ 1002735c f i libucrt:output.obj
 0001:00026364       ??1?$output_processor@_WV?$string_output_adapter@_W@__crt_stdio_output@@V?$positional_parameter_base@_WV?$string_output_adapter@_W@__crt_stdio_output@@@2@@__crt_stdio_output@@QAE@XZ 10027364 f i libucrt:output.obj
 0001:0002636c       ??1?$output_processor@_WV?$string_output_adapter@_W@__crt_stdio_output@@V?$standard_base@_WV?$string_output_adapter@_W@__crt_stdio_output@@@2@@__crt_stdio_output@@QAE@XZ 1002736c f i libucrt:output.obj
 0001:00026374       ??1?$positional_parameter_base@DV?$stream_output_adapter@D@__crt_stdio_output@@@__crt_stdio_output@@QAE@XZ 10027374 f i libucrt:output.obj
 0001:0002637c       ??1?$positional_parameter_base@DV?$string_output_adapter@D@__crt_stdio_output@@@__crt_stdio_output@@QAE@XZ 1002737c f i libucrt:output.obj
 0001:00026384       ??1?$positional_parameter_base@_WV?$stream_output_adapter@_W@__crt_stdio_output@@@__crt_stdio_output@@QAE@XZ 10027384 f i libucrt:output.obj
 0001:0002638c       ??1?$positional_parameter_base@_WV?$string_output_adapter@_W@__crt_stdio_output@@@__crt_stdio_output@@QAE@XZ 1002738c f i libucrt:output.obj
 0001:00026394       ??1?$standard_base@DV?$stream_output_adapter@D@__crt_stdio_output@@@__crt_stdio_output@@QAE@XZ 10027394 f i libucrt:output.obj
 0001:0002639c       ??1?$standard_base@DV?$string_output_adapter@D@__crt_stdio_output@@@__crt_stdio_output@@QAE@XZ 1002739c f i libucrt:output.obj
 0001:000263a4       ??1?$standard_base@_WV?$stream_output_adapter@_W@__crt_stdio_output@@@__crt_stdio_output@@QAE@XZ 100273a4 f i libucrt:output.obj
 0001:000263ac       ??1?$standard_base@_WV?$string_output_adapter@_W@__crt_stdio_output@@@__crt_stdio_output@@QAE@XZ 100273ac f i libucrt:output.obj
 0001:000263b4       ??1__acrt_stdio_temporary_buffering_guard@@QAE@XZ 100273b4 f i libucrt:output.obj
 0001:000263c7       ??1formatting_buffer@__crt_stdio_output@@QAE@XZ 100273c7 f i libucrt:output.obj
 0001:000263e1       ??1guard@?$cached@H@__crt_cached_ptd_host@@QAE@XZ 100273e1 f i libucrt:output.obj
 0001:000263f7       ??4?$__crt_unique_heap_ptr@DU__crt_internal_free_policy@@@@QAEAAV0@$$QAV0@@Z 100273f7 f i libucrt:output.obj
 0001:0002641b       ??A?$spectre_mitigated_lookup_table@Ustate_transition_pair@__crt_stdio_output@@$0IA@@__crt_stdio_output@@QBEABUstate_transition_pair@1@I@Z 1002741b f i libucrt:output.obj
 0001:0002642d       ??C__crt_stdio_stream@@QBEPAU__crt_stdio_stream_data@@XZ 1002742d f i libucrt:output.obj
 0001:00026896       ?adjust_hexit@?$output_processor@DV?$stream_output_adapter@D@__crt_stdio_output@@V?$format_validation_base@DV?$stream_output_adapter@D@__crt_stdio_output@@@2@@__crt_stdio_output@@CADH_N@Z 10027896 f i libucrt:output.obj
 0001:000268aa       ?adjust_hexit@?$output_processor@DV?$stream_output_adapter@D@__crt_stdio_output@@V?$positional_parameter_base@DV?$stream_output_adapter@D@__crt_stdio_output@@@2@@__crt_stdio_output@@CADH_N@Z 100278aa f i libucrt:output.obj
 0001:000268be       ?adjust_hexit@?$output_processor@DV?$stream_output_adapter@D@__crt_stdio_output@@V?$standard_base@DV?$stream_output_adapter@D@__crt_stdio_output@@@2@@__crt_stdio_output@@CADH_N@Z 100278be f i libucrt:output.obj
 0001:000268d2       ?adjust_hexit@?$output_processor@DV?$string_output_adapter@D@__crt_stdio_output@@V?$format_validation_base@DV?$string_output_adapter@D@__crt_stdio_output@@@2@@__crt_stdio_output@@CADH_N@Z 100278d2 f i libucrt:output.obj
 0001:000268e6       ?adjust_hexit@?$output_processor@DV?$string_output_adapter@D@__crt_stdio_output@@V?$positional_parameter_base@DV?$string_output_adapter@D@__crt_stdio_output@@@2@@__crt_stdio_output@@CADH_N@Z 100278e6 f i libucrt:output.obj
 0001:000268fa       ?adjust_hexit@?$output_processor@DV?$string_output_adapter@D@__crt_stdio_output@@V?$standard_base@DV?$string_output_adapter@D@__crt_stdio_output@@@2@@__crt_stdio_output@@CADH_N@Z 100278fa f i libucrt:output.obj
 0001:0002690e       ?adjust_hexit@?$output_processor@_WV?$stream_output_adapter@_W@__crt_stdio_output@@V?$format_validation_base@_WV?$stream_output_adapter@_W@__crt_stdio_output@@@2@@__crt_stdio_output@@CADH_N@Z 1002790e f i libucrt:output.obj
 0001:00026922       ?adjust_hexit@?$output_processor@_WV?$stream_output_adapter@_W@__crt_stdio_output@@V?$positional_parameter_base@_WV?$stream_output_adapter@_W@__crt_stdio_output@@@2@@__crt_stdio_output@@CADH_N@Z 10027922 f i libucrt:output.obj
 0001:00026936       ?adjust_hexit@?$output_processor@_WV?$stream_output_adapter@_W@__crt_stdio_output@@V?$standard_base@_WV?$stream_output_adapter@_W@__crt_stdio_output@@@2@@__crt_stdio_output@@CADH_N@Z 10027936 f i libucrt:output.obj
 0001:0002694a       ?adjust_hexit@?$output_processor@_WV?$string_output_adapter@_W@__crt_stdio_output@@V?$format_validation_base@_WV?$string_output_adapter@_W@__crt_stdio_output@@@2@@__crt_stdio_output@@CADH_N@Z 1002794a f i libucrt:output.obj
 0001:0002695e       ?adjust_hexit@?$output_processor@_WV?$string_output_adapter@_W@__crt_stdio_output@@V?$positional_parameter_base@_WV?$string_output_adapter@_W@__crt_stdio_output@@@2@@__crt_stdio_output@@CADH_N@Z 1002795e f i libucrt:output.obj
 0001:00026972       ?adjust_hexit@?$output_processor@_WV?$string_output_adapter@_W@__crt_stdio_output@@V?$standard_base@_WV?$string_output_adapter@_W@__crt_stdio_output@@@2@@__crt_stdio_output@@CADH_N@Z 10027972 f i libucrt:output.obj
 0001:00026986       ?advance_to_next_pass@?$positional_parameter_base@DV?$stream_output_adapter@D@__crt_stdio_output@@@__crt_stdio_output@@IAE_NXZ 10027986 f i libucrt:output.obj
 0001:000269d4       ?advance_to_next_pass@?$positional_parameter_base@DV?$string_output_adapter@D@__crt_stdio_output@@@__crt_stdio_output@@IAE_NXZ 100279d4 f i libucrt:output.obj
 0001:00026a22       ?advance_to_next_pass@?$positional_parameter_base@_WV?$stream_output_adapter@_W@__crt_stdio_output@@@__crt_stdio_output@@IAE_NXZ 10027a22 f i libucrt:output.obj
 0001:00026a70       ?advance_to_next_pass@?$positional_parameter_base@_WV?$string_output_adapter@_W@__crt_stdio_output@@@__crt_stdio_output@@IAE_NXZ 10027a70 f i libucrt:output.obj
 0001:00026abe       ?advance_to_next_pass@?$standard_base@DV?$stream_output_adapter@D@__crt_stdio_output@@@__crt_stdio_output@@IAE_NXZ 10027abe f i libucrt:output.obj
 0001:00026acf       ?advance_to_next_pass@?$standard_base@DV?$string_output_adapter@D@__crt_stdio_output@@@__crt_stdio_output@@IAE_NXZ 10027acf f i libucrt:output.obj
 0001:00026ae0       ?advance_to_next_pass@?$standard_base@_WV?$stream_output_adapter@_W@__crt_stdio_output@@@__crt_stdio_output@@IAE_NXZ 10027ae0 f i libucrt:output.obj
 0001:00026af1       ?advance_to_next_pass@?$standard_base@_WV?$string_output_adapter@_W@__crt_stdio_output@@@__crt_stdio_output@@IAE_NXZ 10027af1 f i libucrt:output.obj
 0001:00026b02       ?check@?$cached@H@__crt_cached_ptd_host@@QBE_NH@Z 10027b02 f i libucrt:output.obj
 0001:00026b1e       ?create_guard@?$cached@H@__crt_cached_ptd_host@@QAE?AVguard@12@XZ 10027b1e f i libucrt:output.obj
 0001:00026b3b       ?crop_zeroes@__crt_stdio_output@@YAXPADQAU__crt_locale_pointers@@@Z 10027b3b f i libucrt:output.obj
 0001:00026b9b       ?disable@guard@?$cached@H@__crt_cached_ptd_host@@QAEXXZ 10027b9b f i libucrt:output.obj
 0001:00026ba0       ?enable@guard@?$cached@H@__crt_cached_ptd_host@@QAEXXZ 10027ba0 f i libucrt:output.obj
 0001:00026ba5       ?find_next_state@?$output_processor@DV?$stream_output_adapter@D@__crt_stdio_output@@V?$format_validation_base@DV?$stream_output_adapter@D@__crt_stdio_output@@@2@@__crt_stdio_output@@ABE?AW4state@2@DW432@@Z 10027ba5 f i libucrt:output.obj
 0001:00026be2       ?find_next_state@?$output_processor@DV?$stream_output_adapter@D@__crt_stdio_output@@V?$positional_parameter_base@DV?$stream_output_adapter@D@__crt_stdio_output@@@2@@__crt_stdio_output@@ABE?AW4state@2@DW432@@Z 10027be2 f i libucrt:output.obj
 0001:00026c1f       ?find_next_state@?$output_processor@DV?$stream_output_adapter@D@__crt_stdio_output@@V?$standard_base@DV?$stream_output_adapter@D@__crt_stdio_output@@@2@@__crt_stdio_output@@ABE?AW4state@2@DW432@@Z 10027c1f f i libucrt:output.obj
 0001:00026c5a       ?find_next_state@?$output_processor@DV?$string_output_adapter@D@__crt_stdio_output@@V?$format_validation_base@DV?$string_output_adapter@D@__crt_stdio_output@@@2@@__crt_stdio_output@@ABE?AW4state@2@DW432@@Z 10027c5a f i libucrt:output.obj
 0001:00026c97       ?find_next_state@?$output_processor@DV?$string_output_adapter@D@__crt_stdio_output@@V?$positional_parameter_base@DV?$string_output_adapter@D@__crt_stdio_output@@@2@@__crt_stdio_output@@ABE?AW4state@2@DW432@@Z 10027c97 f i libucrt:output.obj
 0001:00026cd4       ?find_next_state@?$output_processor@DV?$string_output_adapter@D@__crt_stdio_output@@V?$standard_base@DV?$string_output_adapter@D@__crt_stdio_output@@@2@@__crt_stdio_output@@ABE?AW4state@2@DW432@@Z 10027cd4 f i libucrt:output.obj
 0001:00026d0f       ?find_next_state@?$output_processor@_WV?$stream_output_adapter@_W@__crt_stdio_output@@V?$format_validation_base@_WV?$stream_output_adapter@_W@__crt_stdio_output@@@2@@__crt_stdio_output@@ABE?AW4state@2@_WW432@@Z 10027d0f f i libucrt:output.obj
 0001:00026d4b       ?find_next_state@?$output_processor@_WV?$stream_output_adapter@_W@__crt_stdio_output@@V?$positional_parameter_base@_WV?$stream_output_adapter@_W@__crt_stdio_output@@@2@@__crt_stdio_output@@ABE?AW4state@2@_WW432@@Z 10027d4b f i libucrt:output.obj
 0001:00026d87       ?find_next_state@?$output_processor@_WV?$stream_output_adapter@_W@__crt_stdio_output@@V?$standard_base@_WV?$stream_output_adapter@_W@__crt_stdio_output@@@2@@__crt_stdio_output@@ABE?AW4state@2@_WW432@@Z 10027d87 f i libucrt:output.obj
 0001:00026dc1       ?find_next_state@?$output_processor@_WV?$string_output_adapter@_W@__crt_stdio_output@@V?$format_validation_base@_WV?$string_output_adapter@_W@__crt_stdio_output@@@2@@__crt_stdio_output@@ABE?AW4state@2@_WW432@@Z 10027dc1 f i libucrt:output.obj
 0001:00026dfd       ?find_next_state@?$output_processor@_WV?$string_output_adapter@_W@__crt_stdio_output@@V?$positional_parameter_base@_WV?$string_output_adapter@_W@__crt_stdio_output@@@2@@__crt_stdio_output@@ABE?AW4state@2@_WW432@@Z 10027dfd f i libucrt:output.obj
 0001:00026e39       ?find_next_state@?$output_processor@_WV?$string_output_adapter@_W@__crt_stdio_output@@V?$standard_base@_WV?$string_output_adapter@_W@__crt_stdio_output@@@2@@__crt_stdio_output@@ABE?AW4state@2@_WW432@@Z 10027e39 f i libucrt:output.obj
 0001:00026e73       ?force_decimal_point@__crt_stdio_output@@YAXPADQAU__crt_locale_pointers@@@Z 10027e73 f i libucrt:output.obj
 0001:00026ecf       ?get@?$c_string_character_source@D@__crt_strtox@@QAEDXZ 10027ecf f i libucrt:output.obj
 0001:00026ed7       ?get@?$c_string_character_source@_W@__crt_strtox@@QAE_WXZ 10027ed7 f i libucrt:output.obj
 0001:00026ee2       ?get_flags@__crt_stdio_stream@@QBEJXZ 10027ee2 f i libucrt:output.obj
 0001:00026ef0       ?get_locale@__crt_cached_ptd_host@@QAEPAU__crt_locale_pointers@@XZ 10027ef0 f i libucrt:output.obj
 0001:00026f05       ?get_parameter_type@?$positional_parameter_base@DV?$stream_output_adapter@D@__crt_stdio_output@@@__crt_stdio_output@@CA?AW4parameter_type@12@F@Z 10027f05 f i libucrt:output.obj
 0001:00026f09       ?get_parameter_type@?$positional_parameter_base@DV?$stream_output_adapter@D@__crt_stdio_output@@@__crt_stdio_output@@CA?AW4parameter_type@12@G@Z 10027f09 f i libucrt:output.obj
 0001:00026f0d       ?get_parameter_type@?$positional_parameter_base@DV?$stream_output_adapter@D@__crt_stdio_output@@@__crt_stdio_output@@CA?AW4parameter_type@12@H@Z 10027f0d f i libucrt:output.obj
 0001:00026f11       ?get_parameter_type@?$positional_parameter_base@DV?$stream_output_adapter@D@__crt_stdio_output@@@__crt_stdio_output@@CA?AW4parameter_type@12@I@Z 10027f11 f i libucrt:output.obj
 0001:00026f15       ?get_parameter_type@?$positional_parameter_base@DV?$stream_output_adapter@D@__crt_stdio_output@@@__crt_stdio_output@@CA?AW4parameter_type@12@U_CRT_DOUBLE@@@Z 10027f15 f i libucrt:output.obj
 0001:00026f19       ?get_parameter_type@?$positional_parameter_base@DV?$stream_output_adapter@D@__crt_stdio_output@@@__crt_stdio_output@@CA?AW4parameter_type@12@_J@Z 10027f19 f i libucrt:output.obj
 0001:00026f1d       ?get_parameter_type@?$positional_parameter_base@DV?$stream_output_adapter@D@__crt_stdio_output@@@__crt_stdio_output@@CA?AW4parameter_type@12@_K@Z 10027f1d f i libucrt:output.obj
 0001:00026f21       ?get_parameter_type@?$positional_parameter_base@DV?$stream_output_adapter@D@__crt_stdio_output@@@__crt_stdio_output@@CA?AW4parameter_type@12@_W@Z 10027f21 f i libucrt:output.obj
 0001:00026f25       ?get_parameter_type@?$positional_parameter_base@DV?$string_output_adapter@D@__crt_stdio_output@@@__crt_stdio_output@@CA?AW4parameter_type@12@F@Z 10027f25 f i libucrt:output.obj
 0001:00026f29       ?get_parameter_type@?$positional_parameter_base@DV?$string_output_adapter@D@__crt_stdio_output@@@__crt_stdio_output@@CA?AW4parameter_type@12@G@Z 10027f29 f i libucrt:output.obj
 0001:00026f2d       ?get_parameter_type@?$positional_parameter_base@DV?$string_output_adapter@D@__crt_stdio_output@@@__crt_stdio_output@@CA?AW4parameter_type@12@H@Z 10027f2d f i libucrt:output.obj
 0001:00026f31       ?get_parameter_type@?$positional_parameter_base@DV?$string_output_adapter@D@__crt_stdio_output@@@__crt_stdio_output@@CA?AW4parameter_type@12@I@Z 10027f31 f i libucrt:output.obj
 0001:00026f35       ?get_parameter_type@?$positional_parameter_base@DV?$string_output_adapter@D@__crt_stdio_output@@@__crt_stdio_output@@CA?AW4parameter_type@12@U_CRT_DOUBLE@@@Z 10027f35 f i libucrt:output.obj
 0001:00026f39       ?get_parameter_type@?$positional_parameter_base@DV?$string_output_adapter@D@__crt_stdio_output@@@__crt_stdio_output@@CA?AW4parameter_type@12@_J@Z 10027f39 f i libucrt:output.obj
 0001:00026f3d       ?get_parameter_type@?$positional_parameter_base@DV?$string_output_adapter@D@__crt_stdio_output@@@__crt_stdio_output@@CA?AW4parameter_type@12@_K@Z 10027f3d f i libucrt:output.obj
 0001:00026f41       ?get_parameter_type@?$positional_parameter_base@DV?$string_output_adapter@D@__crt_stdio_output@@@__crt_stdio_output@@CA?AW4parameter_type@12@_W@Z 10027f41 f i libucrt:output.obj
 0001:00026f45       ?get_parameter_type@?$positional_parameter_base@_WV?$stream_output_adapter@_W@__crt_stdio_output@@@__crt_stdio_output@@CA?AW4parameter_type@12@F@Z 10027f45 f i libucrt:output.obj
 0001:00026f49       ?get_parameter_type@?$positional_parameter_base@_WV?$stream_output_adapter@_W@__crt_stdio_output@@@__crt_stdio_output@@CA?AW4parameter_type@12@G@Z 10027f49 f i libucrt:output.obj
 0001:00026f4d       ?get_parameter_type@?$positional_parameter_base@_WV?$stream_output_adapter@_W@__crt_stdio_output@@@__crt_stdio_output@@CA?AW4parameter_type@12@H@Z 10027f4d f i libucrt:output.obj
 0001:00026f51       ?get_parameter_type@?$positional_parameter_base@_WV?$stream_output_adapter@_W@__crt_stdio_output@@@__crt_stdio_output@@CA?AW4parameter_type@12@I@Z 10027f51 f i libucrt:output.obj
 0001:00026f55       ?get_parameter_type@?$positional_parameter_base@_WV?$stream_output_adapter@_W@__crt_stdio_output@@@__crt_stdio_output@@CA?AW4parameter_type@12@U_CRT_DOUBLE@@@Z 10027f55 f i libucrt:output.obj
 0001:00026f59       ?get_parameter_type@?$positional_parameter_base@_WV?$stream_output_adapter@_W@__crt_stdio_output@@@__crt_stdio_output@@CA?AW4parameter_type@12@_J@Z 10027f59 f i libucrt:output.obj
 0001:00026f5d       ?get_parameter_type@?$positional_parameter_base@_WV?$stream_output_adapter@_W@__crt_stdio_output@@@__crt_stdio_output@@CA?AW4parameter_type@12@_K@Z 10027f5d f i libucrt:output.obj
 0001:00026f61       ?get_parameter_type@?$positional_parameter_base@_WV?$stream_output_adapter@_W@__crt_stdio_output@@@__crt_stdio_output@@CA?AW4parameter_type@12@_W@Z 10027f61 f i libucrt:output.obj
 0001:00026f65       ?get_parameter_type@?$positional_parameter_base@_WV?$string_output_adapter@_W@__crt_stdio_output@@@__crt_stdio_output@@CA?AW4parameter_type@12@F@Z 10027f65 f i libucrt:output.obj
 0001:00026f69       ?get_parameter_type@?$positional_parameter_base@_WV?$string_output_adapter@_W@__crt_stdio_output@@@__crt_stdio_output@@CA?AW4parameter_type@12@G@Z 10027f69 f i libucrt:output.obj
 0001:00026f6d       ?get_parameter_type@?$positional_parameter_base@_WV?$string_output_adapter@_W@__crt_stdio_output@@@__crt_stdio_output@@CA?AW4parameter_type@12@H@Z 10027f6d f i libucrt:output.obj
 0001:00026f71       ?get_parameter_type@?$positional_parameter_base@_WV?$string_output_adapter@_W@__crt_stdio_output@@@__crt_stdio_output@@CA?AW4parameter_type@12@I@Z 10027f71 f i libucrt:output.obj
 0001:00026f75       ?get_parameter_type@?$positional_parameter_base@_WV?$string_output_adapter@_W@__crt_stdio_output@@@__crt_stdio_output@@CA?AW4parameter_type@12@U_CRT_DOUBLE@@@Z 10027f75 f i libucrt:output.obj
 0001:00026f79       ?get_parameter_type@?$positional_parameter_base@_WV?$string_output_adapter@_W@__crt_stdio_output@@@__crt_stdio_output@@CA?AW4parameter_type@12@_J@Z 10027f79 f i libucrt:output.obj
 0001:00026f7d       ?get_parameter_type@?$positional_parameter_base@_WV?$string_output_adapter@_W@__crt_stdio_output@@@__crt_stdio_output@@CA?AW4parameter_type@12@_K@Z 10027f7d f i libucrt:output.obj
 0001:00026f81       ?get_parameter_type@?$positional_parameter_base@_WV?$string_output_adapter@_W@__crt_stdio_output@@@__crt_stdio_output@@CA?AW4parameter_type@12@_W@Z 10027f81 f i libucrt:output.obj
 0001:00026f85       ?has_flag@?$output_processor@DV?$stream_output_adapter@D@__crt_stdio_output@@V?$format_validation_base@DV?$stream_output_adapter@D@__crt_stdio_output@@@2@@__crt_stdio_output@@ABE_NI@Z 10027f85 f i libucrt:output.obj
 0001:00026f97       ?has_flag@?$output_processor@DV?$stream_output_adapter@D@__crt_stdio_output@@V?$positional_parameter_base@DV?$stream_output_adapter@D@__crt_stdio_output@@@2@@__crt_stdio_output@@ABE_NI@Z 10027f97 f i libucrt:output.obj
 0001:00026fa9       ?has_flag@?$output_processor@DV?$stream_output_adapter@D@__crt_stdio_output@@V?$standard_base@DV?$stream_output_adapter@D@__crt_stdio_output@@@2@@__crt_stdio_output@@ABE_NI@Z 10027fa9 f i libucrt:output.obj
 0001:00026fbb       ?has_flag@?$output_processor@DV?$string_output_adapter@D@__crt_stdio_output@@V?$format_validation_base@DV?$string_output_adapter@D@__crt_stdio_output@@@2@@__crt_stdio_output@@ABE_NI@Z 10027fbb f i libucrt:output.obj
 0001:00026fcd       ?has_flag@?$output_processor@DV?$string_output_adapter@D@__crt_stdio_output@@V?$positional_parameter_base@DV?$string_output_adapter@D@__crt_stdio_output@@@2@@__crt_stdio_output@@ABE_NI@Z 10027fcd f i libucrt:output.obj
 0001:00026fdf       ?has_flag@?$output_processor@DV?$string_output_adapter@D@__crt_stdio_output@@V?$standard_base@DV?$string_output_adapter@D@__crt_stdio_output@@@2@@__crt_stdio_output@@ABE_NI@Z 10027fdf f i libucrt:output.obj
 0001:00026ff1       ?has_flag@?$output_processor@_WV?$stream_output_adapter@_W@__crt_stdio_output@@V?$format_validation_base@_WV?$stream_output_adapter@_W@__crt_stdio_output@@@2@@__crt_stdio_output@@ABE_NI@Z 10027ff1 f i libucrt:output.obj
 0001:00027003       ?has_flag@?$output_processor@_WV?$stream_output_adapter@_W@__crt_stdio_output@@V?$positional_parameter_base@_WV?$stream_output_adapter@_W@__crt_stdio_output@@@2@@__crt_stdio_output@@ABE_NI@Z 10028003 f i libucrt:output.obj
 0001:00027015       ?has_flag@?$output_processor@_WV?$stream_output_adapter@_W@__crt_stdio_output@@V?$standard_base@_WV?$stream_output_adapter@_W@__crt_stdio_output@@@2@@__crt_stdio_output@@ABE_NI@Z 10028015 f i libucrt:output.obj
 0001:00027027       ?has_flag@?$output_processor@_WV?$string_output_adapter@_W@__crt_stdio_output@@V?$format_validation_base@_WV?$string_output_adapter@_W@__crt_stdio_output@@@2@@__crt_stdio_output@@ABE_NI@Z 10028027 f i libucrt:output.obj
 0001:00027039       ?has_flag@?$output_processor@_WV?$string_output_adapter@_W@__crt_stdio_output@@V?$positional_parameter_base@_WV?$string_output_adapter@_W@__crt_stdio_output@@@2@@__crt_stdio_output@@ABE_NI@Z 10028039 f i libucrt:output.obj
 0001:0002704b       ?has_flag@?$output_processor@_WV?$string_output_adapter@_W@__crt_stdio_output@@V?$standard_base@_WV?$string_output_adapter@_W@__crt_stdio_output@@@2@@__crt_stdio_output@@ABE_NI@Z 1002804b f i libucrt:output.obj
 0001:0002705d       ?is_positional_parameter_reappearance_consistent@?$positional_parameter_base@DV?$stream_output_adapter@D@__crt_stdio_output@@@__crt_stdio_output@@AAE_NABUparameter_data@12@W4parameter_type@12@DW4length_modifier@2@@Z 1002805d f i libucrt:output.obj
 0001:00027177       ?is_positional_parameter_reappearance_consistent@?$positional_parameter_base@DV?$string_output_adapter@D@__crt_stdio_output@@@__crt_stdio_output@@AAE_NABUparameter_data@12@W4parameter_type@12@DW4length_modifier@2@@Z 10028177 f i libucrt:output.obj
 0001:00027291       ?is_positional_parameter_reappearance_consistent@?$positional_parameter_base@_WV?$stream_output_adapter@_W@__crt_stdio_output@@@__crt_stdio_output@@AAE_NABUparameter_data@12@W4parameter_type@12@_WW4length_modifier@2@@Z 10028291 f i libucrt:output.obj
 0001:000273ac       ?is_positional_parameter_reappearance_consistent@?$positional_parameter_base@_WV?$string_output_adapter@_W@__crt_stdio_output@@@__crt_stdio_output@@AAE_NABUparameter_data@12@W4parameter_type@12@_WW4length_modifier@2@@Z 100283ac f i libucrt:output.obj
 0001:000274c7       ?is_string_backed@__crt_stdio_stream@@QBE_NXZ 100284c7 f i libucrt:output.obj
 0001:000274d3       ?maximum_signed_value@__crt_strtox@@YAJK@Z 100284d3 f i libucrt:output.obj
 0001:000274d9       ?minimum_signed_value@__crt_strtox@@YAJK@Z 100284d9 f i libucrt:output.obj
 0001:000274df       ?narrow_null_string@?$output_processor@DV?$stream_output_adapter@D@__crt_stdio_output@@V?$format_validation_base@DV?$stream_output_adapter@D@__crt_stdio_output@@@2@@__crt_stdio_output@@CAPADXZ 100284df f i libucrt:output.obj
 0001:000274e5       ?narrow_null_string@?$output_processor@DV?$stream_output_adapter@D@__crt_stdio_output@@V?$positional_parameter_base@DV?$stream_output_adapter@D@__crt_stdio_output@@@2@@__crt_stdio_output@@CAPADXZ 100284e5 f i libucrt:output.obj
 0001:000274eb       ?narrow_null_string@?$output_processor@DV?$stream_output_adapter@D@__crt_stdio_output@@V?$standard_base@DV?$stream_output_adapter@D@__crt_stdio_output@@@2@@__crt_stdio_output@@CAPADXZ 100284eb f i libucrt:output.obj
 0001:000274f1       ?narrow_null_string@?$output_processor@DV?$string_output_adapter@D@__crt_stdio_output@@V?$format_validation_base@DV?$string_output_adapter@D@__crt_stdio_output@@@2@@__crt_stdio_output@@CAPADXZ 100284f1 f i libucrt:output.obj
 0001:000274f7       ?narrow_null_string@?$output_processor@DV?$string_output_adapter@D@__crt_stdio_output@@V?$positional_parameter_base@DV?$string_output_adapter@D@__crt_stdio_output@@@2@@__crt_stdio_output@@CAPADXZ 100284f7 f i libucrt:output.obj
 0001:000274fd       ?narrow_null_string@?$output_processor@DV?$string_output_adapter@D@__crt_stdio_output@@V?$standard_base@DV?$string_output_adapter@D@__crt_stdio_output@@@2@@__crt_stdio_output@@CAPADXZ 100284fd f i libucrt:output.obj
 0001:00027503       ?narrow_null_string@?$output_processor@_WV?$stream_output_adapter@_W@__crt_stdio_output@@V?$format_validation_base@_WV?$stream_output_adapter@_W@__crt_stdio_output@@@2@@__crt_stdio_output@@CAPADXZ 10028503 f i libucrt:output.obj
 0001:00027509       ?narrow_null_string@?$output_processor@_WV?$stream_output_adapter@_W@__crt_stdio_output@@V?$positional_parameter_base@_WV?$stream_output_adapter@_W@__crt_stdio_output@@@2@@__crt_stdio_output@@CAPADXZ 10028509 f i libucrt:output.obj
 0001:0002750f       ?narrow_null_string@?$output_processor@_WV?$stream_output_adapter@_W@__crt_stdio_output@@V?$standard_base@_WV?$stream_output_adapter@_W@__crt_stdio_output@@@2@@__crt_stdio_output@@CAPADXZ 1002850f f i libucrt:output.obj
 0001:00027515       ?narrow_null_string@?$output_processor@_WV?$string_output_adapter@_W@__crt_stdio_output@@V?$format_validation_base@_WV?$string_output_adapter@_W@__crt_stdio_output@@@2@@__crt_stdio_output@@CAPADXZ 10028515 f i libucrt:output.obj
 0001:0002751b       ?narrow_null_string@?$output_processor@_WV?$string_output_adapter@_W@__crt_stdio_output@@V?$positional_parameter_base@_WV?$string_output_adapter@_W@__crt_stdio_output@@@2@@__crt_stdio_output@@CAPADXZ 1002851b f i libucrt:output.obj
 0001:00027521       ?narrow_null_string@?$output_processor@_WV?$string_output_adapter@_W@__crt_stdio_output@@V?$standard_base@_WV?$string_output_adapter@_W@__crt_stdio_output@@@2@@__crt_stdio_output@@CAPADXZ 10028521 f i libucrt:output.obj
 0001:00027527       ?parse_digit@__crt_strtox@@YAID@Z 10028527 f i libucrt:output.obj
 0001:00027561       ?parse_digit@__crt_strtox@@YAI_W@Z 10028561 f i libucrt:output.obj
 0001:00027729       ?parse_int_from_format_string@?$output_processor@DV?$stream_output_adapter@D@__crt_stdio_output@@V?$format_validation_base@DV?$stream_output_adapter@D@__crt_stdio_output@@@2@@__crt_stdio_output@@AAE_NQAH@Z 10028729 f i libucrt:output.obj
 0001:000277a1       ?parse_int_from_format_string@?$output_processor@DV?$stream_output_adapter@D@__crt_stdio_output@@V?$positional_parameter_base@DV?$stream_output_adapter@D@__crt_stdio_output@@@2@@__crt_stdio_output@@AAE_NQAH@Z 100287a1 f i libucrt:output.obj
 0001:00027819       ?parse_int_from_format_string@?$output_processor@DV?$stream_output_adapter@D@__crt_stdio_output@@V?$standard_base@DV?$stream_output_adapter@D@__crt_stdio_output@@@2@@__crt_stdio_output@@AAE_NQAH@Z 10028819 f i libucrt:output.obj
 0001:00027891       ?parse_int_from_format_string@?$output_processor@DV?$string_output_adapter@D@__crt_stdio_output@@V?$format_validation_base@DV?$string_output_adapter@D@__crt_stdio_output@@@2@@__crt_stdio_output@@AAE_NQAH@Z 10028891 f i libucrt:output.obj
 0001:00027909       ?parse_int_from_format_string@?$output_processor@DV?$string_output_adapter@D@__crt_stdio_output@@V?$positional_parameter_base@DV?$string_output_adapter@D@__crt_stdio_output@@@2@@__crt_stdio_output@@AAE_NQAH@Z 10028909 f i libucrt:output.obj
 0001:00027981       ?parse_int_from_format_string@?$output_processor@DV?$string_output_adapter@D@__crt_stdio_output@@V?$standard_base@DV?$string_output_adapter@D@__crt_stdio_output@@@2@@__crt_stdio_output@@AAE_NQAH@Z 10028981 f i libucrt:output.obj
 0001:000279f9       ?parse_int_from_format_string@?$output_processor@_WV?$stream_output_adapter@_W@__crt_stdio_output@@V?$format_validation_base@_WV?$stream_output_adapter@_W@__crt_stdio_output@@@2@@__crt_stdio_output@@AAE_NQAH@Z 100289f9 f i libucrt:output.obj
 0001:00027a73       ?parse_int_from_format_string@?$output_processor@_WV?$stream_output_adapter@_W@__crt_stdio_output@@V?$positional_parameter_base@_WV?$stream_output_adapter@_W@__crt_stdio_output@@@2@@__crt_stdio_output@@AAE_NQAH@Z 10028a73 f i libucrt:output.obj
 0001:00027aed       ?parse_int_from_format_string@?$output_processor@_WV?$stream_output_adapter@_W@__crt_stdio_output@@V?$standard_base@_WV?$stream_output_adapter@_W@__crt_stdio_output@@@2@@__crt_stdio_output@@AAE_NQAH@Z 10028aed f i libucrt:output.obj
 0001:00027b67       ?parse_int_from_format_string@?$output_processor@_WV?$string_output_adapter@_W@__crt_stdio_output@@V?$format_validation_base@_WV?$string_output_adapter@_W@__crt_stdio_output@@@2@@__crt_stdio_output@@AAE_NQAH@Z 10028b67 f i libucrt:output.obj
 0001:00027be1       ?parse_int_from_format_string@?$output_processor@_WV?$string_output_adapter@_W@__crt_stdio_output@@V?$positional_parameter_base@_WV?$string_output_adapter@_W@__crt_stdio_output@@@2@@__crt_stdio_output@@AAE_NQAH@Z 10028be1 f i libucrt:output.obj
 0001:00027c5b       ?parse_int_from_format_string@?$output_processor@_WV?$string_output_adapter@_W@__crt_stdio_output@@V?$standard_base@_WV?$string_output_adapter@_W@__crt_stdio_output@@@2@@__crt_stdio_output@@AAE_NQAH@Z 10028c5b f i libucrt:output.obj
 0001:00027cd5       ?process@?$output_processor@DV?$stream_output_adapter@D@__crt_stdio_output@@V?$format_validation_base@DV?$stream_output_adapter@D@__crt_stdio_output@@@2@@__crt_stdio_output@@QAEHXZ 10028cd5 f i libucrt:output.obj
 0001:00027f95       ?process@?$output_processor@DV?$stream_output_adapter@D@__crt_stdio_output@@V?$positional_parameter_base@DV?$stream_output_adapter@D@__crt_stdio_output@@@2@@__crt_stdio_output@@QAEHXZ 10028f95 f i libucrt:output.obj
 0001:00028269       ?process@?$output_processor@DV?$stream_output_adapter@D@__crt_stdio_output@@V?$standard_base@DV?$stream_output_adapter@D@__crt_stdio_output@@@2@@__crt_stdio_output@@QAEHXZ 10029269 f i libucrt:output.obj
 0001:00028519       ?process@?$output_processor@DV?$string_output_adapter@D@__crt_stdio_output@@V?$format_validation_base@DV?$string_output_adapter@D@__crt_stdio_output@@@2@@__crt_stdio_output@@QAEHXZ 10029519 f i libucrt:output.obj
 0001:000287fd       ?process@?$output_processor@DV?$string_output_adapter@D@__crt_stdio_output@@V?$positional_parameter_base@DV?$string_output_adapter@D@__crt_stdio_output@@@2@@__crt_stdio_output@@QAEHXZ 100297fd f i libucrt:output.obj
 0001:00028afd       ?process@?$output_processor@DV?$string_output_adapter@D@__crt_stdio_output@@V?$standard_base@DV?$string_output_adapter@D@__crt_stdio_output@@@2@@__crt_stdio_output@@QAEHXZ 10029afd f i libucrt:output.obj
 0001:00028dd1       ?process@?$output_processor@_WV?$stream_output_adapter@_W@__crt_stdio_output@@V?$format_validation_base@_WV?$stream_output_adapter@_W@__crt_stdio_output@@@2@@__crt_stdio_output@@QAEHXZ 10029dd1 f i libucrt:output.obj
 0001:00028fed       ?process@?$output_processor@_WV?$stream_output_adapter@_W@__crt_stdio_output@@V?$positional_parameter_base@_WV?$stream_output_adapter@_W@__crt_stdio_output@@@2@@__crt_stdio_output@@QAEHXZ 10029fed f i libucrt:output.obj
 0001:00029241       ?process@?$output_processor@_WV?$stream_output_adapter@_W@__crt_stdio_output@@V?$standard_base@_WV?$stream_output_adapter@_W@__crt_stdio_output@@@2@@__crt_stdio_output@@QAEHXZ 1002a241 f i libucrt:output.obj
 0001:00029451       ?process@?$output_processor@_WV?$string_output_adapter@_W@__crt_stdio_output@@V?$format_validation_base@_WV?$string_output_adapter@_W@__crt_stdio_output@@@2@@__crt_stdio_output@@QAEHXZ 1002a451 f i libucrt:output.obj
 0001:00029691       ?process@?$output_processor@_WV?$string_output_adapter@_W@__crt_stdio_output@@V?$positional_parameter_base@_WV?$string_output_adapter@_W@__crt_stdio_output@@@2@@__crt_stdio_output@@QAEHXZ 1002a691 f i libucrt:output.obj
 0001:000298f9       ?process@?$output_processor@_WV?$string_output_adapter@_W@__crt_stdio_output@@V?$standard_base@_WV?$string_output_adapter@_W@__crt_stdio_output@@@2@@__crt_stdio_output@@QAEHXZ 1002a8f9 f i libucrt:output.obj
 0001:00029b35       ?public_stream@__crt_stdio_stream@@QBEPAU_iobuf@@XZ 1002ab35 f i libucrt:output.obj
 0001:00029b38       ?restore_state@?$c_string_character_source@D@__crt_strtox@@QAE_NQBD@Z 1002ab38 f i libucrt:output.obj
 0001:00029b48       ?restore_state@?$c_string_character_source@_W@__crt_strtox@@QAE_NQB_W@Z 1002ab48 f i libucrt:output.obj
 0001:00029b58       ?save_state@?$c_string_character_source@D@__crt_strtox@@QBEPBDXZ 1002ab58 f i libucrt:output.obj
 0001:00029b5b       ?save_state@?$c_string_character_source@_W@__crt_strtox@@QBEPB_WXZ 1002ab5b f i libucrt:output.obj
 0001:00029b5e       ?set_flag@?$output_processor@DV?$stream_output_adapter@D@__crt_stdio_output@@V?$format_validation_base@DV?$stream_output_adapter@D@__crt_stdio_output@@@2@@__crt_stdio_output@@AAEXI@Z 1002ab5e f i libucrt:output.obj
 0001:00029b6d       ?set_flag@?$output_processor@DV?$stream_output_adapter@D@__crt_stdio_output@@V?$positional_parameter_base@DV?$stream_output_adapter@D@__crt_stdio_output@@@2@@__crt_stdio_output@@AAEXI@Z 1002ab6d f i libucrt:output.obj
 0001:00029b7c       ?set_flag@?$output_processor@DV?$stream_output_adapter@D@__crt_stdio_output@@V?$standard_base@DV?$stream_output_adapter@D@__crt_stdio_output@@@2@@__crt_stdio_output@@AAEXI@Z 1002ab7c f i libucrt:output.obj
 0001:00029b8b       ?set_flag@?$output_processor@DV?$string_output_adapter@D@__crt_stdio_output@@V?$format_validation_base@DV?$string_output_adapter@D@__crt_stdio_output@@@2@@__crt_stdio_output@@AAEXI@Z 1002ab8b f i libucrt:output.obj
 0001:00029b9a       ?set_flag@?$output_processor@DV?$string_output_adapter@D@__crt_stdio_output@@V?$positional_parameter_base@DV?$string_output_adapter@D@__crt_stdio_output@@@2@@__crt_stdio_output@@AAEXI@Z 1002ab9a f i libucrt:output.obj
 0001:00029ba9       ?set_flag@?$output_processor@DV?$string_output_adapter@D@__crt_stdio_output@@V?$standard_base@DV?$string_output_adapter@D@__crt_stdio_output@@@2@@__crt_stdio_output@@AAEXI@Z 1002aba9 f i libucrt:output.obj
 0001:00029bb8       ?set_flag@?$output_processor@_WV?$stream_output_adapter@_W@__crt_stdio_output@@V?$format_validation_base@_WV?$stream_output_adapter@_W@__crt_stdio_output@@@2@@__crt_stdio_output@@AAEXI@Z 1002abb8 f i libucrt:output.obj
 0001:00029bc7       ?set_flag@?$output_processor@_WV?$stream_output_adapter@_W@__crt_stdio_output@@V?$positional_parameter_base@_WV?$stream_output_adapter@_W@__crt_stdio_output@@@2@@__crt_stdio_output@@AAEXI@Z 1002abc7 f i libucrt:output.obj
 0001:00029bd6       ?set_flag@?$output_processor@_WV?$stream_output_adapter@_W@__crt_stdio_output@@V?$standard_base@_WV?$stream_output_adapter@_W@__crt_stdio_output@@@2@@__crt_stdio_output@@AAEXI@Z 1002abd6 f i libucrt:output.obj
 0001:00029be5       ?set_flag@?$output_processor@_WV?$string_output_adapter@_W@__crt_stdio_output@@V?$format_validation_base@_WV?$string_output_adapter@_W@__crt_stdio_output@@@2@@__crt_stdio_output@@AAEXI@Z 1002abe5 f i libucrt:output.obj
 0001:00029bf4       ?set_flag@?$output_processor@_WV?$string_output_adapter@_W@__crt_stdio_output@@V?$positional_parameter_base@_WV?$string_output_adapter@_W@__crt_stdio_output@@@2@@__crt_stdio_output@@AAEXI@Z 1002abf4 f i libucrt:output.obj
 0001:00029c03       ?set_flag@?$output_processor@_WV?$string_output_adapter@_W@__crt_stdio_output@@V?$standard_base@_WV?$string_output_adapter@_W@__crt_stdio_output@@@2@@__crt_stdio_output@@AAEXI@Z 1002ac03 f i libucrt:output.obj
 0001:00029c12       ?should_format@?$positional_parameter_base@DV?$stream_output_adapter@D@__crt_stdio_output@@@__crt_stdio_output@@IAE_NXZ 1002ac12 f i libucrt:output.obj
 0001:00029c28       ?should_format@?$positional_parameter_base@DV?$string_output_adapter@D@__crt_stdio_output@@@__crt_stdio_output@@IAE_NXZ 1002ac28 f i libucrt:output.obj
 0001:00029c3e       ?should_format@?$positional_parameter_base@_WV?$stream_output_adapter@_W@__crt_stdio_output@@@__crt_stdio_output@@IAE_NXZ 1002ac3e f i libucrt:output.obj
 0001:00029c54       ?should_format@?$positional_parameter_base@_WV?$string_output_adapter@_W@__crt_stdio_output@@@__crt_stdio_output@@IAE_NXZ 1002ac54 f i libucrt:output.obj
 0001:00029c6a       ?should_format@?$standard_base@DV?$stream_output_adapter@D@__crt_stdio_output@@@__crt_stdio_output@@IAE_NXZ 1002ac6a f i libucrt:output.obj
 0001:00029c6d       ?should_format@?$standard_base@DV?$string_output_adapter@D@__crt_stdio_output@@@__crt_stdio_output@@IAE_NXZ 1002ac6d f i libucrt:output.obj
 0001:00029c70       ?should_format@?$standard_base@_WV?$stream_output_adapter@_W@__crt_stdio_output@@@__crt_stdio_output@@IAE_NXZ 1002ac70 f i libucrt:output.obj
 0001:00029c73       ?should_format@?$standard_base@_WV?$string_output_adapter@_W@__crt_stdio_output@@@__crt_stdio_output@@IAE_NXZ 1002ac73 f i libucrt:output.obj
 0001:00029c76       ?should_skip_normal_state_processing@?$positional_parameter_base@DV?$stream_output_adapter@D@__crt_stdio_output@@@__crt_stdio_output@@IAE_NXZ 1002ac76 f i libucrt:output.obj
 0001:00029ca0       ?should_skip_normal_state_processing@?$positional_parameter_base@DV?$string_output_adapter@D@__crt_stdio_output@@@__crt_stdio_output@@IAE_NXZ 1002aca0 f i libucrt:output.obj
 0001:00029cca       ?should_skip_normal_state_processing@?$positional_parameter_base@_WV?$stream_output_adapter@_W@__crt_stdio_output@@@__crt_stdio_output@@IAE_NXZ 1002acca f i libucrt:output.obj
 0001:00029cf4       ?should_skip_normal_state_processing@?$positional_parameter_base@_WV?$string_output_adapter@_W@__crt_stdio_output@@@__crt_stdio_output@@IAE_NXZ 1002acf4 f i libucrt:output.obj
 0001:00029d1e       ?should_skip_normal_state_processing@?$standard_base@DV?$stream_output_adapter@D@__crt_stdio_output@@@__crt_stdio_output@@IAE_NXZ 1002ad1e f i libucrt:output.obj
 0001:00029d21       ?should_skip_normal_state_processing@?$standard_base@DV?$string_output_adapter@D@__crt_stdio_output@@@__crt_stdio_output@@IAE_NXZ 1002ad21 f i libucrt:output.obj
 0001:00029d24       ?should_skip_normal_state_processing@?$standard_base@_WV?$stream_output_adapter@_W@__crt_stdio_output@@@__crt_stdio_output@@IAE_NXZ 1002ad24 f i libucrt:output.obj
 0001:00029d27       ?should_skip_normal_state_processing@?$standard_base@_WV?$string_output_adapter@_W@__crt_stdio_output@@@__crt_stdio_output@@IAE_NXZ 1002ad27 f i libucrt:output.obj
 0001:00029d2a       ?should_skip_type_state_output@?$positional_parameter_base@DV?$stream_output_adapter@D@__crt_stdio_output@@@__crt_stdio_output@@IBE_NXZ 1002ad2a f i libucrt:output.obj
 0001:00029d41       ?should_skip_type_state_output@?$positional_parameter_base@DV?$string_output_adapter@D@__crt_stdio_output@@@__crt_stdio_output@@IBE_NXZ 1002ad41 f i libucrt:output.obj
 0001:00029d58       ?should_skip_type_state_output@?$positional_parameter_base@_WV?$stream_output_adapter@_W@__crt_stdio_output@@@__crt_stdio_output@@IBE_NXZ 1002ad58 f i libucrt:output.obj
 0001:00029d6f       ?should_skip_type_state_output@?$positional_parameter_base@_WV?$string_output_adapter@_W@__crt_stdio_output@@@__crt_stdio_output@@IBE_NXZ 1002ad6f f i libucrt:output.obj
 0001:00029d86       ?should_skip_type_state_output@?$standard_base@DV?$stream_output_adapter@D@__crt_stdio_output@@@__crt_stdio_output@@IBE_NXZ 1002ad86 f i libucrt:output.obj
 0001:00029d89       ?should_skip_type_state_output@?$standard_base@DV?$string_output_adapter@D@__crt_stdio_output@@@__crt_stdio_output@@IBE_NXZ 1002ad89 f i libucrt:output.obj
 0001:00029d8c       ?should_skip_type_state_output@?$standard_base@_WV?$stream_output_adapter@_W@__crt_stdio_output@@@__crt_stdio_output@@IBE_NXZ 1002ad8c f i libucrt:output.obj
 0001:00029d8f       ?should_skip_type_state_output@?$standard_base@_WV?$string_output_adapter@_W@__crt_stdio_output@@@__crt_stdio_output@@IBE_NXZ 1002ad8f f i libucrt:output.obj
 0001:00029d92       ?state_case_dot@?$output_processor@DV?$stream_output_adapter@D@__crt_stdio_output@@V?$format_validation_base@DV?$stream_output_adapter@D@__crt_stdio_output@@@2@@__crt_stdio_output@@AAE_NXZ 1002ad92 f i libucrt:output.obj
 0001:00029d99       ?state_case_dot@?$output_processor@DV?$stream_output_adapter@D@__crt_stdio_output@@V?$positional_parameter_base@DV?$stream_output_adapter@D@__crt_stdio_output@@@2@@__crt_stdio_output@@AAE_NXZ 1002ad99 f i libucrt:output.obj
 0001:00029da0       ?state_case_dot@?$output_processor@DV?$stream_output_adapter@D@__crt_stdio_output@@V?$standard_base@DV?$stream_output_adapter@D@__crt_stdio_output@@@2@@__crt_stdio_output@@AAE_NXZ 1002ada0 f i libucrt:output.obj
 0001:00029da7       ?state_case_dot@?$output_processor@DV?$string_output_adapter@D@__crt_stdio_output@@V?$format_validation_base@DV?$string_output_adapter@D@__crt_stdio_output@@@2@@__crt_stdio_output@@AAE_NXZ 1002ada7 f i libucrt:output.obj
 0001:00029dae       ?state_case_dot@?$output_processor@DV?$string_output_adapter@D@__crt_stdio_output@@V?$positional_parameter_base@DV?$string_output_adapter@D@__crt_stdio_output@@@2@@__crt_stdio_output@@AAE_NXZ 1002adae f i libucrt:output.obj
 0001:00029db5       ?state_case_dot@?$output_processor@DV?$string_output_adapter@D@__crt_stdio_output@@V?$standard_base@DV?$string_output_adapter@D@__crt_stdio_output@@@2@@__crt_stdio_output@@AAE_NXZ 1002adb5 f i libucrt:output.obj
 0001:00029dbc       ?state_case_dot@?$output_processor@_WV?$stream_output_adapter@_W@__crt_stdio_output@@V?$format_validation_base@_WV?$stream_output_adapter@_W@__crt_stdio_output@@@2@@__crt_stdio_output@@AAE_NXZ 1002adbc f i libucrt:output.obj
 0001:00029dc3       ?state_case_dot@?$output_processor@_WV?$stream_output_adapter@_W@__crt_stdio_output@@V?$positional_parameter_base@_WV?$stream_output_adapter@_W@__crt_stdio_output@@@2@@__crt_stdio_output@@AAE_NXZ 1002adc3 f i libucrt:output.obj
 0001:00029dca       ?state_case_dot@?$output_processor@_WV?$stream_output_adapter@_W@__crt_stdio_output@@V?$standard_base@_WV?$stream_output_adapter@_W@__crt_stdio_output@@@2@@__crt_stdio_output@@AAE_NXZ 1002adca f i libucrt:output.obj
 0001:00029dd1       ?state_case_dot@?$output_processor@_WV?$string_output_adapter@_W@__crt_stdio_output@@V?$format_validation_base@_WV?$string_output_adapter@_W@__crt_stdio_output@@@2@@__crt_stdio_output@@AAE_NXZ 1002add1 f i libucrt:output.obj
 0001:00029dd8       ?state_case_dot@?$output_processor@_WV?$string_output_adapter@_W@__crt_stdio_output@@V?$positional_parameter_base@_WV?$string_output_adapter@_W@__crt_stdio_output@@@2@@__crt_stdio_output@@AAE_NXZ 1002add8 f i libucrt:output.obj
 0001:00029ddf       ?state_case_dot@?$output_processor@_WV?$string_output_adapter@_W@__crt_stdio_output@@V?$standard_base@_WV?$string_output_adapter@_W@__crt_stdio_output@@@2@@__crt_stdio_output@@AAE_NXZ 1002addf f i libucrt:output.obj
 0001:00029de6       ?state_case_flag@?$output_processor@DV?$stream_output_adapter@D@__crt_stdio_output@@V?$format_validation_base@DV?$stream_output_adapter@D@__crt_stdio_output@@@2@@__crt_stdio_output@@AAE_NXZ 1002ade6 f i libucrt:output.obj
 0001:00029e23       ?state_case_flag@?$output_processor@DV?$stream_output_adapter@D@__crt_stdio_output@@V?$positional_parameter_base@DV?$stream_output_adapter@D@__crt_stdio_output@@@2@@__crt_stdio_output@@AAE_NXZ 1002ae23 f i libucrt:output.obj
 0001:00029e60       ?state_case_flag@?$output_processor@DV?$stream_output_adapter@D@__crt_stdio_output@@V?$standard_base@DV?$stream_output_adapter@D@__crt_stdio_output@@@2@@__crt_stdio_output@@AAE_NXZ 1002ae60 f i libucrt:output.obj
 0001:00029e9d       ?state_case_flag@?$output_processor@DV?$string_output_adapter@D@__crt_stdio_output@@V?$format_validation_base@DV?$string_output_adapter@D@__crt_stdio_output@@@2@@__crt_stdio_output@@AAE_NXZ 1002ae9d f i libucrt:output.obj
 0001:00029eda       ?state_case_flag@?$output_processor@DV?$string_output_adapter@D@__crt_stdio_output@@V?$positional_parameter_base@DV?$string_output_adapter@D@__crt_stdio_output@@@2@@__crt_stdio_output@@AAE_NXZ 1002aeda f i libucrt:output.obj
 0001:00029f17       ?state_case_flag@?$output_processor@DV?$string_output_adapter@D@__crt_stdio_output@@V?$standard_base@DV?$string_output_adapter@D@__crt_stdio_output@@@2@@__crt_stdio_output@@AAE_NXZ 1002af17 f i libucrt:output.obj
 0001:00029f54       ?state_case_flag@?$output_processor@_WV?$stream_output_adapter@_W@__crt_stdio_output@@V?$format_validation_base@_WV?$stream_output_adapter@_W@__crt_stdio_output@@@2@@__crt_stdio_output@@AAE_NXZ 1002af54 f i libucrt:output.obj
 0001:00029f91       ?state_case_flag@?$output_processor@_WV?$stream_output_adapter@_W@__crt_stdio_output@@V?$positional_parameter_base@_WV?$stream_output_adapter@_W@__crt_stdio_output@@@2@@__crt_stdio_output@@AAE_NXZ 1002af91 f i libucrt:output.obj
 0001:00029fce       ?state_case_flag@?$output_processor@_WV?$stream_output_adapter@_W@__crt_stdio_output@@V?$standard_base@_WV?$stream_output_adapter@_W@__crt_stdio_output@@@2@@__crt_stdio_output@@AAE_NXZ 1002afce f i libucrt:output.obj
 0001:0002a00b       ?state_case_flag@?$output_processor@_WV?$string_output_adapter@_W@__crt_stdio_output@@V?$format_validation_base@_WV?$string_output_adapter@_W@__crt_stdio_output@@@2@@__crt_stdio_output@@AAE_NXZ 1002b00b f i libucrt:output.obj
 0001:0002a048       ?state_case_flag@?$output_processor@_WV?$string_output_adapter@_W@__crt_stdio_output@@V?$positional_parameter_base@_WV?$string_output_adapter@_W@__crt_stdio_output@@@2@@__crt_stdio_output@@AAE_NXZ 1002b048 f i libucrt:output.obj
 0001:0002a085       ?state_case_flag@?$output_processor@_WV?$string_output_adapter@_W@__crt_stdio_output@@V?$standard_base@_WV?$string_output_adapter@_W@__crt_stdio_output@@@2@@__crt_stdio_output@@AAE_NXZ 1002b085 f i libucrt:output.obj
 0001:0002a0c2       ?state_case_normal@?$output_processor@DV?$stream_output_adapter@D@__crt_stdio_output@@V?$format_validation_base@DV?$stream_output_adapter@D@__crt_stdio_output@@@2@@__crt_stdio_output@@AAE_NXZ 1002b0c2 f i libucrt:output.obj
 0001:0002a17f       ?state_case_normal@?$output_processor@DV?$stream_output_adapter@D@__crt_stdio_output@@V?$positional_parameter_base@DV?$stream_output_adapter@D@__crt_stdio_output@@@2@@__crt_stdio_output@@AAE_NXZ 1002b17f f i libucrt:output.obj
 0001:0002a247       ?state_case_normal@?$output_processor@DV?$stream_output_adapter@D@__crt_stdio_output@@V?$standard_base@DV?$stream_output_adapter@D@__crt_stdio_output@@@2@@__crt_stdio_output@@AAE_NXZ 1002b247 f i libucrt:output.obj
 0001:0002a304       ?state_case_normal@?$output_processor@DV?$string_output_adapter@D@__crt_stdio_output@@V?$format_validation_base@DV?$string_output_adapter@D@__crt_stdio_output@@@2@@__crt_stdio_output@@AAE_NXZ 1002b304 f i libucrt:output.obj
 0001:0002a400       ?state_case_normal@?$output_processor@DV?$string_output_adapter@D@__crt_stdio_output@@V?$positional_parameter_base@DV?$string_output_adapter@D@__crt_stdio_output@@@2@@__crt_stdio_output@@AAE_NXZ 1002b400 f i libucrt:output.obj
 0001:0002a507       ?state_case_normal@?$output_processor@DV?$string_output_adapter@D@__crt_stdio_output@@V?$standard_base@DV?$string_output_adapter@D@__crt_stdio_output@@@2@@__crt_stdio_output@@AAE_NXZ 1002b507 f i libucrt:output.obj
 0001:0002a603       ?state_case_normal@?$output_processor@_WV?$stream_output_adapter@_W@__crt_stdio_output@@V?$format_validation_base@_WV?$stream_output_adapter@_W@__crt_stdio_output@@@2@@__crt_stdio_output@@AAE_NXZ 1002b603 f i libucrt:output.obj
 0001:0002a621       ?state_case_normal@?$output_processor@_WV?$stream_output_adapter@_W@__crt_stdio_output@@V?$positional_parameter_base@_WV?$stream_output_adapter@_W@__crt_stdio_output@@@2@@__crt_stdio_output@@AAE_NXZ 1002b621 f i libucrt:output.obj
 0001:0002a64e       ?state_case_normal@?$output_processor@_WV?$stream_output_adapter@_W@__crt_stdio_output@@V?$standard_base@_WV?$stream_output_adapter@_W@__crt_stdio_output@@@2@@__crt_stdio_output@@AAE_NXZ 1002b64e f i libucrt:output.obj
 0001:0002a66c       ?state_case_normal@?$output_processor@_WV?$string_output_adapter@_W@__crt_stdio_output@@V?$format_validation_base@_WV?$string_output_adapter@_W@__crt_stdio_output@@@2@@__crt_stdio_output@@AAE_NXZ 1002b66c f i libucrt:output.obj
 0001:0002a6b4       ?state_case_normal@?$output_processor@_WV?$string_output_adapter@_W@__crt_stdio_output@@V?$positional_parameter_base@_WV?$string_output_adapter@_W@__crt_stdio_output@@@2@@__crt_stdio_output@@AAE_NXZ 1002b6b4 f i libucrt:output.obj
 0001:0002a707       ?state_case_normal@?$output_processor@_WV?$string_output_adapter@_W@__crt_stdio_output@@V?$standard_base@_WV?$string_output_adapter@_W@__crt_stdio_output@@@2@@__crt_stdio_output@@AAE_NXZ 1002b707 f i libucrt:output.obj
 0001:0002a74f       ?state_case_normal_common@?$output_processor@DV?$stream_output_adapter@D@__crt_stdio_output@@V?$format_validation_base@DV?$stream_output_adapter@D@__crt_stdio_output@@@2@@__crt_stdio_output@@AAE_NXZ 1002b74f f i libucrt:output.obj
 0001:0002a7e7       ?state_case_normal_common@?$output_processor@DV?$stream_output_adapter@D@__crt_stdio_output@@V?$positional_parameter_base@DV?$stream_output_adapter@D@__crt_stdio_output@@@2@@__crt_stdio_output@@AAE_NXZ 1002b7e7 f i libucrt:output.obj
 0001:0002a87f       ?state_case_normal_common@?$output_processor@DV?$stream_output_adapter@D@__crt_stdio_output@@V?$standard_base@DV?$stream_output_adapter@D@__crt_stdio_output@@@2@@__crt_stdio_output@@AAE_NXZ 1002b87f f i libucrt:output.obj
 0001:0002a917       ?state_case_normal_common@?$output_processor@DV?$string_output_adapter@D@__crt_stdio_output@@V?$format_validation_base@DV?$string_output_adapter@D@__crt_stdio_output@@@2@@__crt_stdio_output@@AAE_NXZ 1002b917 f i libucrt:output.obj
 0001:0002a9f7       ?state_case_normal_common@?$output_processor@DV?$string_output_adapter@D@__crt_stdio_output@@V?$positional_parameter_base@DV?$string_output_adapter@D@__crt_stdio_output@@@2@@__crt_stdio_output@@AAE_NXZ 1002b9f7 f i libucrt:output.obj
 0001:0002aad7       ?state_case_normal_common@?$output_processor@DV?$string_output_adapter@D@__crt_stdio_output@@V?$standard_base@DV?$string_output_adapter@D@__crt_stdio_output@@@2@@__crt_stdio_output@@AAE_NXZ 1002bad7 f i libucrt:output.obj
 0001:0002abb7       ?state_case_normal_common@?$output_processor@_WV?$stream_output_adapter@_W@__crt_stdio_output@@V?$format_validation_base@_WV?$stream_output_adapter@_W@__crt_stdio_output@@@2@@__crt_stdio_output@@AAE_NXZ 1002bbb7 f i libucrt:output.obj
 0001:0002abd5       ?state_case_normal_common@?$output_processor@_WV?$stream_output_adapter@_W@__crt_stdio_output@@V?$positional_parameter_base@_WV?$stream_output_adapter@_W@__crt_stdio_output@@@2@@__crt_stdio_output@@AAE_NXZ 1002bbd5 f i libucrt:output.obj
 0001:0002abf3       ?state_case_normal_common@?$output_processor@_WV?$stream_output_adapter@_W@__crt_stdio_output@@V?$standard_base@_WV?$stream_output_adapter@_W@__crt_stdio_output@@@2@@__crt_stdio_output@@AAE_NXZ 1002bbf3 f i libucrt:output.obj
 0001:0002ac11       ?state_case_normal_common@?$output_processor@_WV?$string_output_adapter@_W@__crt_stdio_output@@V?$format_validation_base@_WV?$string_output_adapter@_W@__crt_stdio_output@@@2@@__crt_stdio_output@@AAE_NXZ 1002bc11 f i libucrt:output.obj
 0001:0002ac59       ?state_case_normal_common@?$output_processor@_WV?$string_output_adapter@_W@__crt_stdio_output@@V?$positional_parameter_base@_WV?$string_output_adapter@_W@__crt_stdio_output@@@2@@__crt_stdio_output@@AAE_NXZ 1002bc59 f i libucrt:output.obj
 0001:0002aca1       ?state_case_normal_common@?$output_processor@_WV?$string_output_adapter@_W@__crt_stdio_output@@V?$standard_base@_WV?$string_output_adapter@_W@__crt_stdio_output@@@2@@__crt_stdio_output@@AAE_NXZ 1002bca1 f i libucrt:output.obj
 0001:0002ace9       ?state_case_normal_tchar@?$output_processor@DV?$stream_output_adapter@D@__crt_stdio_output@@V?$format_validation_base@DV?$stream_output_adapter@D@__crt_stdio_output@@@2@@__crt_stdio_output@@AAE_ND@Z 1002bce9 f i libucrt:output.obj
 0001:0002ad70       ?state_case_normal_tchar@?$output_processor@DV?$stream_output_adapter@D@__crt_stdio_output@@V?$positional_parameter_base@DV?$stream_output_adapter@D@__crt_stdio_output@@@2@@__crt_stdio_output@@AAE_ND@Z 1002bd70 f i libucrt:output.obj
 0001:0002adf7       ?state_case_normal_tchar@?$output_processor@DV?$stream_output_adapter@D@__crt_stdio_output@@V?$standard_base@DV?$stream_output_adapter@D@__crt_stdio_output@@@2@@__crt_stdio_output@@AAE_ND@Z 1002bdf7 f i libucrt:output.obj
 0001:0002ae7e       ?state_case_normal_tchar@?$output_processor@DV?$string_output_adapter@D@__crt_stdio_output@@V?$format_validation_base@DV?$string_output_adapter@D@__crt_stdio_output@@@2@@__crt_stdio_output@@AAE_ND@Z 1002be7e f i libucrt:output.obj
 0001:0002af29       ?state_case_normal_tchar@?$output_processor@DV?$string_output_adapter@D@__crt_stdio_output@@V?$positional_parameter_base@DV?$string_output_adapter@D@__crt_stdio_output@@@2@@__crt_stdio_output@@AAE_ND@Z 1002bf29 f i libucrt:output.obj
 0001:0002afd4       ?state_case_normal_tchar@?$output_processor@DV?$string_output_adapter@D@__crt_stdio_output@@V?$standard_base@DV?$string_output_adapter@D@__crt_stdio_output@@@2@@__crt_stdio_output@@AAE_ND@Z 1002bfd4 f i libucrt:output.obj
 0001:0002b07f       ?state_case_normal_tchar@?$output_processor@_WV?$stream_output_adapter@_W@__crt_stdio_output@@V?$format_validation_base@_WV?$stream_output_adapter@_W@__crt_stdio_output@@@2@@__crt_stdio_output@@AAE_N_W@Z 1002c07f f i libucrt:output.obj
 0001:0002b088       ?state_case_normal_tchar@?$output_processor@_WV?$stream_output_adapter@_W@__crt_stdio_output@@V?$positional_parameter_base@_WV?$stream_output_adapter@_W@__crt_stdio_output@@@2@@__crt_stdio_output@@AAE_N_W@Z 1002c088 f i libucrt:output.obj
 0001:0002b091       ?state_case_normal_tchar@?$output_processor@_WV?$stream_output_adapter@_W@__crt_stdio_output@@V?$standard_base@_WV?$stream_output_adapter@_W@__crt_stdio_output@@@2@@__crt_stdio_output@@AAE_N_W@Z 1002c091 f i libucrt:output.obj
 0001:0002b09a       ?state_case_normal_tchar@?$output_processor@_WV?$string_output_adapter@_W@__crt_stdio_output@@V?$format_validation_base@_WV?$string_output_adapter@_W@__crt_stdio_output@@@2@@__crt_stdio_output@@AAE_N_W@Z 1002c09a f i libucrt:output.obj
 0001:0002b0a3       ?state_case_normal_tchar@?$output_processor@_WV?$string_output_adapter@_W@__crt_stdio_output@@V?$positional_parameter_base@_WV?$string_output_adapter@_W@__crt_stdio_output@@@2@@__crt_stdio_output@@AAE_N_W@Z 1002c0a3 f i libucrt:output.obj
 0001:0002b0ac       ?state_case_normal_tchar@?$output_processor@_WV?$string_output_adapter@_W@__crt_stdio_output@@V?$standard_base@_WV?$string_output_adapter@_W@__crt_stdio_output@@@2@@__crt_stdio_output@@AAE_N_W@Z 1002c0ac f i libucrt:output.obj
 0001:0002b0b5       ?state_case_percent@?$output_processor@DV?$stream_output_adapter@D@__crt_stdio_output@@V?$format_validation_base@DV?$stream_output_adapter@D@__crt_stdio_output@@@2@@__crt_stdio_output@@AAE_NXZ 1002c0b5 f i libucrt:output.obj
 0001:0002b0cd       ?state_case_percent@?$output_processor@DV?$stream_output_adapter@D@__crt_stdio_output@@V?$positional_parameter_base@DV?$stream_output_adapter@D@__crt_stdio_output@@@2@@__crt_stdio_output@@AAE_NXZ 1002c0cd f i libucrt:output.obj
 0001:0002b0e5       ?state_case_percent@?$output_processor@DV?$stream_output_adapter@D@__crt_stdio_output@@V?$standard_base@DV?$stream_output_adapter@D@__crt_stdio_output@@@2@@__crt_stdio_output@@AAE_NXZ 1002c0e5 f i libucrt:output.obj
 0001:0002b0fd       ?state_case_percent@?$output_processor@DV?$string_output_adapter@D@__crt_stdio_output@@V?$format_validation_base@DV?$string_output_adapter@D@__crt_stdio_output@@@2@@__crt_stdio_output@@AAE_NXZ 1002c0fd f i libucrt:output.obj
 0001:0002b115       ?state_case_percent@?$output_processor@DV?$string_output_adapter@D@__crt_stdio_output@@V?$positional_parameter_base@DV?$string_output_adapter@D@__crt_stdio_output@@@2@@__crt_stdio_output@@AAE_NXZ 1002c115 f i libucrt:output.obj
 0001:0002b12d       ?state_case_percent@?$output_processor@DV?$string_output_adapter@D@__crt_stdio_output@@V?$standard_base@DV?$string_output_adapter@D@__crt_stdio_output@@@2@@__crt_stdio_output@@AAE_NXZ 1002c12d f i libucrt:output.obj
 0001:0002b145       ?state_case_percent@?$output_processor@_WV?$stream_output_adapter@_W@__crt_stdio_output@@V?$format_validation_base@_WV?$stream_output_adapter@_W@__crt_stdio_output@@@2@@__crt_stdio_output@@AAE_NXZ 1002c145 f i libucrt:output.obj
 0001:0002b15d       ?state_case_percent@?$output_processor@_WV?$stream_output_adapter@_W@__crt_stdio_output@@V?$positional_parameter_base@_WV?$stream_output_adapter@_W@__crt_stdio_output@@@2@@__crt_stdio_output@@AAE_NXZ 1002c15d f i libucrt:output.obj
 0001:0002b175       ?state_case_percent@?$output_processor@_WV?$stream_output_adapter@_W@__crt_stdio_output@@V?$standard_base@_WV?$stream_output_adapter@_W@__crt_stdio_output@@@2@@__crt_stdio_output@@AAE_NXZ 1002c175 f i libucrt:output.obj
 0001:0002b18d       ?state_case_percent@?$output_processor@_WV?$string_output_adapter@_W@__crt_stdio_output@@V?$format_validation_base@_WV?$string_output_adapter@_W@__crt_stdio_output@@@2@@__crt_stdio_output@@AAE_NXZ 1002c18d f i libucrt:output.obj
 0001:0002b1a5       ?state_case_percent@?$output_processor@_WV?$string_output_adapter@_W@__crt_stdio_output@@V?$positional_parameter_base@_WV?$string_output_adapter@_W@__crt_stdio_output@@@2@@__crt_stdio_output@@AAE_NXZ 1002c1a5 f i libucrt:output.obj
 0001:0002b1bd       ?state_case_percent@?$output_processor@_WV?$string_output_adapter@_W@__crt_stdio_output@@V?$standard_base@_WV?$string_output_adapter@_W@__crt_stdio_output@@@2@@__crt_stdio_output@@AAE_NXZ 1002c1bd f i libucrt:output.obj
 0001:0002b1d5       ?state_case_precision@?$output_processor@DV?$stream_output_adapter@D@__crt_stdio_output@@V?$format_validation_base@DV?$stream_output_adapter@D@__crt_stdio_output@@@2@@__crt_stdio_output@@AAE_NXZ 1002c1d5 f i libucrt:output.obj
 0001:0002b201       ?state_case_precision@?$output_processor@DV?$stream_output_adapter@D@__crt_stdio_output@@V?$positional_parameter_base@DV?$stream_output_adapter@D@__crt_stdio_output@@@2@@__crt_stdio_output@@AAE_NXZ 1002c201 f i libucrt:output.obj
 0001:0002b23b       ?state_case_precision@?$output_processor@DV?$stream_output_adapter@D@__crt_stdio_output@@V?$standard_base@DV?$stream_output_adapter@D@__crt_stdio_output@@@2@@__crt_stdio_output@@AAE_NXZ 1002c23b f i libucrt:output.obj
 0001:0002b267       ?state_case_precision@?$output_processor@DV?$string_output_adapter@D@__crt_stdio_output@@V?$format_validation_base@DV?$string_output_adapter@D@__crt_stdio_output@@@2@@__crt_stdio_output@@AAE_NXZ 1002c267 f i libucrt:output.obj
 0001:0002b293       ?state_case_precision@?$output_processor@DV?$string_output_adapter@D@__crt_stdio_output@@V?$positional_parameter_base@DV?$string_output_adapter@D@__crt_stdio_output@@@2@@__crt_stdio_output@@AAE_NXZ 1002c293 f i libucrt:output.obj
 0001:0002b2cd       ?state_case_precision@?$output_processor@DV?$string_output_adapter@D@__crt_stdio_output@@V?$standard_base@DV?$string_output_adapter@D@__crt_stdio_output@@@2@@__crt_stdio_output@@AAE_NXZ 1002c2cd f i libucrt:output.obj
 0001:0002b2f9       ?state_case_precision@?$output_processor@_WV?$stream_output_adapter@_W@__crt_stdio_output@@V?$format_validation_base@_WV?$stream_output_adapter@_W@__crt_stdio_output@@@2@@__crt_stdio_output@@AAE_NXZ 1002c2f9 f i libucrt:output.obj
 0001:0002b326       ?state_case_precision@?$output_processor@_WV?$stream_output_adapter@_W@__crt_stdio_output@@V?$positional_parameter_base@_WV?$stream_output_adapter@_W@__crt_stdio_output@@@2@@__crt_stdio_output@@AAE_NXZ 1002c326 f i libucrt:output.obj
 0001:0002b361       ?state_case_precision@?$output_processor@_WV?$stream_output_adapter@_W@__crt_stdio_output@@V?$standard_base@_WV?$stream_output_adapter@_W@__crt_stdio_output@@@2@@__crt_stdio_output@@AAE_NXZ 1002c361 f i libucrt:output.obj
 0001:0002b38e       ?state_case_precision@?$output_processor@_WV?$string_output_adapter@_W@__crt_stdio_output@@V?$format_validation_base@_WV?$string_output_adapter@_W@__crt_stdio_output@@@2@@__crt_stdio_output@@AAE_NXZ 1002c38e f i libucrt:output.obj
 0001:0002b3bb       ?state_case_precision@?$output_processor@_WV?$string_output_adapter@_W@__crt_stdio_output@@V?$positional_parameter_base@_WV?$string_output_adapter@_W@__crt_stdio_output@@@2@@__crt_stdio_output@@AAE_NXZ 1002c3bb f i libucrt:output.obj
 0001:0002b3f6       ?state_case_precision@?$output_processor@_WV?$string_output_adapter@_W@__crt_stdio_output@@V?$standard_base@_WV?$string_output_adapter@_W@__crt_stdio_output@@@2@@__crt_stdio_output@@AAE_NXZ 1002c3f6 f i libucrt:output.obj
 0001:0002b423       ?state_case_size@?$output_processor@DV?$stream_output_adapter@D@__crt_stdio_output@@V?$format_validation_base@DV?$stream_output_adapter@D@__crt_stdio_output@@@2@@__crt_stdio_output@@AAE_NXZ 1002c423 f i libucrt:output.obj
 0001:0002b57c       ?state_case_size@?$output_processor@DV?$stream_output_adapter@D@__crt_stdio_output@@V?$positional_parameter_base@DV?$stream_output_adapter@D@__crt_stdio_output@@@2@@__crt_stdio_output@@AAE_NXZ 1002c57c f i libucrt:output.obj
 0001:0002b6d5       ?state_case_size@?$output_processor@DV?$stream_output_adapter@D@__crt_stdio_output@@V?$standard_base@DV?$stream_output_adapter@D@__crt_stdio_output@@@2@@__crt_stdio_output@@AAE_NXZ 1002c6d5 f i libucrt:output.obj
 0001:0002b82e       ?state_case_size@?$output_processor@DV?$string_output_adapter@D@__crt_stdio_output@@V?$format_validation_base@DV?$string_output_adapter@D@__crt_stdio_output@@@2@@__crt_stdio_output@@AAE_NXZ 1002c82e f i libucrt:output.obj
 0001:0002b987       ?state_case_size@?$output_processor@DV?$string_output_adapter@D@__crt_stdio_output@@V?$positional_parameter_base@DV?$string_output_adapter@D@__crt_stdio_output@@@2@@__crt_stdio_output@@AAE_NXZ 1002c987 f i libucrt:output.obj
 0001:0002bae0       ?state_case_size@?$output_processor@DV?$string_output_adapter@D@__crt_stdio_output@@V?$standard_base@DV?$string_output_adapter@D@__crt_stdio_output@@@2@@__crt_stdio_output@@AAE_NXZ 1002cae0 f i libucrt:output.obj
 0001:0002bc39       ?state_case_size@?$output_processor@_WV?$stream_output_adapter@_W@__crt_stdio_output@@V?$format_validation_base@_WV?$stream_output_adapter@_W@__crt_stdio_output@@@2@@__crt_stdio_output@@AAE_NXZ 1002cc39 f i libucrt:output.obj
 0001:0002bdc3       ?state_case_size@?$output_processor@_WV?$stream_output_adapter@_W@__crt_stdio_output@@V?$positional_parameter_base@_WV?$stream_output_adapter@_W@__crt_stdio_output@@@2@@__crt_stdio_output@@AAE_NXZ 1002cdc3 f i libucrt:output.obj
 0001:0002bf4d       ?state_case_size@?$output_processor@_WV?$stream_output_adapter@_W@__crt_stdio_output@@V?$standard_base@_WV?$stream_output_adapter@_W@__crt_stdio_output@@@2@@__crt_stdio_output@@AAE_NXZ 1002cf4d f i libucrt:output.obj
 0001:0002c0d7       ?state_case_size@?$output_processor@_WV?$string_output_adapter@_W@__crt_stdio_output@@V?$format_validation_base@_WV?$string_output_adapter@_W@__crt_stdio_output@@@2@@__crt_stdio_output@@AAE_NXZ 1002d0d7 f i libucrt:output.obj
 0001:0002c261       ?state_case_size@?$output_processor@_WV?$string_output_adapter@_W@__crt_stdio_output@@V?$positional_parameter_base@_WV?$string_output_adapter@_W@__crt_stdio_output@@@2@@__crt_stdio_output@@AAE_NXZ 1002d261 f i libucrt:output.obj
 0001:0002c3eb       ?state_case_size@?$output_processor@_WV?$string_output_adapter@_W@__crt_stdio_output@@V?$standard_base@_WV?$string_output_adapter@_W@__crt_stdio_output@@@2@@__crt_stdio_output@@AAE_NXZ 1002d3eb f i libucrt:output.obj
 0001:0002c575       ?state_case_type@?$output_processor@DV?$stream_output_adapter@D@__crt_stdio_output@@V?$format_validation_base@DV?$stream_output_adapter@D@__crt_stdio_output@@@2@@__crt_stdio_output@@AAE_NXZ 1002d575 f i libucrt:output.obj
 0001:0002c8b7       ?state_case_type@?$output_processor@DV?$stream_output_adapter@D@__crt_stdio_output@@V?$positional_parameter_base@DV?$stream_output_adapter@D@__crt_stdio_output@@@2@@__crt_stdio_output@@AAE_NXZ 1002d8b7 f i libucrt:output.obj
 0001:0002cc08       ?state_case_type@?$output_processor@DV?$stream_output_adapter@D@__crt_stdio_output@@V?$standard_base@DV?$stream_output_adapter@D@__crt_stdio_output@@@2@@__crt_stdio_output@@AAE_NXZ 1002dc08 f i libucrt:output.obj
 0001:0002cf4a       ?state_case_type@?$output_processor@DV?$string_output_adapter@D@__crt_stdio_output@@V?$format_validation_base@DV?$string_output_adapter@D@__crt_stdio_output@@@2@@__crt_stdio_output@@AAE_NXZ 1002df4a f i libucrt:output.obj
 0001:0002d2a9       ?state_case_type@?$output_processor@DV?$string_output_adapter@D@__crt_stdio_output@@V?$positional_parameter_base@DV?$string_output_adapter@D@__crt_stdio_output@@@2@@__crt_stdio_output@@AAE_NXZ 1002e2a9 f i libucrt:output.obj
 0001:0002d617       ?state_case_type@?$output_processor@DV?$string_output_adapter@D@__crt_stdio_output@@V?$standard_base@DV?$string_output_adapter@D@__crt_stdio_output@@@2@@__crt_stdio_output@@AAE_NXZ 1002e617 f i libucrt:output.obj
 0001:0002d976       ?state_case_type@?$output_processor@_WV?$stream_output_adapter@_W@__crt_stdio_output@@V?$format_validation_base@_WV?$stream_output_adapter@_W@__crt_stdio_output@@@2@@__crt_stdio_output@@AAE_NXZ 1002e976 f i libucrt:output.obj
 0001:0002dcd4       ?state_case_type@?$output_processor@_WV?$stream_output_adapter@_W@__crt_stdio_output@@V?$positional_parameter_base@_WV?$stream_output_adapter@_W@__crt_stdio_output@@@2@@__crt_stdio_output@@AAE_NXZ 1002ecd4 f i libucrt:output.obj
 0001:0002e041       ?state_case_type@?$output_processor@_WV?$stream_output_adapter@_W@__crt_stdio_output@@V?$standard_base@_WV?$stream_output_adapter@_W@__crt_stdio_output@@@2@@__crt_stdio_output@@AAE_NXZ 1002f041 f i libucrt:output.obj
 0001:0002e39f       ?state_case_type@?$output_processor@_WV?$string_output_adapter@_W@__crt_stdio_output@@V?$format_validation_base@_WV?$string_output_adapter@_W@__crt_stdio_output@@@2@@__crt_stdio_output@@AAE_NXZ 1002f39f f i libucrt:output.obj
 0001:0002e793       ?state_case_type@?$output_processor@_WV?$string_output_adapter@_W@__crt_stdio_output@@V?$positional_parameter_base@_WV?$string_output_adapter@_W@__crt_stdio_output@@@2@@__crt_stdio_output@@AAE_NXZ 1002f793 f i libucrt:output.obj
 0001:0002eb96       ?state_case_type@?$output_processor@_WV?$string_output_adapter@_W@__crt_stdio_output@@V?$standard_base@_WV?$string_output_adapter@_W@__crt_stdio_output@@@2@@__crt_stdio_output@@AAE_NXZ 1002fb96 f i libucrt:output.obj
 0001:0002ef8a       ?state_case_width@?$output_processor@DV?$stream_output_adapter@D@__crt_stdio_output@@V?$format_validation_base@DV?$stream_output_adapter@D@__crt_stdio_output@@@2@@__crt_stdio_output@@AAE_NXZ 1002ff8a f i libucrt:output.obj
 0001:0002efbb       ?state_case_width@?$output_processor@DV?$stream_output_adapter@D@__crt_stdio_output@@V?$positional_parameter_base@DV?$stream_output_adapter@D@__crt_stdio_output@@@2@@__crt_stdio_output@@AAE_NXZ 1002ffbb f i libucrt:output.obj
 0001:0002effb       ?state_case_width@?$output_processor@DV?$stream_output_adapter@D@__crt_stdio_output@@V?$standard_base@DV?$stream_output_adapter@D@__crt_stdio_output@@@2@@__crt_stdio_output@@AAE_NXZ 1002fffb f i libucrt:output.obj
 0001:0002f02c       ?state_case_width@?$output_processor@DV?$string_output_adapter@D@__crt_stdio_output@@V?$format_validation_base@DV?$string_output_adapter@D@__crt_stdio_output@@@2@@__crt_stdio_output@@AAE_NXZ 1003002c f i libucrt:output.obj
 0001:0002f05d       ?state_case_width@?$output_processor@DV?$string_output_adapter@D@__crt_stdio_output@@V?$positional_parameter_base@DV?$string_output_adapter@D@__crt_stdio_output@@@2@@__crt_stdio_output@@AAE_NXZ 1003005d f i libucrt:output.obj
 0001:0002f09d       ?state_case_width@?$output_processor@DV?$string_output_adapter@D@__crt_stdio_output@@V?$standard_base@DV?$string_output_adapter@D@__crt_stdio_output@@@2@@__crt_stdio_output@@AAE_NXZ 1003009d f i libucrt:output.obj
 0001:0002f0ce       ?state_case_width@?$output_processor@_WV?$stream_output_adapter@_W@__crt_stdio_output@@V?$format_validation_base@_WV?$stream_output_adapter@_W@__crt_stdio_output@@@2@@__crt_stdio_output@@AAE_NXZ 100300ce f i libucrt:output.obj
 0001:0002f100       ?state_case_width@?$output_processor@_WV?$stream_output_adapter@_W@__crt_stdio_output@@V?$positional_parameter_base@_WV?$stream_output_adapter@_W@__crt_stdio_output@@@2@@__crt_stdio_output@@AAE_NXZ 10030100 f i libucrt:output.obj
 0001:0002f141       ?state_case_width@?$output_processor@_WV?$stream_output_adapter@_W@__crt_stdio_output@@V?$standard_base@_WV?$stream_output_adapter@_W@__crt_stdio_output@@@2@@__crt_stdio_output@@AAE_NXZ 10030141 f i libucrt:output.obj
 0001:0002f173       ?state_case_width@?$output_processor@_WV?$string_output_adapter@_W@__crt_stdio_output@@V?$format_validation_base@_WV?$string_output_adapter@_W@__crt_stdio_output@@@2@@__crt_stdio_output@@AAE_NXZ 10030173 f i libucrt:output.obj
 0001:0002f1a5       ?state_case_width@?$output_processor@_WV?$string_output_adapter@_W@__crt_stdio_output@@V?$positional_parameter_base@_WV?$string_output_adapter@_W@__crt_stdio_output@@@2@@__crt_stdio_output@@AAE_NXZ 100301a5 f i libucrt:output.obj
 0001:0002f1e6       ?state_case_width@?$output_processor@_WV?$string_output_adapter@_W@__crt_stdio_output@@V?$standard_base@_WV?$string_output_adapter@_W@__crt_stdio_output@@@2@@__crt_stdio_output@@AAE_NXZ 100301e6 f i libucrt:output.obj
 0001:0002f218       ?state_count@?$format_validation_base@DV?$stream_output_adapter@D@__crt_stdio_output@@@__crt_stdio_output@@KAIXZ 10030218 f i libucrt:output.obj
 0001:0002f21c       ?state_count@?$format_validation_base@DV?$string_output_adapter@D@__crt_stdio_output@@@__crt_stdio_output@@KAIXZ 1003021c f i libucrt:output.obj
 0001:0002f220       ?state_count@?$format_validation_base@_WV?$stream_output_adapter@_W@__crt_stdio_output@@@__crt_stdio_output@@KAIXZ 10030220 f i libucrt:output.obj
 0001:0002f224       ?state_count@?$format_validation_base@_WV?$string_output_adapter@_W@__crt_stdio_output@@@__crt_stdio_output@@KAIXZ 10030224 f i libucrt:output.obj
 0001:0002f228       ?state_count@?$standard_base@DV?$stream_output_adapter@D@__crt_stdio_output@@@__crt_stdio_output@@KAIXZ 10030228 f i libucrt:output.obj
 0001:0002f22c       ?state_count@?$standard_base@DV?$string_output_adapter@D@__crt_stdio_output@@@__crt_stdio_output@@KAIXZ 1003022c f i libucrt:output.obj
 0001:0002f230       ?state_count@?$standard_base@_WV?$stream_output_adapter@_W@__crt_stdio_output@@@__crt_stdio_output@@KAIXZ 10030230 f i libucrt:output.obj
 0001:0002f234       ?state_count@?$standard_base@_WV?$string_output_adapter@_W@__crt_stdio_output@@@__crt_stdio_output@@KAIXZ 10030234 f i libucrt:output.obj
 0001:0002f238       ?state_transition_table@?$format_validation_base@DV?$stream_output_adapter@D@__crt_stdio_output@@@__crt_stdio_output@@KAABV?$spectre_mitigated_lookup_table@Ustate_transition_pair@__crt_stdio_output@@$0IA@@2@XZ 10030238 f i libucrt:output.obj
 0001:0002f23e       ?state_transition_table@?$format_validation_base@DV?$string_output_adapter@D@__crt_stdio_output@@@__crt_stdio_output@@KAABV?$spectre_mitigated_lookup_table@Ustate_transition_pair@__crt_stdio_output@@$0IA@@2@XZ 1003023e f i libucrt:output.obj
 0001:0002f244       ?state_transition_table@?$format_validation_base@_WV?$stream_output_adapter@_W@__crt_stdio_output@@@__crt_stdio_output@@KAABV?$spectre_mitigated_lookup_table@Ustate_transition_pair@__crt_stdio_output@@$0IA@@2@XZ 10030244 f i libucrt:output.obj
 0001:0002f24a       ?state_transition_table@?$format_validation_base@_WV?$string_output_adapter@_W@__crt_stdio_output@@@__crt_stdio_output@@KAABV?$spectre_mitigated_lookup_table@Ustate_transition_pair@__crt_stdio_output@@$0IA@@2@XZ 1003024a f i libucrt:output.obj
 0001:0002f250       ?state_transition_table@?$standard_base@DV?$stream_output_adapter@D@__crt_stdio_output@@@__crt_stdio_output@@KAABV?$spectre_mitigated_lookup_table@Ustate_transition_pair@__crt_stdio_output@@$0IA@@2@XZ 10030250 f i libucrt:output.obj
 0001:0002f256       ?state_transition_table@?$standard_base@DV?$string_output_adapter@D@__crt_stdio_output@@@__crt_stdio_output@@KAABV?$spectre_mitigated_lookup_table@Ustate_transition_pair@__crt_stdio_output@@$0IA@@2@XZ 10030256 f i libucrt:output.obj
 0001:0002f25c       ?state_transition_table@?$standard_base@_WV?$stream_output_adapter@_W@__crt_stdio_output@@@__crt_stdio_output@@KAABV?$spectre_mitigated_lookup_table@Ustate_transition_pair@__crt_stdio_output@@$0IA@@2@XZ 1003025c f i libucrt:output.obj
 0001:0002f262       ?state_transition_table@?$standard_base@_WV?$string_output_adapter@_W@__crt_stdio_output@@@__crt_stdio_output@@KAABV?$spectre_mitigated_lookup_table@Ustate_transition_pair@__crt_stdio_output@@$0IA@@2@XZ 10030262 f i libucrt:output.obj
 0001:0002f268       ?tchar_string@?$common_data@D@__crt_stdio_output@@IAEAAPADD@Z 10030268 f i libucrt:output.obj
 0001:0002f26e       ?tchar_string@?$common_data@D@__crt_stdio_output@@IAEAAPADXZ 1003026e f i libucrt:output.obj
 0001:0002f272       ?tchar_string@?$common_data@_W@__crt_stdio_output@@IAEAAPA_WXZ 10030272 f i libucrt:output.obj
 0001:0002f276       ?tchar_string@?$common_data@_W@__crt_stdio_output@@IAEAAPA_W_W@Z 10030276 f i libucrt:output.obj
 0001:0002f27c       ?to_integer_size@__crt_stdio_output@@YAIW4length_modifier@1@@Z 1003027c f i libucrt:output.obj
 0001:0002f2d0       ?type_case_X@?$output_processor@DV?$stream_output_adapter@D@__crt_stdio_output@@V?$format_validation_base@DV?$stream_output_adapter@D@__crt_stdio_output@@@2@@__crt_stdio_output@@AAE_NXZ 100302d0 f i libucrt:output.obj
 0001:0002f2d8       ?type_case_X@?$output_processor@DV?$stream_output_adapter@D@__crt_stdio_output@@V?$positional_parameter_base@DV?$stream_output_adapter@D@__crt_stdio_output@@@2@@__crt_stdio_output@@AAE_NXZ 100302d8 f i libucrt:output.obj
 0001:0002f2e0       ?type_case_X@?$output_processor@DV?$stream_output_adapter@D@__crt_stdio_output@@V?$standard_base@DV?$stream_output_adapter@D@__crt_stdio_output@@@2@@__crt_stdio_output@@AAE_NXZ 100302e0 f i libucrt:output.obj
 0001:0002f2e8       ?type_case_X@?$output_processor@DV?$string_output_adapter@D@__crt_stdio_output@@V?$format_validation_base@DV?$string_output_adapter@D@__crt_stdio_output@@@2@@__crt_stdio_output@@AAE_NXZ 100302e8 f i libucrt:output.obj
 0001:0002f2f0       ?type_case_X@?$output_processor@DV?$string_output_adapter@D@__crt_stdio_output@@V?$positional_parameter_base@DV?$string_output_adapter@D@__crt_stdio_output@@@2@@__crt_stdio_output@@AAE_NXZ 100302f0 f i libucrt:output.obj
 0001:0002f2f8       ?type_case_X@?$output_processor@DV?$string_output_adapter@D@__crt_stdio_output@@V?$standard_base@DV?$string_output_adapter@D@__crt_stdio_output@@@2@@__crt_stdio_output@@AAE_NXZ 100302f8 f i libucrt:output.obj
 0001:0002f300       ?type_case_X@?$output_processor@_WV?$stream_output_adapter@_W@__crt_stdio_output@@V?$format_validation_base@_WV?$stream_output_adapter@_W@__crt_stdio_output@@@2@@__crt_stdio_output@@AAE_NXZ 10030300 f i libucrt:output.obj
 0001:0002f308       ?type_case_X@?$output_processor@_WV?$stream_output_adapter@_W@__crt_stdio_output@@V?$positional_parameter_base@_WV?$stream_output_adapter@_W@__crt_stdio_output@@@2@@__crt_stdio_output@@AAE_NXZ 10030308 f i libucrt:output.obj
 0001:0002f310       ?type_case_X@?$output_processor@_WV?$stream_output_adapter@_W@__crt_stdio_output@@V?$standard_base@_WV?$stream_output_adapter@_W@__crt_stdio_output@@@2@@__crt_stdio_output@@AAE_NXZ 10030310 f i libucrt:output.obj
 0001:0002f318       ?type_case_X@?$output_processor@_WV?$string_output_adapter@_W@__crt_stdio_output@@V?$format_validation_base@_WV?$string_output_adapter@_W@__crt_stdio_output@@@2@@__crt_stdio_output@@AAE_NXZ 10030318 f i libucrt:output.obj
 0001:0002f320       ?type_case_X@?$output_processor@_WV?$string_output_adapter@_W@__crt_stdio_output@@V?$positional_parameter_base@_WV?$string_output_adapter@_W@__crt_stdio_output@@@2@@__crt_stdio_output@@AAE_NXZ 10030320 f i libucrt:output.obj
 0001:0002f328       ?type_case_X@?$output_processor@_WV?$string_output_adapter@_W@__crt_stdio_output@@V?$standard_base@_WV?$string_output_adapter@_W@__crt_stdio_output@@@2@@__crt_stdio_output@@AAE_NXZ 10030328 f i libucrt:output.obj
 0001:0002f330       ?type_case_Z@?$output_processor@DV?$stream_output_adapter@D@__crt_stdio_output@@V?$format_validation_base@DV?$stream_output_adapter@D@__crt_stdio_output@@@2@@__crt_stdio_output@@AAE_NXZ 10030330 f i libucrt:output.obj
 0001:0002f393       ?type_case_Z@?$output_processor@DV?$stream_output_adapter@D@__crt_stdio_output@@V?$positional_parameter_base@DV?$stream_output_adapter@D@__crt_stdio_output@@@2@@__crt_stdio_output@@AAE_NXZ 10030393 f i libucrt:output.obj
 0001:0002f40d       ?type_case_Z@?$output_processor@DV?$stream_output_adapter@D@__crt_stdio_output@@V?$standard_base@DV?$stream_output_adapter@D@__crt_stdio_output@@@2@@__crt_stdio_output@@AAE_NXZ 1003040d f i libucrt:output.obj
 0001:0002f470       ?type_case_Z@?$output_processor@DV?$string_output_adapter@D@__crt_stdio_output@@V?$format_validation_base@DV?$string_output_adapter@D@__crt_stdio_output@@@2@@__crt_stdio_output@@AAE_NXZ 10030470 f i libucrt:output.obj
 0001:0002f4d3       ?type_case_Z@?$output_processor@DV?$string_output_adapter@D@__crt_stdio_output@@V?$positional_parameter_base@DV?$string_output_adapter@D@__crt_stdio_output@@@2@@__crt_stdio_output@@AAE_NXZ 100304d3 f i libucrt:output.obj
 0001:0002f54d       ?type_case_Z@?$output_processor@DV?$string_output_adapter@D@__crt_stdio_output@@V?$standard_base@DV?$string_output_adapter@D@__crt_stdio_output@@@2@@__crt_stdio_output@@AAE_NXZ 1003054d f i libucrt:output.obj
 0001:0002f5b0       ?type_case_Z@?$output_processor@_WV?$stream_output_adapter@_W@__crt_stdio_output@@V?$format_validation_base@_WV?$stream_output_adapter@_W@__crt_stdio_output@@@2@@__crt_stdio_output@@AAE_NXZ 100305b0 f i libucrt:output.obj
 0001:0002f613       ?type_case_Z@?$output_processor@_WV?$stream_output_adapter@_W@__crt_stdio_output@@V?$positional_parameter_base@_WV?$stream_output_adapter@_W@__crt_stdio_output@@@2@@__crt_stdio_output@@AAE_NXZ 10030613 f i libucrt:output.obj
 0001:0002f68d       ?type_case_Z@?$output_processor@_WV?$stream_output_adapter@_W@__crt_stdio_output@@V?$standard_base@_WV?$stream_output_adapter@_W@__crt_stdio_output@@@2@@__crt_stdio_output@@AAE_NXZ 1003068d f i libucrt:output.obj
 0001:0002f6f0       ?type_case_Z@?$output_processor@_WV?$string_output_adapter@_W@__crt_stdio_output@@V?$format_validation_base@_WV?$string_output_adapter@_W@__crt_stdio_output@@@2@@__crt_stdio_output@@AAE_NXZ 100306f0 f i libucrt:output.obj
 0001:0002f753       ?type_case_Z@?$output_processor@_WV?$string_output_adapter@_W@__crt_stdio_output@@V?$positional_parameter_base@_WV?$string_output_adapter@_W@__crt_stdio_output@@@2@@__crt_stdio_output@@AAE_NXZ 10030753 f i libucrt:output.obj
 0001:0002f7cd       ?type_case_Z@?$output_processor@_WV?$string_output_adapter@_W@__crt_stdio_output@@V?$standard_base@_WV?$string_output_adapter@_W@__crt_stdio_output@@@2@@__crt_stdio_output@@AAE_NXZ 100307cd f i libucrt:output.obj
 0001:0002f830       ?type_case_a@?$output_processor@DV?$stream_output_adapter@D@__crt_stdio_output@@V?$format_validation_base@DV?$stream_output_adapter@D@__crt_stdio_output@@@2@@__crt_stdio_output@@AAE_NXZ 10030830 f i libucrt:output.obj
 0001:0002f9c1       ?type_case_a@?$output_processor@DV?$stream_output_adapter@D@__crt_stdio_output@@V?$positional_parameter_base@DV?$stream_output_adapter@D@__crt_stdio_output@@@2@@__crt_stdio_output@@AAE_NXZ 100309c1 f i libucrt:output.obj
 0001:0002fb6f       ?type_case_a@?$output_processor@DV?$stream_output_adapter@D@__crt_stdio_output@@V?$standard_base@DV?$stream_output_adapter@D@__crt_stdio_output@@@2@@__crt_stdio_output@@AAE_NXZ 10030b6f f i libucrt:output.obj
 0001:0002fd00       ?type_case_a@?$output_processor@DV?$string_output_adapter@D@__crt_stdio_output@@V?$format_validation_base@DV?$string_output_adapter@D@__crt_stdio_output@@@2@@__crt_stdio_output@@AAE_NXZ 10030d00 f i libucrt:output.obj
 0001:0002fe91       ?type_case_a@?$output_processor@DV?$string_output_adapter@D@__crt_stdio_output@@V?$positional_parameter_base@DV?$string_output_adapter@D@__crt_stdio_output@@@2@@__crt_stdio_output@@AAE_NXZ 10030e91 f i libucrt:output.obj
 0001:0003003f       ?type_case_a@?$output_processor@DV?$string_output_adapter@D@__crt_stdio_output@@V?$standard_base@DV?$string_output_adapter@D@__crt_stdio_output@@@2@@__crt_stdio_output@@AAE_NXZ 1003103f f i libucrt:output.obj
 0001:000301d0       ?type_case_a@?$output_processor@_WV?$stream_output_adapter@_W@__crt_stdio_output@@V?$format_validation_base@_WV?$stream_output_adapter@_W@__crt_stdio_output@@@2@@__crt_stdio_output@@AAE_NXZ 100311d0 f i libucrt:output.obj
 0001:00030377       ?type_case_a@?$output_processor@_WV?$stream_output_adapter@_W@__crt_stdio_output@@V?$positional_parameter_base@_WV?$stream_output_adapter@_W@__crt_stdio_output@@@2@@__crt_stdio_output@@AAE_NXZ 10031377 f i libucrt:output.obj
 0001:0003053b       ?type_case_a@?$output_processor@_WV?$stream_output_adapter@_W@__crt_stdio_output@@V?$standard_base@_WV?$stream_output_adapter@_W@__crt_stdio_output@@@2@@__crt_stdio_output@@AAE_NXZ 1003153b f i libucrt:output.obj
 0001:000306e2       ?type_case_a@?$output_processor@_WV?$string_output_adapter@_W@__crt_stdio_output@@V?$format_validation_base@_WV?$string_output_adapter@_W@__crt_stdio_output@@@2@@__crt_stdio_output@@AAE_NXZ 100316e2 f i libucrt:output.obj
 0001:00030889       ?type_case_a@?$output_processor@_WV?$string_output_adapter@_W@__crt_stdio_output@@V?$positional_parameter_base@_WV?$string_output_adapter@_W@__crt_stdio_output@@@2@@__crt_stdio_output@@AAE_NXZ 10031889 f i libucrt:output.obj
 0001:00030a4d       ?type_case_a@?$output_processor@_WV?$string_output_adapter@_W@__crt_stdio_output@@V?$standard_base@_WV?$string_output_adapter@_W@__crt_stdio_output@@@2@@__crt_stdio_output@@AAE_NXZ 10031a4d f i libucrt:output.obj
 0001:00030bf4       ?type_case_c@?$output_processor@DV?$stream_output_adapter@D@__crt_stdio_output@@V?$format_validation_base@DV?$stream_output_adapter@D@__crt_stdio_output@@@2@@__crt_stdio_output@@AAE_NXZ 10031bf4 f i libucrt:output.obj
 0001:00030bfc       ?type_case_c@?$output_processor@DV?$stream_output_adapter@D@__crt_stdio_output@@V?$positional_parameter_base@DV?$stream_output_adapter@D@__crt_stdio_output@@@2@@__crt_stdio_output@@AAE_NXZ 10031bfc f i libucrt:output.obj
 0001:00030c04       ?type_case_c@?$output_processor@DV?$stream_output_adapter@D@__crt_stdio_output@@V?$standard_base@DV?$stream_output_adapter@D@__crt_stdio_output@@@2@@__crt_stdio_output@@AAE_NXZ 10031c04 f i libucrt:output.obj
 0001:00030c0c       ?type_case_c@?$output_processor@DV?$string_output_adapter@D@__crt_stdio_output@@V?$format_validation_base@DV?$string_output_adapter@D@__crt_stdio_output@@@2@@__crt_stdio_output@@AAE_NXZ 10031c0c f i libucrt:output.obj
 0001:00030c14       ?type_case_c@?$output_processor@DV?$string_output_adapter@D@__crt_stdio_output@@V?$positional_parameter_base@DV?$string_output_adapter@D@__crt_stdio_output@@@2@@__crt_stdio_output@@AAE_NXZ 10031c14 f i libucrt:output.obj
 0001:00030c1c       ?type_case_c@?$output_processor@DV?$string_output_adapter@D@__crt_stdio_output@@V?$standard_base@DV?$string_output_adapter@D@__crt_stdio_output@@@2@@__crt_stdio_output@@AAE_NXZ 10031c1c f i libucrt:output.obj
 0001:00030c24       ?type_case_c@?$output_processor@_WV?$stream_output_adapter@_W@__crt_stdio_output@@V?$format_validation_base@_WV?$stream_output_adapter@_W@__crt_stdio_output@@@2@@__crt_stdio_output@@AAE_NXZ 10031c24 f i libucrt:output.obj
 0001:00030c2c       ?type_case_c@?$output_processor@_WV?$stream_output_adapter@_W@__crt_stdio_output@@V?$positional_parameter_base@_WV?$stream_output_adapter@_W@__crt_stdio_output@@@2@@__crt_stdio_output@@AAE_NXZ 10031c2c f i libucrt:output.obj
 0001:00030c34       ?type_case_c@?$output_processor@_WV?$stream_output_adapter@_W@__crt_stdio_output@@V?$standard_base@_WV?$stream_output_adapter@_W@__crt_stdio_output@@@2@@__crt_stdio_output@@AAE_NXZ 10031c34 f i libucrt:output.obj
 0001:00030c3c       ?type_case_c@?$output_processor@_WV?$string_output_adapter@_W@__crt_stdio_output@@V?$format_validation_base@_WV?$string_output_adapter@_W@__crt_stdio_output@@@2@@__crt_stdio_output@@AAE_NXZ 10031c3c f i libucrt:output.obj
 0001:00030c44       ?type_case_c@?$output_processor@_WV?$string_output_adapter@_W@__crt_stdio_output@@V?$positional_parameter_base@_WV?$string_output_adapter@_W@__crt_stdio_output@@@2@@__crt_stdio_output@@AAE_NXZ 10031c44 f i libucrt:output.obj
 0001:00030c4c       ?type_case_c@?$output_processor@_WV?$string_output_adapter@_W@__crt_stdio_output@@V?$standard_base@_WV?$string_output_adapter@_W@__crt_stdio_output@@@2@@__crt_stdio_output@@AAE_NXZ 10031c4c f i libucrt:output.obj
 0001:00030c54       ?type_case_c_tchar@?$output_processor@DV?$stream_output_adapter@D@__crt_stdio_output@@V?$format_validation_base@DV?$stream_output_adapter@D@__crt_stdio_output@@@2@@__crt_stdio_output@@AAE_ND@Z 10031c54 f i libucrt:output.obj
 0001:00030ce9       ?type_case_c_tchar@?$output_processor@DV?$stream_output_adapter@D@__crt_stdio_output@@V?$positional_parameter_base@DV?$stream_output_adapter@D@__crt_stdio_output@@@2@@__crt_stdio_output@@AAE_ND@Z 10031ce9 f i libucrt:output.obj
 0001:00030da8       ?type_case_c_tchar@?$output_processor@DV?$stream_output_adapter@D@__crt_stdio_output@@V?$standard_base@DV?$stream_output_adapter@D@__crt_stdio_output@@@2@@__crt_stdio_output@@AAE_ND@Z 10031da8 f i libucrt:output.obj
 0001:00030e3d       ?type_case_c_tchar@?$output_processor@DV?$string_output_adapter@D@__crt_stdio_output@@V?$format_validation_base@DV?$string_output_adapter@D@__crt_stdio_output@@@2@@__crt_stdio_output@@AAE_ND@Z 10031e3d f i libucrt:output.obj
 0001:00030ed2       ?type_case_c_tchar@?$output_processor@DV?$string_output_adapter@D@__crt_stdio_output@@V?$positional_parameter_base@DV?$string_output_adapter@D@__crt_stdio_output@@@2@@__crt_stdio_output@@AAE_ND@Z 10031ed2 f i libucrt:output.obj
 0001:00030f91       ?type_case_c_tchar@?$output_processor@DV?$string_output_adapter@D@__crt_stdio_output@@V?$standard_base@DV?$string_output_adapter@D@__crt_stdio_output@@@2@@__crt_stdio_output@@AAE_ND@Z 10031f91 f i libucrt:output.obj
 0001:00031026       ?type_case_c_tchar@?$output_processor@_WV?$stream_output_adapter@_W@__crt_stdio_output@@V?$format_validation_base@_WV?$stream_output_adapter@_W@__crt_stdio_output@@@2@@__crt_stdio_output@@AAE_N_W@Z 10032026 f i libucrt:output.obj
 0001:000310ce       ?type_case_c_tchar@?$output_processor@_WV?$stream_output_adapter@_W@__crt_stdio_output@@V?$positional_parameter_base@_WV?$stream_output_adapter@_W@__crt_stdio_output@@@2@@__crt_stdio_output@@AAE_N_W@Z 100320ce f i libucrt:output.obj
 0001:00031199       ?type_case_c_tchar@?$output_processor@_WV?$stream_output_adapter@_W@__crt_stdio_output@@V?$standard_base@_WV?$stream_output_adapter@_W@__crt_stdio_output@@@2@@__crt_stdio_output@@AAE_N_W@Z 10032199 f i libucrt:output.obj
 0001:00031241       ?type_case_c_tchar@?$output_processor@_WV?$string_output_adapter@_W@__crt_stdio_output@@V?$format_validation_base@_WV?$string_output_adapter@_W@__crt_stdio_output@@@2@@__crt_stdio_output@@AAE_N_W@Z 10032241 f i libucrt:output.obj
 0001:000312e9       ?type_case_c_tchar@?$output_processor@_WV?$string_output_adapter@_W@__crt_stdio_output@@V?$positional_parameter_base@_WV?$string_output_adapter@_W@__crt_stdio_output@@@2@@__crt_stdio_output@@AAE_N_W@Z 100322e9 f i libucrt:output.obj
 0001:000313b4       ?type_case_c_tchar@?$output_processor@_WV?$string_output_adapter@_W@__crt_stdio_output@@V?$standard_base@_WV?$string_output_adapter@_W@__crt_stdio_output@@@2@@__crt_stdio_output@@AAE_N_W@Z 100323b4 f i libucrt:output.obj
 0001:0003145c       ?type_case_d@?$output_processor@DV?$stream_output_adapter@D@__crt_stdio_output@@V?$format_validation_base@DV?$stream_output_adapter@D@__crt_stdio_output@@@2@@__crt_stdio_output@@AAE_NXZ 1003245c f i libucrt:output.obj
 0001:00031468       ?type_case_d@?$output_processor@DV?$stream_output_adapter@D@__crt_stdio_output@@V?$positional_parameter_base@DV?$stream_output_adapter@D@__crt_stdio_output@@@2@@__crt_stdio_output@@AAE_NXZ 10032468 f i libucrt:output.obj
 0001:00031474       ?type_case_d@?$output_processor@DV?$stream_output_adapter@D@__crt_stdio_output@@V?$standard_base@DV?$stream_output_adapter@D@__crt_stdio_output@@@2@@__crt_stdio_output@@AAE_NXZ 10032474 f i libucrt:output.obj
 0001:00031480       ?type_case_d@?$output_processor@DV?$string_output_adapter@D@__crt_stdio_output@@V?$format_validation_base@DV?$string_output_adapter@D@__crt_stdio_output@@@2@@__crt_stdio_output@@AAE_NXZ 10032480 f i libucrt:output.obj
 0001:0003148c       ?type_case_d@?$output_processor@DV?$string_output_adapter@D@__crt_stdio_output@@V?$positional_parameter_base@DV?$string_output_adapter@D@__crt_stdio_output@@@2@@__crt_stdio_output@@AAE_NXZ 1003248c f i libucrt:output.obj
 0001:00031498       ?type_case_d@?$output_processor@DV?$string_output_adapter@D@__crt_stdio_output@@V?$standard_base@DV?$string_output_adapter@D@__crt_stdio_output@@@2@@__crt_stdio_output@@AAE_NXZ 10032498 f i libucrt:output.obj
 0001:000314a4       ?type_case_d@?$output_processor@_WV?$stream_output_adapter@_W@__crt_stdio_output@@V?$format_validation_base@_WV?$stream_output_adapter@_W@__crt_stdio_output@@@2@@__crt_stdio_output@@AAE_NXZ 100324a4 f i libucrt:output.obj
 0001:000314b0       ?type_case_d@?$output_processor@_WV?$stream_output_adapter@_W@__crt_stdio_output@@V?$positional_parameter_base@_WV?$stream_output_adapter@_W@__crt_stdio_output@@@2@@__crt_stdio_output@@AAE_NXZ 100324b0 f i libucrt:output.obj
 0001:000314bc       ?type_case_d@?$output_processor@_WV?$stream_output_adapter@_W@__crt_stdio_output@@V?$standard_base@_WV?$stream_output_adapter@_W@__crt_stdio_output@@@2@@__crt_stdio_output@@AAE_NXZ 100324bc f i libucrt:output.obj
 0001:000314c8       ?type_case_d@?$output_processor@_WV?$string_output_adapter@_W@__crt_stdio_output@@V?$format_validation_base@_WV?$string_output_adapter@_W@__crt_stdio_output@@@2@@__crt_stdio_output@@AAE_NXZ 100324c8 f i libucrt:output.obj
 0001:000314d4       ?type_case_d@?$output_processor@_WV?$string_output_adapter@_W@__crt_stdio_output@@V?$positional_parameter_base@_WV?$string_output_adapter@_W@__crt_stdio_output@@@2@@__crt_stdio_output@@AAE_NXZ 100324d4 f i libucrt:output.obj
 0001:000314e0       ?type_case_d@?$output_processor@_WV?$string_output_adapter@_W@__crt_stdio_output@@V?$standard_base@_WV?$string_output_adapter@_W@__crt_stdio_output@@@2@@__crt_stdio_output@@AAE_NXZ 100324e0 f i libucrt:output.obj
 0001:000314ec       ?type_case_n@?$output_processor@DV?$stream_output_adapter@D@__crt_stdio_output@@V?$format_validation_base@DV?$stream_output_adapter@D@__crt_stdio_output@@@2@@__crt_stdio_output@@AAE_NXZ 100324ec f i libucrt:output.obj
 0001:00031571       ?type_case_n@?$output_processor@DV?$stream_output_adapter@D@__crt_stdio_output@@V?$positional_parameter_base@DV?$stream_output_adapter@D@__crt_stdio_output@@@2@@__crt_stdio_output@@AAE_NXZ 10032571 f i libucrt:output.obj
 0001:0003161e       ?type_case_n@?$output_processor@DV?$stream_output_adapter@D@__crt_stdio_output@@V?$standard_base@DV?$stream_output_adapter@D@__crt_stdio_output@@@2@@__crt_stdio_output@@AAE_NXZ 1003261e f i libucrt:output.obj
 0001:000316a3       ?type_case_n@?$output_processor@DV?$string_output_adapter@D@__crt_stdio_output@@V?$format_validation_base@DV?$string_output_adapter@D@__crt_stdio_output@@@2@@__crt_stdio_output@@AAE_NXZ 100326a3 f i libucrt:output.obj
 0001:00031728       ?type_case_n@?$output_processor@DV?$string_output_adapter@D@__crt_stdio_output@@V?$positional_parameter_base@DV?$string_output_adapter@D@__crt_stdio_output@@@2@@__crt_stdio_output@@AAE_NXZ 10032728 f i libucrt:output.obj
 0001:000317d5       ?type_case_n@?$output_processor@DV?$string_output_adapter@D@__crt_stdio_output@@V?$standard_base@DV?$string_output_adapter@D@__crt_stdio_output@@@2@@__crt_stdio_output@@AAE_NXZ 100327d5 f i libucrt:output.obj
 0001:0003185a       ?type_case_n@?$output_processor@_WV?$stream_output_adapter@_W@__crt_stdio_output@@V?$format_validation_base@_WV?$stream_output_adapter@_W@__crt_stdio_output@@@2@@__crt_stdio_output@@AAE_NXZ 1003285a f i libucrt:output.obj
 0001:000318df       ?type_case_n@?$output_processor@_WV?$stream_output_adapter@_W@__crt_stdio_output@@V?$positional_parameter_base@_WV?$stream_output_adapter@_W@__crt_stdio_output@@@2@@__crt_stdio_output@@AAE_NXZ 100328df f i libucrt:output.obj
 0001:0003198c       ?type_case_n@?$output_processor@_WV?$stream_output_adapter@_W@__crt_stdio_output@@V?$standard_base@_WV?$stream_output_adapter@_W@__crt_stdio_output@@@2@@__crt_stdio_output@@AAE_NXZ 1003298c f i libucrt:output.obj
 0001:00031a11       ?type_case_n@?$output_processor@_WV?$string_output_adapter@_W@__crt_stdio_output@@V?$format_validation_base@_WV?$string_output_adapter@_W@__crt_stdio_output@@@2@@__crt_stdio_output@@AAE_NXZ 10032a11 f i libucrt:output.obj
 0001:00031a96       ?type_case_n@?$output_processor@_WV?$string_output_adapter@_W@__crt_stdio_output@@V?$positional_parameter_base@_WV?$string_output_adapter@_W@__crt_stdio_output@@@2@@__crt_stdio_output@@AAE_NXZ 10032a96 f i libucrt:output.obj
 0001:00031b43       ?type_case_n@?$output_processor@_WV?$string_output_adapter@_W@__crt_stdio_output@@V?$standard_base@_WV?$string_output_adapter@_W@__crt_stdio_output@@@2@@__crt_stdio_output@@AAE_NXZ 10032b43 f i libucrt:output.obj
 0001:00031bc8       ?type_case_o@?$output_processor@DV?$stream_output_adapter@D@__crt_stdio_output@@V?$format_validation_base@DV?$stream_output_adapter@D@__crt_stdio_output@@@2@@__crt_stdio_output@@AAE_NXZ 10032bc8 f i libucrt:output.obj
 0001:00031be5       ?type_case_o@?$output_processor@DV?$stream_output_adapter@D@__crt_stdio_output@@V?$positional_parameter_base@DV?$stream_output_adapter@D@__crt_stdio_output@@@2@@__crt_stdio_output@@AAE_NXZ 10032be5 f i libucrt:output.obj
 0001:00031c02       ?type_case_o@?$output_processor@DV?$stream_output_adapter@D@__crt_stdio_output@@V?$standard_base@DV?$stream_output_adapter@D@__crt_stdio_output@@@2@@__crt_stdio_output@@AAE_NXZ 10032c02 f i libucrt:output.obj
 0001:00031c1f       ?type_case_o@?$output_processor@DV?$string_output_adapter@D@__crt_stdio_output@@V?$format_validation_base@DV?$string_output_adapter@D@__crt_stdio_output@@@2@@__crt_stdio_output@@AAE_NXZ 10032c1f f i libucrt:output.obj
 0001:00031c3c       ?type_case_o@?$output_processor@DV?$string_output_adapter@D@__crt_stdio_output@@V?$positional_parameter_base@DV?$string_output_adapter@D@__crt_stdio_output@@@2@@__crt_stdio_output@@AAE_NXZ 10032c3c f i libucrt:output.obj
 0001:00031c59       ?type_case_o@?$output_processor@DV?$string_output_adapter@D@__crt_stdio_output@@V?$standard_base@DV?$string_output_adapter@D@__crt_stdio_output@@@2@@__crt_stdio_output@@AAE_NXZ 10032c59 f i libucrt:output.obj
 0001:00031c76       ?type_case_o@?$output_processor@_WV?$stream_output_adapter@_W@__crt_stdio_output@@V?$format_validation_base@_WV?$stream_output_adapter@_W@__crt_stdio_output@@@2@@__crt_stdio_output@@AAE_NXZ 10032c76 f i libucrt:output.obj
 0001:00031c93       ?type_case_o@?$output_processor@_WV?$stream_output_adapter@_W@__crt_stdio_output@@V?$positional_parameter_base@_WV?$stream_output_adapter@_W@__crt_stdio_output@@@2@@__crt_stdio_output@@AAE_NXZ 10032c93 f i libucrt:output.obj
 0001:00031cb0       ?type_case_o@?$output_processor@_WV?$stream_output_adapter@_W@__crt_stdio_output@@V?$standard_base@_WV?$stream_output_adapter@_W@__crt_stdio_output@@@2@@__crt_stdio_output@@AAE_NXZ 10032cb0 f i libucrt:output.obj
 0001:00031ccd       ?type_case_o@?$output_processor@_WV?$string_output_adapter@_W@__crt_stdio_output@@V?$format_validation_base@_WV?$string_output_adapter@_W@__crt_stdio_output@@@2@@__crt_stdio_output@@AAE_NXZ 10032ccd f i libucrt:output.obj
 0001:00031cea       ?type_case_o@?$output_processor@_WV?$string_output_adapter@_W@__crt_stdio_output@@V?$positional_parameter_base@_WV?$string_output_adapter@_W@__crt_stdio_output@@@2@@__crt_stdio_output@@AAE_NXZ 10032cea f i libucrt:output.obj
 0001:00031d07       ?type_case_o@?$output_processor@_WV?$string_output_adapter@_W@__crt_stdio_output@@V?$standard_base@_WV?$string_output_adapter@_W@__crt_stdio_output@@@2@@__crt_stdio_output@@AAE_NXZ 10032d07 f i libucrt:output.obj
 0001:00031d24       ?type_case_p@?$output_processor@DV?$stream_output_adapter@D@__crt_stdio_output@@V?$format_validation_base@DV?$stream_output_adapter@D@__crt_stdio_output@@@2@@__crt_stdio_output@@AAE_NXZ 10032d24 f i libucrt:output.obj
 0001:00031d3a       ?type_case_p@?$output_processor@DV?$stream_output_adapter@D@__crt_stdio_output@@V?$positional_parameter_base@DV?$stream_output_adapter@D@__crt_stdio_output@@@2@@__crt_stdio_output@@AAE_NXZ 10032d3a f i libucrt:output.obj
 0001:00031d50       ?type_case_p@?$output_processor@DV?$stream_output_adapter@D@__crt_stdio_output@@V?$standard_base@DV?$stream_output_adapter@D@__crt_stdio_output@@@2@@__crt_stdio_output@@AAE_NXZ 10032d50 f i libucrt:output.obj
 0001:00031d66       ?type_case_p@?$output_processor@DV?$string_output_adapter@D@__crt_stdio_output@@V?$format_validation_base@DV?$string_output_adapter@D@__crt_stdio_output@@@2@@__crt_stdio_output@@AAE_NXZ 10032d66 f i libucrt:output.obj
 0001:00031d7c       ?type_case_p@?$output_processor@DV?$string_output_adapter@D@__crt_stdio_output@@V?$positional_parameter_base@DV?$string_output_adapter@D@__crt_stdio_output@@@2@@__crt_stdio_output@@AAE_NXZ 10032d7c f i libucrt:output.obj
 0001:00031d92       ?type_case_p@?$output_processor@DV?$string_output_adapter@D@__crt_stdio_output@@V?$standard_base@DV?$string_output_adapter@D@__crt_stdio_output@@@2@@__crt_stdio_output@@AAE_NXZ 10032d92 f i libucrt:output.obj
 0001:00031da8       ?type_case_p@?$output_processor@_WV?$stream_output_adapter@_W@__crt_stdio_output@@V?$format_validation_base@_WV?$stream_output_adapter@_W@__crt_stdio_output@@@2@@__crt_stdio_output@@AAE_NXZ 10032da8 f i libucrt:output.obj
 0001:00031dbe       ?type_case_p@?$output_processor@_WV?$stream_output_adapter@_W@__crt_stdio_output@@V?$positional_parameter_base@_WV?$stream_output_adapter@_W@__crt_stdio_output@@@2@@__crt_stdio_output@@AAE_NXZ 10032dbe f i libucrt:output.obj
 0001:00031dd4       ?type_case_p@?$output_processor@_WV?$stream_output_adapter@_W@__crt_stdio_output@@V?$standard_base@_WV?$stream_output_adapter@_W@__crt_stdio_output@@@2@@__crt_stdio_output@@AAE_NXZ 10032dd4 f i libucrt:output.obj
 0001:00031dea       ?type_case_p@?$output_processor@_WV?$string_output_adapter@_W@__crt_stdio_output@@V?$format_validation_base@_WV?$string_output_adapter@_W@__crt_stdio_output@@@2@@__crt_stdio_output@@AAE_NXZ 10032dea f i libucrt:output.obj
 0001:00031e00       ?type_case_p@?$output_processor@_WV?$string_output_adapter@_W@__crt_stdio_output@@V?$positional_parameter_base@_WV?$string_output_adapter@_W@__crt_stdio_output@@@2@@__crt_stdio_output@@AAE_NXZ 10032e00 f i libucrt:output.obj
 0001:00031e16       ?type_case_p@?$output_processor@_WV?$string_output_adapter@_W@__crt_stdio_output@@V?$standard_base@_WV?$string_output_adapter@_W@__crt_stdio_output@@@2@@__crt_stdio_output@@AAE_NXZ 10032e16 f i libucrt:output.obj
 0001:00031e2c       ?type_case_s@?$output_processor@DV?$stream_output_adapter@D@__crt_stdio_output@@V?$format_validation_base@DV?$stream_output_adapter@D@__crt_stdio_output@@@2@@__crt_stdio_output@@AAE_NXZ 10032e2c f i libucrt:output.obj
 0001:00031e9e       ?type_case_s@?$output_processor@DV?$stream_output_adapter@D@__crt_stdio_output@@V?$positional_parameter_base@DV?$stream_output_adapter@D@__crt_stdio_output@@@2@@__crt_stdio_output@@AAE_NXZ 10032e9e f i libucrt:output.obj
 0001:00031f1c       ?type_case_s@?$output_processor@DV?$stream_output_adapter@D@__crt_stdio_output@@V?$standard_base@DV?$stream_output_adapter@D@__crt_stdio_output@@@2@@__crt_stdio_output@@AAE_NXZ 10032f1c f i libucrt:output.obj
 0001:00031f8e       ?type_case_s@?$output_processor@DV?$string_output_adapter@D@__crt_stdio_output@@V?$format_validation_base@DV?$string_output_adapter@D@__crt_stdio_output@@@2@@__crt_stdio_output@@AAE_NXZ 10032f8e f i libucrt:output.obj
 0001:00032000       ?type_case_s@?$output_processor@DV?$string_output_adapter@D@__crt_stdio_output@@V?$positional_parameter_base@DV?$string_output_adapter@D@__crt_stdio_output@@@2@@__crt_stdio_output@@AAE_NXZ 10033000 f i libucrt:output.obj
 0001:0003207e       ?type_case_s@?$output_processor@DV?$string_output_adapter@D@__crt_stdio_output@@V?$standard_base@DV?$string_output_adapter@D@__crt_stdio_output@@@2@@__crt_stdio_output@@AAE_NXZ 1003307e f i libucrt:output.obj
 0001:000320f0       ?type_case_s@?$output_processor@_WV?$stream_output_adapter@_W@__crt_stdio_output@@V?$format_validation_base@_WV?$stream_output_adapter@_W@__crt_stdio_output@@@2@@__crt_stdio_output@@AAE_NXZ 100330f0 f i libucrt:output.obj
 0001:00032164       ?type_case_s@?$output_processor@_WV?$stream_output_adapter@_W@__crt_stdio_output@@V?$positional_parameter_base@_WV?$stream_output_adapter@_W@__crt_stdio_output@@@2@@__crt_stdio_output@@AAE_NXZ 10033164 f i libucrt:output.obj
 0001:000321e4       ?type_case_s@?$output_processor@_WV?$stream_output_adapter@_W@__crt_stdio_output@@V?$standard_base@_WV?$stream_output_adapter@_W@__crt_stdio_output@@@2@@__crt_stdio_output@@AAE_NXZ 100331e4 f i libucrt:output.obj
 0001:00032258       ?type_case_s@?$output_processor@_WV?$string_output_adapter@_W@__crt_stdio_output@@V?$format_validation_base@_WV?$string_output_adapter@_W@__crt_stdio_output@@@2@@__crt_stdio_output@@AAE_NXZ 10033258 f i libucrt:output.obj
 0001:000322cc       ?type_case_s@?$output_processor@_WV?$string_output_adapter@_W@__crt_stdio_output@@V?$positional_parameter_base@_WV?$string_output_adapter@_W@__crt_stdio_output@@@2@@__crt_stdio_output@@AAE_NXZ 100332cc f i libucrt:output.obj
 0001:0003234c       ?type_case_s@?$output_processor@_WV?$string_output_adapter@_W@__crt_stdio_output@@V?$standard_base@_WV?$string_output_adapter@_W@__crt_stdio_output@@@2@@__crt_stdio_output@@AAE_NXZ 1003334c f i libucrt:output.obj
 0001:000323c0       ?type_case_s_compute_narrow_string_length@?$output_processor@DV?$stream_output_adapter@D@__crt_stdio_output@@V?$format_validation_base@DV?$stream_output_adapter@D@__crt_stdio_output@@@2@@__crt_stdio_output@@AAEHHD@Z 100333c0 f i libucrt:output.obj
 0001:000323d6       ?type_case_s_compute_narrow_string_length@?$output_processor@DV?$stream_output_adapter@D@__crt_stdio_output@@V?$positional_parameter_base@DV?$stream_output_adapter@D@__crt_stdio_output@@@2@@__crt_stdio_output@@AAEHHD@Z 100333d6 f i libucrt:output.obj
 0001:000323ec       ?type_case_s_compute_narrow_string_length@?$output_processor@DV?$stream_output_adapter@D@__crt_stdio_output@@V?$standard_base@DV?$stream_output_adapter@D@__crt_stdio_output@@@2@@__crt_stdio_output@@AAEHHD@Z 100333ec f i libucrt:output.obj
 0001:00032402       ?type_case_s_compute_narrow_string_length@?$output_processor@DV?$string_output_adapter@D@__crt_stdio_output@@V?$format_validation_base@DV?$string_output_adapter@D@__crt_stdio_output@@@2@@__crt_stdio_output@@AAEHHD@Z 10033402 f i libucrt:output.obj
 0001:00032418       ?type_case_s_compute_narrow_string_length@?$output_processor@DV?$string_output_adapter@D@__crt_stdio_output@@V?$positional_parameter_base@DV?$string_output_adapter@D@__crt_stdio_output@@@2@@__crt_stdio_output@@AAEHHD@Z 10033418 f i libucrt:output.obj
 0001:0003242e       ?type_case_s_compute_narrow_string_length@?$output_processor@DV?$string_output_adapter@D@__crt_stdio_output@@V?$standard_base@DV?$string_output_adapter@D@__crt_stdio_output@@@2@@__crt_stdio_output@@AAEHHD@Z 1003342e f i libucrt:output.obj
 0001:00032444       ?type_case_s_compute_narrow_string_length@?$output_processor@_WV?$stream_output_adapter@_W@__crt_stdio_output@@V?$format_validation_base@_WV?$stream_output_adapter@_W@__crt_stdio_output@@@2@@__crt_stdio_output@@AAEHH_W@Z 10033444 f i libucrt:output.obj
 0001:00032499       ?type_case_s_compute_narrow_string_length@?$output_processor@_WV?$stream_output_adapter@_W@__crt_stdio_output@@V?$positional_parameter_base@_WV?$stream_output_adapter@_W@__crt_stdio_output@@@2@@__crt_stdio_output@@AAEHH_W@Z 10033499 f i libucrt:output.obj
 0001:000324ee       ?type_case_s_compute_narrow_string_length@?$output_processor@_WV?$stream_output_adapter@_W@__crt_stdio_output@@V?$standard_base@_WV?$stream_output_adapter@_W@__crt_stdio_output@@@2@@__crt_stdio_output@@AAEHH_W@Z 100334ee f i libucrt:output.obj
 0001:00032543       ?type_case_s_compute_narrow_string_length@?$output_processor@_WV?$string_output_adapter@_W@__crt_stdio_output@@V?$format_validation_base@_WV?$string_output_adapter@_W@__crt_stdio_output@@@2@@__crt_stdio_output@@AAEHH_W@Z 10033543 f i libucrt:output.obj
 0001:00032598       ?type_case_s_compute_narrow_string_length@?$output_processor@_WV?$string_output_adapter@_W@__crt_stdio_output@@V?$positional_parameter_base@_WV?$string_output_adapter@_W@__crt_stdio_output@@@2@@__crt_stdio_output@@AAEHH_W@Z 10033598 f i libucrt:output.obj
 0001:000325ed       ?type_case_s_compute_narrow_string_length@?$output_processor@_WV?$string_output_adapter@_W@__crt_stdio_output@@V?$standard_base@_WV?$string_output_adapter@_W@__crt_stdio_output@@@2@@__crt_stdio_output@@AAEHH_W@Z 100335ed f i libucrt:output.obj
 0001:00032642       ?type_case_u@?$output_processor@DV?$stream_output_adapter@D@__crt_stdio_output@@V?$format_validation_base@DV?$stream_output_adapter@D@__crt_stdio_output@@@2@@__crt_stdio_output@@AAE_NXZ 10033642 f i libucrt:output.obj
 0001:0003264a       ?type_case_u@?$output_processor@DV?$stream_output_adapter@D@__crt_stdio_output@@V?$positional_parameter_base@DV?$stream_output_adapter@D@__crt_stdio_output@@@2@@__crt_stdio_output@@AAE_NXZ 1003364a f i libucrt:output.obj
 0001:00032652       ?type_case_u@?$output_processor@DV?$stream_output_adapter@D@__crt_stdio_output@@V?$standard_base@DV?$stream_output_adapter@D@__crt_stdio_output@@@2@@__crt_stdio_output@@AAE_NXZ 10033652 f i libucrt:output.obj
 0001:0003265a       ?type_case_u@?$output_processor@DV?$string_output_adapter@D@__crt_stdio_output@@V?$format_validation_base@DV?$string_output_adapter@D@__crt_stdio_output@@@2@@__crt_stdio_output@@AAE_NXZ 1003365a f i libucrt:output.obj
 0001:00032662       ?type_case_u@?$output_processor@DV?$string_output_adapter@D@__crt_stdio_output@@V?$positional_parameter_base@DV?$string_output_adapter@D@__crt_stdio_output@@@2@@__crt_stdio_output@@AAE_NXZ 10033662 f i libucrt:output.obj
 0001:0003266a       ?type_case_u@?$output_processor@DV?$string_output_adapter@D@__crt_stdio_output@@V?$standard_base@DV?$string_output_adapter@D@__crt_stdio_output@@@2@@__crt_stdio_output@@AAE_NXZ 1003366a f i libucrt:output.obj
 0001:00032672       ?type_case_u@?$output_processor@_WV?$stream_output_adapter@_W@__crt_stdio_output@@V?$format_validation_base@_WV?$stream_output_adapter@_W@__crt_stdio_output@@@2@@__crt_stdio_output@@AAE_NXZ 10033672 f i libucrt:output.obj
 0001:0003267a       ?type_case_u@?$output_processor@_WV?$stream_output_adapter@_W@__crt_stdio_output@@V?$positional_parameter_base@_WV?$stream_output_adapter@_W@__crt_stdio_output@@@2@@__crt_stdio_output@@AAE_NXZ 1003367a f i libucrt:output.obj
 0001:00032682       ?type_case_u@?$output_processor@_WV?$stream_output_adapter@_W@__crt_stdio_output@@V?$standard_base@_WV?$stream_output_adapter@_W@__crt_stdio_output@@@2@@__crt_stdio_output@@AAE_NXZ 10033682 f i libucrt:output.obj
 0001:0003268a       ?type_case_u@?$output_processor@_WV?$string_output_adapter@_W@__crt_stdio_output@@V?$format_validation_base@_WV?$string_output_adapter@_W@__crt_stdio_output@@@2@@__crt_stdio_output@@AAE_NXZ 1003368a f i libucrt:output.obj
 0001:00032692       ?type_case_u@?$output_processor@_WV?$string_output_adapter@_W@__crt_stdio_output@@V?$positional_parameter_base@_WV?$string_output_adapter@_W@__crt_stdio_output@@@2@@__crt_stdio_output@@AAE_NXZ 10033692 f i libucrt:output.obj
 0001:0003269a       ?type_case_u@?$output_processor@_WV?$string_output_adapter@_W@__crt_stdio_output@@V?$standard_base@_WV?$string_output_adapter@_W@__crt_stdio_output@@@2@@__crt_stdio_output@@AAE_NXZ 1003369a f i libucrt:output.obj
 0001:000326a2       ?type_case_x@?$output_processor@DV?$stream_output_adapter@D@__crt_stdio_output@@V?$format_validation_base@DV?$stream_output_adapter@D@__crt_stdio_output@@@2@@__crt_stdio_output@@AAE_NXZ 100336a2 f i libucrt:output.obj
 0001:000326aa       ?type_case_x@?$output_processor@DV?$stream_output_adapter@D@__crt_stdio_output@@V?$positional_parameter_base@DV?$stream_output_adapter@D@__crt_stdio_output@@@2@@__crt_stdio_output@@AAE_NXZ 100336aa f i libucrt:output.obj
 0001:000326b2       ?type_case_x@?$output_processor@DV?$stream_output_adapter@D@__crt_stdio_output@@V?$standard_base@DV?$stream_output_adapter@D@__crt_stdio_output@@@2@@__crt_stdio_output@@AAE_NXZ 100336b2 f i libucrt:output.obj
 0001:000326ba       ?type_case_x@?$output_processor@DV?$string_output_adapter@D@__crt_stdio_output@@V?$format_validation_base@DV?$string_output_adapter@D@__crt_stdio_output@@@2@@__crt_stdio_output@@AAE_NXZ 100336ba f i libucrt:output.obj
 0001:000326c2       ?type_case_x@?$output_processor@DV?$string_output_adapter@D@__crt_stdio_output@@V?$positional_parameter_base@DV?$string_output_adapter@D@__crt_stdio_output@@@2@@__crt_stdio_output@@AAE_NXZ 100336c2 f i libucrt:output.obj
 0001:000326ca       ?type_case_x@?$output_processor@DV?$string_output_adapter@D@__crt_stdio_output@@V?$standard_base@DV?$string_output_adapter@D@__crt_stdio_output@@@2@@__crt_stdio_output@@AAE_NXZ 100336ca f i libucrt:output.obj
 0001:000326d2       ?type_case_x@?$output_processor@_WV?$stream_output_adapter@_W@__crt_stdio_output@@V?$format_validation_base@_WV?$stream_output_adapter@_W@__crt_stdio_output@@@2@@__crt_stdio_output@@AAE_NXZ 100336d2 f i libucrt:output.obj
 0001:000326da       ?type_case_x@?$output_processor@_WV?$stream_output_adapter@_W@__crt_stdio_output@@V?$positional_parameter_base@_WV?$stream_output_adapter@_W@__crt_stdio_output@@@2@@__crt_stdio_output@@AAE_NXZ 100336da f i libucrt:output.obj
 0001:000326e2       ?type_case_x@?$output_processor@_WV?$stream_output_adapter@_W@__crt_stdio_output@@V?$standard_base@_WV?$stream_output_adapter@_W@__crt_stdio_output@@@2@@__crt_stdio_output@@AAE_NXZ 100336e2 f i libucrt:output.obj
 0001:000326ea       ?type_case_x@?$output_processor@_WV?$string_output_adapter@_W@__crt_stdio_output@@V?$format_validation_base@_WV?$string_output_adapter@_W@__crt_stdio_output@@@2@@__crt_stdio_output@@AAE_NXZ 100336ea f i libucrt:output.obj
 0001:000326f2       ?type_case_x@?$output_processor@_WV?$string_output_adapter@_W@__crt_stdio_output@@V?$positional_parameter_base@_WV?$string_output_adapter@_W@__crt_stdio_output@@@2@@__crt_stdio_output@@AAE_NXZ 100336f2 f i libucrt:output.obj
 0001:000326fa       ?type_case_x@?$output_processor@_WV?$string_output_adapter@_W@__crt_stdio_output@@V?$standard_base@_WV?$string_output_adapter@_W@__crt_stdio_output@@@2@@__crt_stdio_output@@AAE_NXZ 100336fa f i libucrt:output.obj
 0001:00032702       ?unget@?$c_string_character_source@D@__crt_strtox@@QAEXD@Z 10033702 f i libucrt:output.obj
 0001:0003272b       ?unget@?$c_string_character_source@_W@__crt_strtox@@QAEX_W@Z 1003372b f i libucrt:output.obj
 0001:00032759       ?unset_flag@?$output_processor@DV?$stream_output_adapter@D@__crt_stdio_output@@V?$format_validation_base@DV?$stream_output_adapter@D@__crt_stdio_output@@@2@@__crt_stdio_output@@AAEXI@Z 10033759 f i libucrt:output.obj
 0001:0003276a       ?unset_flag@?$output_processor@DV?$stream_output_adapter@D@__crt_stdio_output@@V?$positional_parameter_base@DV?$stream_output_adapter@D@__crt_stdio_output@@@2@@__crt_stdio_output@@AAEXI@Z 1003376a f i libucrt:output.obj
 0001:0003277b       ?unset_flag@?$output_processor@DV?$stream_output_adapter@D@__crt_stdio_output@@V?$standard_base@DV?$stream_output_adapter@D@__crt_stdio_output@@@2@@__crt_stdio_output@@AAEXI@Z 1003377b f i libucrt:output.obj
 0001:0003278c       ?unset_flag@?$output_processor@DV?$string_output_adapter@D@__crt_stdio_output@@V?$format_validation_base@DV?$string_output_adapter@D@__crt_stdio_output@@@2@@__crt_stdio_output@@AAEXI@Z 1003378c f i libucrt:output.obj
 0001:0003279d       ?unset_flag@?$output_processor@DV?$string_output_adapter@D@__crt_stdio_output@@V?$positional_parameter_base@DV?$string_output_adapter@D@__crt_stdio_output@@@2@@__crt_stdio_output@@AAEXI@Z 1003379d f i libucrt:output.obj
 0001:000327ae       ?unset_flag@?$output_processor@DV?$string_output_adapter@D@__crt_stdio_output@@V?$standard_base@DV?$string_output_adapter@D@__crt_stdio_output@@@2@@__crt_stdio_output@@AAEXI@Z 100337ae f i libucrt:output.obj
 0001:000327bf       ?unset_flag@?$output_processor@_WV?$stream_output_adapter@_W@__crt_stdio_output@@V?$format_validation_base@_WV?$stream_output_adapter@_W@__crt_stdio_output@@@2@@__crt_stdio_output@@AAEXI@Z 100337bf f i libucrt:output.obj
 0001:000327d0       ?unset_flag@?$output_processor@_WV?$stream_output_adapter@_W@__crt_stdio_output@@V?$positional_parameter_base@_WV?$stream_output_adapter@_W@__crt_stdio_output@@@2@@__crt_stdio_output@@AAEXI@Z 100337d0 f i libucrt:output.obj
 0001:000327e1       ?unset_flag@?$output_processor@_WV?$stream_output_adapter@_W@__crt_stdio_output@@V?$standard_base@_WV?$stream_output_adapter@_W@__crt_stdio_output@@@2@@__crt_stdio_output@@AAEXI@Z 100337e1 f i libucrt:output.obj
 0001:000327f2       ?unset_flag@?$output_processor@_WV?$string_output_adapter@_W@__crt_stdio_output@@V?$format_validation_base@_WV?$string_output_adapter@_W@__crt_stdio_output@@@2@@__crt_stdio_output@@AAEXI@Z 100337f2 f i libucrt:output.obj
 0001:00032803       ?unset_flag@?$output_processor@_WV?$string_output_adapter@_W@__crt_stdio_output@@V?$positional_parameter_base@_WV?$string_output_adapter@_W@__crt_stdio_output@@@2@@__crt_stdio_output@@AAEXI@Z 10033803 f i libucrt:output.obj
 0001:00032814       ?unset_flag@?$output_processor@_WV?$string_output_adapter@_W@__crt_stdio_output@@V?$standard_base@_WV?$string_output_adapter@_W@__crt_stdio_output@@@2@@__crt_stdio_output@@AAEXI@Z 10033814 f i libucrt:output.obj
 0001:00032825       ?update_field_width@?$positional_parameter_base@DV?$stream_output_adapter@D@__crt_stdio_output@@@__crt_stdio_output@@IAE_NXZ 10033825 f i libucrt:output.obj
 0001:000328fa       ?update_field_width@?$positional_parameter_base@DV?$string_output_adapter@D@__crt_stdio_output@@@__crt_stdio_output@@IAE_NXZ 100338fa f i libucrt:output.obj
 0001:000329cf       ?update_field_width@?$positional_parameter_base@_WV?$stream_output_adapter@_W@__crt_stdio_output@@@__crt_stdio_output@@IAE_NXZ 100339cf f i libucrt:output.obj
 0001:00032aa5       ?update_field_width@?$positional_parameter_base@_WV?$string_output_adapter@_W@__crt_stdio_output@@@__crt_stdio_output@@IAE_NXZ 10033aa5 f i libucrt:output.obj
 0001:00032b7b       ?update_field_width@?$standard_base@DV?$stream_output_adapter@D@__crt_stdio_output@@@__crt_stdio_output@@IAE_NXZ 10033b7b f i libucrt:output.obj
 0001:00032b8c       ?update_field_width@?$standard_base@DV?$string_output_adapter@D@__crt_stdio_output@@@__crt_stdio_output@@IAE_NXZ 10033b8c f i libucrt:output.obj
 0001:00032b9d       ?update_field_width@?$standard_base@_WV?$stream_output_adapter@_W@__crt_stdio_output@@@__crt_stdio_output@@IAE_NXZ 10033b9d f i libucrt:output.obj
 0001:00032bae       ?update_field_width@?$standard_base@_WV?$string_output_adapter@_W@__crt_stdio_output@@@__crt_stdio_output@@IAE_NXZ 10033bae f i libucrt:output.obj
 0001:00032bc0       ?update_locale@__crt_cached_ptd_host@@AAEXXZ 10033bc0 f i libucrt:output.obj
 0001:00032bd0       ?update_locale_slow@__crt_cached_ptd_host@@AAEXXZ 10033bd0 f i libucrt:output.obj
 0001:00032c2b       ?update_precision@?$positional_parameter_base@DV?$stream_output_adapter@D@__crt_stdio_output@@@__crt_stdio_output@@IAE_NXZ 10033c2b f i libucrt:output.obj
 0001:00032d00       ?update_precision@?$positional_parameter_base@DV?$string_output_adapter@D@__crt_stdio_output@@@__crt_stdio_output@@IAE_NXZ 10033d00 f i libucrt:output.obj
 0001:00032dd5       ?update_precision@?$positional_parameter_base@_WV?$stream_output_adapter@_W@__crt_stdio_output@@@__crt_stdio_output@@IAE_NXZ 10033dd5 f i libucrt:output.obj
 0001:00032eab       ?update_precision@?$positional_parameter_base@_WV?$string_output_adapter@_W@__crt_stdio_output@@@__crt_stdio_output@@IAE_NXZ 10033eab f i libucrt:output.obj
 0001:00032f81       ?update_precision@?$standard_base@DV?$stream_output_adapter@D@__crt_stdio_output@@@__crt_stdio_output@@IAE_NXZ 10033f81 f i libucrt:output.obj
 0001:00032f92       ?update_precision@?$standard_base@DV?$string_output_adapter@D@__crt_stdio_output@@@__crt_stdio_output@@IAE_NXZ 10033f92 f i libucrt:output.obj
 0001:00032fa3       ?update_precision@?$standard_base@_WV?$stream_output_adapter@_W@__crt_stdio_output@@@__crt_stdio_output@@IAE_NXZ 10033fa3 f i libucrt:output.obj
 0001:00032fb4       ?update_precision@?$standard_base@_WV?$string_output_adapter@_W@__crt_stdio_output@@@__crt_stdio_output@@IAE_NXZ 10033fb4 f i libucrt:output.obj
 0001:00032fc5       ?valid@__crt_stdio_stream@@QBE_NXZ 10033fc5 f i libucrt:output.obj
 0001:00032fcc       ?validate@?$c_string_character_source@D@__crt_strtox@@QBE_NXZ 10033fcc f i libucrt:output.obj
 0001:00032fe7       ?validate@?$c_string_character_source@_W@__crt_strtox@@QBE_NXZ 10033fe7 f i libucrt:output.obj
 0001:00033002       ?validate@?$stream_output_adapter@D@__crt_stdio_output@@QBE_NAAV__crt_cached_ptd_host@@@Z 10034002 f i libucrt:output.obj
 0001:0003303a       ?validate@?$stream_output_adapter@_W@__crt_stdio_output@@QBE_NAAV__crt_cached_ptd_host@@@Z 1003403a f i libucrt:output.obj
 0001:0003306b       ?validate@?$string_output_adapter@D@__crt_stdio_output@@QBE_NAAV__crt_cached_ptd_host@@@Z 1003406b f i libucrt:output.obj
 0001:0003309c       ?validate@?$string_output_adapter@_W@__crt_stdio_output@@QBE_NAAV__crt_cached_ptd_host@@@Z 1003409c f i libucrt:output.obj
 0001:000330cd       ?validate_and_store_parameter_data@?$positional_parameter_base@DV?$stream_output_adapter@D@__crt_stdio_output@@@__crt_stdio_output@@AAE_NAAUparameter_data@12@W4parameter_type@12@DW4length_modifier@2@@Z 100340cd f i libucrt:output.obj
 0001:0003312f       ?validate_and_store_parameter_data@?$positional_parameter_base@DV?$string_output_adapter@D@__crt_stdio_output@@@__crt_stdio_output@@AAE_NAAUparameter_data@12@W4parameter_type@12@DW4length_modifier@2@@Z 1003412f f i libucrt:output.obj
 0001:00033191       ?validate_and_store_parameter_data@?$positional_parameter_base@_WV?$stream_output_adapter@_W@__crt_stdio_output@@@__crt_stdio_output@@AAE_NAAUparameter_data@12@W4parameter_type@12@_WW4length_modifier@2@@Z 10034191 f i libucrt:output.obj
 0001:000331f5       ?validate_and_store_parameter_data@?$positional_parameter_base@_WV?$string_output_adapter@_W@__crt_stdio_output@@@__crt_stdio_output@@AAE_NAAUparameter_data@12@W4parameter_type@12@_WW4length_modifier@2@@Z 100341f5 f i libucrt:output.obj
 0001:00033259       ?validate_and_update_state_at_beginning_of_format_character@?$positional_parameter_base@DV?$stream_output_adapter@D@__crt_stdio_output@@@__crt_stdio_output@@IAE_NXZ 10034259 f i libucrt:output.obj
 0001:00033370       ?validate_and_update_state_at_beginning_of_format_character@?$positional_parameter_base@DV?$string_output_adapter@D@__crt_stdio_output@@@__crt_stdio_output@@IAE_NXZ 10034370 f i libucrt:output.obj
 0001:00033487       ?validate_and_update_state_at_beginning_of_format_character@?$positional_parameter_base@_WV?$stream_output_adapter@_W@__crt_stdio_output@@@__crt_stdio_output@@IAE_NXZ 10034487 f i libucrt:output.obj
 0001:000335ab       ?validate_and_update_state_at_beginning_of_format_character@?$positional_parameter_base@_WV?$string_output_adapter@_W@__crt_stdio_output@@@__crt_stdio_output@@IAE_NXZ 100345ab f i libucrt:output.obj
 0001:000336cf       ?validate_and_update_state_at_beginning_of_format_character@?$standard_base@DV?$stream_output_adapter@D@__crt_stdio_output@@@__crt_stdio_output@@IAE_NXZ 100346cf f i libucrt:output.obj
 0001:000336d2       ?validate_and_update_state_at_beginning_of_format_character@?$standard_base@DV?$string_output_adapter@D@__crt_stdio_output@@@__crt_stdio_output@@IAE_NXZ 100346d2 f i libucrt:output.obj
 0001:000336d5       ?validate_and_update_state_at_beginning_of_format_character@?$standard_base@_WV?$stream_output_adapter@_W@__crt_stdio_output@@@__crt_stdio_output@@IAE_NXZ 100346d5 f i libucrt:output.obj
 0001:000336d8       ?validate_and_update_state_at_beginning_of_format_character@?$standard_base@_WV?$string_output_adapter@_W@__crt_stdio_output@@@__crt_stdio_output@@IAE_NXZ 100346d8 f i libucrt:output.obj
 0001:000336db       ?validate_and_update_state_at_end_of_format_string@?$format_validation_base@DV?$stream_output_adapter@D@__crt_stdio_output@@@__crt_stdio_output@@IAE_NXZ 100346db f i libucrt:output.obj
 0001:0003370c       ?validate_and_update_state_at_end_of_format_string@?$format_validation_base@DV?$string_output_adapter@D@__crt_stdio_output@@@__crt_stdio_output@@IAE_NXZ 1003470c f i libucrt:output.obj
 0001:0003373d       ?validate_and_update_state_at_end_of_format_string@?$format_validation_base@_WV?$stream_output_adapter@_W@__crt_stdio_output@@@__crt_stdio_output@@IAE_NXZ 1003473d f i libucrt:output.obj
 0001:0003376e       ?validate_and_update_state_at_end_of_format_string@?$format_validation_base@_WV?$string_output_adapter@_W@__crt_stdio_output@@@__crt_stdio_output@@IAE_NXZ 1003476e f i libucrt:output.obj
 0001:0003379f       ?validate_and_update_state_at_end_of_format_string@?$positional_parameter_base@DV?$stream_output_adapter@D@__crt_stdio_output@@@__crt_stdio_output@@IAE_NXZ 1003479f f i libucrt:output.obj
 0001:00033859       ?validate_and_update_state_at_end_of_format_string@?$positional_parameter_base@DV?$string_output_adapter@D@__crt_stdio_output@@@__crt_stdio_output@@IAE_NXZ 10034859 f i libucrt:output.obj
 0001:00033913       ?validate_and_update_state_at_end_of_format_string@?$positional_parameter_base@_WV?$stream_output_adapter@_W@__crt_stdio_output@@@__crt_stdio_output@@IAE_NXZ 10034913 f i libucrt:output.obj
 0001:000339cd       ?validate_and_update_state_at_end_of_format_string@?$positional_parameter_base@_WV?$string_output_adapter@_W@__crt_stdio_output@@@__crt_stdio_output@@IAE_NXZ 100349cd f i libucrt:output.obj
 0001:00033a87       ?validate_and_update_state_at_end_of_format_string@?$standard_base@DV?$stream_output_adapter@D@__crt_stdio_output@@@__crt_stdio_output@@IBE_NXZ 10034a87 f i libucrt:output.obj
 0001:00033a8a       ?validate_and_update_state_at_end_of_format_string@?$standard_base@DV?$string_output_adapter@D@__crt_stdio_output@@@__crt_stdio_output@@IBE_NXZ 10034a8a f i libucrt:output.obj
 0001:00033a8d       ?validate_and_update_state_at_end_of_format_string@?$standard_base@_WV?$stream_output_adapter@_W@__crt_stdio_output@@@__crt_stdio_output@@IBE_NXZ 10034a8d f i libucrt:output.obj
 0001:00033a90       ?validate_and_update_state_at_end_of_format_string@?$standard_base@_WV?$string_output_adapter@_W@__crt_stdio_output@@@__crt_stdio_output@@IBE_NXZ 10034a90 f i libucrt:output.obj
 0001:00033a93       ?validate_state_for_type_case_a@?$positional_parameter_base@DV?$stream_output_adapter@D@__crt_stdio_output@@@__crt_stdio_output@@IAE_NXZ 10034a93 f i libucrt:output.obj
 0001:00033af2       ?validate_state_for_type_case_a@?$positional_parameter_base@DV?$string_output_adapter@D@__crt_stdio_output@@@__crt_stdio_output@@IAE_NXZ 10034af2 f i libucrt:output.obj
 0001:00033b51       ?validate_state_for_type_case_a@?$positional_parameter_base@_WV?$stream_output_adapter@_W@__crt_stdio_output@@@__crt_stdio_output@@IAE_NXZ 10034b51 f i libucrt:output.obj
 0001:00033bb0       ?validate_state_for_type_case_a@?$positional_parameter_base@_WV?$string_output_adapter@_W@__crt_stdio_output@@@__crt_stdio_output@@IAE_NXZ 10034bb0 f i libucrt:output.obj
 0001:00033c0f       ?validate_state_for_type_case_a@?$standard_base@DV?$stream_output_adapter@D@__crt_stdio_output@@@__crt_stdio_output@@IBE_NXZ 10034c0f f i libucrt:output.obj
 0001:00033c12       ?validate_state_for_type_case_a@?$standard_base@DV?$string_output_adapter@D@__crt_stdio_output@@@__crt_stdio_output@@IBE_NXZ 10034c12 f i libucrt:output.obj
 0001:00033c15       ?validate_state_for_type_case_a@?$standard_base@_WV?$stream_output_adapter@_W@__crt_stdio_output@@@__crt_stdio_output@@IBE_NXZ 10034c15 f i libucrt:output.obj
 0001:00033c18       ?validate_state_for_type_case_a@?$standard_base@_WV?$string_output_adapter@_W@__crt_stdio_output@@@__crt_stdio_output@@IBE_NXZ 10034c18 f i libucrt:output.obj
 0001:00033c1b       ?validate_stream_is_ansi_if_required@?$__acrt_stdio_char_traits@D@@SA_NQAU_iobuf@@@Z 10034c1b f i libucrt:output.obj
 0001:00033ca2       ?validate_stream_is_ansi_if_required@?$__acrt_stdio_char_traits@_W@@SA_NQAU_iobuf@@@Z 10034ca2 f i libucrt:output.obj
 0001:00033ca5       ?wide_character_to_digit@__crt_strtox@@YAH_W@Z 10034ca5 f i libucrt:output.obj
 0001:00033e46       ?wide_null_string@?$output_processor@DV?$stream_output_adapter@D@__crt_stdio_output@@V?$format_validation_base@DV?$stream_output_adapter@D@__crt_stdio_output@@@2@@__crt_stdio_output@@CAPA_WXZ 10034e46 f i libucrt:output.obj
 0001:00033e4c       ?wide_null_string@?$output_processor@DV?$stream_output_adapter@D@__crt_stdio_output@@V?$positional_parameter_base@DV?$stream_output_adapter@D@__crt_stdio_output@@@2@@__crt_stdio_output@@CAPA_WXZ 10034e4c f i libucrt:output.obj
 0001:00033e52       ?wide_null_string@?$output_processor@DV?$stream_output_adapter@D@__crt_stdio_output@@V?$standard_base@DV?$stream_output_adapter@D@__crt_stdio_output@@@2@@__crt_stdio_output@@CAPA_WXZ 10034e52 f i libucrt:output.obj
 0001:00033e58       ?wide_null_string@?$output_processor@DV?$string_output_adapter@D@__crt_stdio_output@@V?$format_validation_base@DV?$string_output_adapter@D@__crt_stdio_output@@@2@@__crt_stdio_output@@CAPA_WXZ 10034e58 f i libucrt:output.obj
 0001:00033e5e       ?wide_null_string@?$output_processor@DV?$string_output_adapter@D@__crt_stdio_output@@V?$positional_parameter_base@DV?$string_output_adapter@D@__crt_stdio_output@@@2@@__crt_stdio_output@@CAPA_WXZ 10034e5e f i libucrt:output.obj
 0001:00033e64       ?wide_null_string@?$output_processor@DV?$string_output_adapter@D@__crt_stdio_output@@V?$standard_base@DV?$string_output_adapter@D@__crt_stdio_output@@@2@@__crt_stdio_output@@CAPA_WXZ 10034e64 f i libucrt:output.obj
 0001:00033e6a       ?wide_null_string@?$output_processor@_WV?$stream_output_adapter@_W@__crt_stdio_output@@V?$format_validation_base@_WV?$stream_output_adapter@_W@__crt_stdio_output@@@2@@__crt_stdio_output@@CAPA_WXZ 10034e6a f i libucrt:output.obj
 0001:00033e70       ?wide_null_string@?$output_processor@_WV?$stream_output_adapter@_W@__crt_stdio_output@@V?$positional_parameter_base@_WV?$stream_output_adapter@_W@__crt_stdio_output@@@2@@__crt_stdio_output@@CAPA_WXZ 10034e70 f i libucrt:output.obj
 0001:00033e76       ?wide_null_string@?$output_processor@_WV?$stream_output_adapter@_W@__crt_stdio_output@@V?$standard_base@_WV?$stream_output_adapter@_W@__crt_stdio_output@@@2@@__crt_stdio_output@@CAPA_WXZ 10034e76 f i libucrt:output.obj
 0001:00033e7c       ?wide_null_string@?$output_processor@_WV?$string_output_adapter@_W@__crt_stdio_output@@V?$format_validation_base@_WV?$string_output_adapter@_W@__crt_stdio_output@@@2@@__crt_stdio_output@@CAPA_WXZ 10034e7c f i libucrt:output.obj
 0001:00033e82       ?wide_null_string@?$output_processor@_WV?$string_output_adapter@_W@__crt_stdio_output@@V?$positional_parameter_base@_WV?$string_output_adapter@_W@__crt_stdio_output@@@2@@__crt_stdio_output@@CAPA_WXZ 10034e82 f i libucrt:output.obj
 0001:00033e88       ?wide_null_string@?$output_processor@_WV?$string_output_adapter@_W@__crt_stdio_output@@V?$standard_base@_WV?$string_output_adapter@_W@__crt_stdio_output@@@2@@__crt_stdio_output@@CAPA_WXZ 10034e88 f i libucrt:output.obj
 0001:00033e8e       ?write_character@?$output_adapter_common@DV?$stream_output_adapter@D@__crt_stdio_output@@@__crt_stdio_output@@QBEXDQAHAAV__crt_cached_ptd_host@@@Z 10034e8e f i libucrt:output.obj
 0001:00033eb0       ?write_character@?$output_adapter_common@_WV?$stream_output_adapter@_W@__crt_stdio_output@@@__crt_stdio_output@@QBEX_WQAHAAV__crt_cached_ptd_host@@@Z 10034eb0 f i libucrt:output.obj
 0001:00033ed2       ?write_character@?$string_output_adapter@D@__crt_stdio_output@@QBE_NDQAHAAV__crt_cached_ptd_host@@@Z 10034ed2 f i libucrt:output.obj
 0001:00033f14       ?write_character@?$string_output_adapter@_W@__crt_stdio_output@@QBE_N_WQAHAAV__crt_cached_ptd_host@@@Z 10034f14 f i libucrt:output.obj
 0001:00033f59       ?write_character_without_count_update@?$stream_output_adapter@D@__crt_stdio_output@@QBE_NDAAV__crt_cached_ptd_host@@@Z 10034f59 f i libucrt:output.obj
 0001:00033f93       ?write_character_without_count_update@?$stream_output_adapter@_W@__crt_stdio_output@@QBE_N_WAAV__crt_cached_ptd_host@@@Z 10034f93 f i libucrt:output.obj
 0001:00033fd0       ?write_stored_string_tchar@?$output_processor@DV?$stream_output_adapter@D@__crt_stdio_output@@V?$format_validation_base@DV?$stream_output_adapter@D@__crt_stdio_output@@@2@@__crt_stdio_output@@AAE_ND@Z 10034fd0 f i libucrt:output.obj
 0001:0003407b       ?write_stored_string_tchar@?$output_processor@DV?$stream_output_adapter@D@__crt_stdio_output@@V?$positional_parameter_base@DV?$stream_output_adapter@D@__crt_stdio_output@@@2@@__crt_stdio_output@@AAE_ND@Z 1003507b f i libucrt:output.obj
 0001:00034126       ?write_stored_string_tchar@?$output_processor@DV?$stream_output_adapter@D@__crt_stdio_output@@V?$standard_base@DV?$stream_output_adapter@D@__crt_stdio_output@@@2@@__crt_stdio_output@@AAE_ND@Z 10035126 f i libucrt:output.obj
 0001:000341d1       ?write_stored_string_tchar@?$output_processor@DV?$string_output_adapter@D@__crt_stdio_output@@V?$format_validation_base@DV?$string_output_adapter@D@__crt_stdio_output@@@2@@__crt_stdio_output@@AAE_ND@Z 100351d1 f i libucrt:output.obj
 0001:0003427c       ?write_stored_string_tchar@?$output_processor@DV?$string_output_adapter@D@__crt_stdio_output@@V?$positional_parameter_base@DV?$string_output_adapter@D@__crt_stdio_output@@@2@@__crt_stdio_output@@AAE_ND@Z 1003527c f i libucrt:output.obj
 0001:00034327       ?write_stored_string_tchar@?$output_processor@DV?$string_output_adapter@D@__crt_stdio_output@@V?$standard_base@DV?$string_output_adapter@D@__crt_stdio_output@@@2@@__crt_stdio_output@@AAE_ND@Z 10035327 f i libucrt:output.obj
 0001:000343d2       ?write_stored_string_tchar@?$output_processor@_WV?$stream_output_adapter@_W@__crt_stdio_output@@V?$format_validation_base@_WV?$stream_output_adapter@_W@__crt_stdio_output@@@2@@__crt_stdio_output@@AAE_N_W@Z 100353d2 f i libucrt:output.obj
 0001:0003447f       ?write_stored_string_tchar@?$output_processor@_WV?$stream_output_adapter@_W@__crt_stdio_output@@V?$positional_parameter_base@_WV?$stream_output_adapter@_W@__crt_stdio_output@@@2@@__crt_stdio_output@@AAE_N_W@Z 1003547f f i libucrt:output.obj
 0001:0003452c       ?write_stored_string_tchar@?$output_processor@_WV?$stream_output_adapter@_W@__crt_stdio_output@@V?$standard_base@_WV?$stream_output_adapter@_W@__crt_stdio_output@@@2@@__crt_stdio_output@@AAE_N_W@Z 1003552c f i libucrt:output.obj
 0001:000345d9       ?write_stored_string_tchar@?$output_processor@_WV?$string_output_adapter@_W@__crt_stdio_output@@V?$format_validation_base@_WV?$string_output_adapter@_W@__crt_stdio_output@@@2@@__crt_stdio_output@@AAE_N_W@Z 100355d9 f i libucrt:output.obj
 0001:000346b6       ?write_stored_string_tchar@?$output_processor@_WV?$string_output_adapter@_W@__crt_stdio_output@@V?$positional_parameter_base@_WV?$string_output_adapter@_W@__crt_stdio_output@@@2@@__crt_stdio_output@@AAE_N_W@Z 100356b6 f i libucrt:output.obj
 0001:00034793       ?write_stored_string_tchar@?$output_processor@_WV?$string_output_adapter@_W@__crt_stdio_output@@V?$standard_base@_WV?$string_output_adapter@_W@__crt_stdio_output@@@2@@__crt_stdio_output@@AAE_N_W@Z 10035793 f i libucrt:output.obj
 0001:00034870       ?write_string@?$stream_output_adapter@D@__crt_stdio_output@@QBEXQBDHQAHAAV__crt_cached_ptd_host@@@Z 10035870 f i libucrt:output.obj
 0001:0003489c       ?write_string@?$stream_output_adapter@_W@__crt_stdio_output@@QBEXQB_WHQAHAAV__crt_cached_ptd_host@@@Z 1003589c f i libucrt:output.obj
 0001:000348c8       ?write_string@?$string_output_adapter@D@__crt_stdio_output@@QBEXQBDHQAHAAV__crt_cached_ptd_host@@@Z 100358c8 f i libucrt:output.obj
 0001:0003492f       ?write_string@?$string_output_adapter@_W@__crt_stdio_output@@QBEXQB_WHQAHAAV__crt_cached_ptd_host@@@Z 1003592f f i libucrt:output.obj
 0001:000349a0       ?write_string_impl@?$output_adapter_common@DV?$stream_output_adapter@D@__crt_stdio_output@@@__crt_stdio_output@@IBEXQBDHQAHAAV__crt_cached_ptd_host@@@Z 100359a0 f i libucrt:output.obj
 0001:00034a1f       ?write_string_impl@?$output_adapter_common@_WV?$stream_output_adapter@_W@__crt_stdio_output@@@__crt_stdio_output@@IBEXQB_WHQAHAAV__crt_cached_ptd_host@@@Z 10035a1f f i libucrt:output.obj
 0001:00034aa1       ___acrt_disable_global_locale_sync 10035aa1 f i libucrt:output.obj
 0001:00034ab4       ___acrt_isleadbyte_l_noupdate 10035ab4 f i libucrt:output.obj
 0001:00034ad2       ___acrt_locale_get_ctype_array_value 10035ad2 f i libucrt:output.obj
 0001:00034af4       ___ascii_iswalpha          10035af4 f i libucrt:output.obj
 0001:00034b17       ___ascii_toupper           10035b17 f i libucrt:output.obj
 0001:00034b2e       ___ascii_towupper          10035b2e f i libucrt:output.obj
 0001:00034b45       ___stdio_common_vfprintf   10035b45 f   libucrt:output.obj
 0001:00034be9       ___stdio_common_vfprintf_p 10035be9 f   libucrt:output.obj
 0001:00034c8d       ___stdio_common_vfprintf_s 10035c8d f   libucrt:output.obj
 0001:00034d31       ___stdio_common_vfwprintf  10035d31 f   libucrt:output.obj
 0001:00034dd5       ___stdio_common_vfwprintf_p 10035dd5 f   libucrt:output.obj
 0001:00034e79       ___stdio_common_vfwprintf_s 10035e79 f   libucrt:output.obj
 0001:00034f1d       ___stdio_common_vsnprintf_s 10035f1d f   libucrt:output.obj
 0001:00034f61       ___stdio_common_vsnwprintf_s 10035f61 f   libucrt:output.obj
 0001:00034fa5       ___stdio_common_vsprintf   10035fa5 f   libucrt:output.obj
 0001:00034fe6       ___stdio_common_vsprintf_p 10035fe6 f   libucrt:output.obj
 0001:00035027       ___stdio_common_vsprintf_s 10036027 f   libucrt:output.obj
 0001:00035068       ___stdio_common_vswprintf  10036068 f   libucrt:output.obj
 0001:000350a9       ___stdio_common_vswprintf_p 100360a9 f   libucrt:output.obj
 0001:000350ea       ___stdio_common_vswprintf_s 100360ea f   libucrt:output.obj
 0001:0003512b       __ctype_fast_check_internal 1003612b f i libucrt:output.obj
 0001:00035145       __isdigit_fast_internal    10036145 f i libucrt:output.obj
 0001:0003515f       __tolower_fast_internal    1003615f f i libucrt:output.obj
 0001:00035178       _wmemcpy                   10036178 f i libucrt:wmemcpy_s.obj
 0001:00035193       _wmemcpy_s                 10036193 f   libucrt:wmemcpy_s.obj
 0001:00035217       _wmemset                   10036217 f i libucrt:wmemcpy_s.obj
 0001:00035243       _free                      10036243 f   libucrt:free.obj
 0001:0003525e       ??0?$__crt_scoped_stack_ptr@_W@@QAE@U?$__crt_scoped_stack_ptr_tag@_W@@@Z 1003625e f i libucrt:wcsupr.obj
 0001:0003526e       ??0?$__crt_scoped_stack_ptr_tag@_W@@QAE@QA_W@Z 1003626e f i libucrt:wcsupr.obj
 0001:0003527e       ??0_LocaleUpdate@@QAE@QAU__crt_locale_pointers@@@Z 1003627e f i libucrt:wcsupr.obj
 0001:00035300       ??1?$__crt_scoped_stack_ptr@_W@@QAE@XZ 10036300 f i libucrt:wcsupr.obj
 0001:00035309       ??1_LocaleUpdate@@QAE@XZ   10036309 f i libucrt:wcsupr.obj
 0001:00035319       ?GetLocaleT@_LocaleUpdate@@QAEPAU__crt_locale_pointers@@XZ 10036319 f i libucrt:wcsupr.obj
 0001:00035496       ?get@?$__crt_scoped_stack_ptr@_W@@QBEPA_WXZ 10036496 f i libucrt:wcsupr.obj
 0001:00035499       __MallocaComputeSize       10036499 f i libucrt:wcsupr.obj
 0001:000354ac       __MarkAllocaS              100364ac f i libucrt:wcsupr.obj
 0001:000354c2       __freea_crt                100364c2 f i libucrt:wcsupr.obj
 0001:000354e2       __wcsupr                   100364e2 f   libucrt:wcsupr.obj
 0001:0003554f       __wcsupr_l                 1003654f f   libucrt:wcsupr.obj
 0001:00035569       __wcsupr_s                 10036569 f   libucrt:wcsupr.obj
 0001:00035580       __wcsupr_s_l               10036580 f   libucrt:wcsupr.obj
 0001:000355b7       _malloc                    100365b7 f   libucrt:malloc.obj
 0001:000355c2       _realloc                   100365c2 f   libucrt:realloc.obj
 0001:000355cd       ??$?B$$A6GXPAXK0@Z@__crt_fast_encoded_nullptr_t@@QBEP6GXPAXK0@ZXZ 100365cd f i libucrt:exit.obj
 0001:00035675       ??$__crt_fast_decode_pointer@P6GXPAXK0@Z@@YAP6GXPAXK0@ZQ6GX0K0@Z@Z 10036675 f i libucrt:exit.obj
 0001:00035690       ??$__crt_fast_encode_pointer@P6GXPAXK0@Z@@YAP6GXPAXK0@ZQ6GX0K0@Z@Z 10036690 f i libucrt:exit.obj
 0001:000356af       ??$__crt_get_proc_address@P6GXI@Z@@YAP6GXI@ZQAUHINSTANCE__@@QBD@Z 100366af f i libucrt:exit.obj
 0001:00035702       ??0?$__crt_unique_handle_t@U__crt_hmodule_traits@@@@QAE@QAUHINSTANCE__@@@Z 10036702 f i libucrt:exit.obj
 0001:00035712       ??1?$__crt_unique_handle_t@U__crt_hmodule_traits@@@@QAE@XZ 10036712 f i libucrt:exit.obj
 0001:00035823       ?__acrt_select_exit_lock@@YA?AW4__acrt_lock_id@@XZ 10036823 f i libucrt:exit.obj
 0001:00035827       ?__crt_fast_encode_pointer@@YA?AU__crt_fast_encoded_nullptr_t@@$$T@Z 10036827 f i libucrt:exit.obj
 0001:00035845       ?close@?$__crt_unique_handle_t@U__crt_hmodule_traits@@@@QAEXXZ 10036845 f i libucrt:exit.obj
 0001:0003585c       ?close@__crt_hmodule_traits@@SA_NPAUHINSTANCE__@@@Z 1003685c f i libucrt:exit.obj
 0001:00035939       ?get@?$__crt_unique_handle_t@U__crt_hmodule_traits@@@@QBEPAUHINSTANCE__@@XZ 10036939 f i libucrt:exit.obj
 0001:0003593c       ?get_address_of@?$__crt_unique_handle_t@U__crt_hmodule_traits@@@@QAEPAPAUHINSTANCE__@@XZ 1003693c f i libucrt:exit.obj
 0001:0003593f       ?get_invalid_value@__crt_hmodule_traits@@SAPAUHINSTANCE__@@XZ 1003693f f i libucrt:exit.obj
 0001:00035a1f       __Exit                     10036a1f f   libucrt:exit.obj
 0001:00035a35       ___acrt_initialize_thread_local_exit_callback 10036a35 f   libucrt:exit.obj
 0001:00035a44       __c_exit                   10036a44 f   libucrt:exit.obj
 0001:00035a53       __cexit                    10036a53 f   libucrt:exit.obj
 0001:00035a62       __exit                     10036a62 f   libucrt:exit.obj
 0001:00035a78       __is_c_termination_complete 10036a78 f   libucrt:exit.obj
 0001:00035a7f       __register_thread_local_exe_atexit_callback 10036a7f f   libucrt:exit.obj
 0001:00035aa5       _exit                      10036aa5 f   libucrt:exit.obj
 0001:00035abb       _quick_exit                10036abb f   libucrt:exit.obj
 0001:00035ad1       __set_abort_behavior       10036ad1 f   libucrt:abort.obj
 0001:00035af2       _abort                     10036af2 f   libucrt:abort.obj
 0001:00035b36       ___iswcsym                 10036b36 f i libucrt:_wctype.obj
 0001:00035b5c       ___iswcsymf                10036b5c f i libucrt:_wctype.obj
 0001:00035b82       __isleadbyte_l             10036b82 f i libucrt:_wctype.obj
 0001:00035bbc       __iswalnum_l               10036bbc f i libucrt:_wctype.obj
 0001:00035bd2       __iswalpha_l               10036bd2 f i libucrt:_wctype.obj
 0001:00035be8       __iswblank_l               10036be8 f i libucrt:_wctype.obj
 0001:00035c05       __iswcntrl_l               10036c05 f i libucrt:_wctype.obj
 0001:00035c18       __iswcsym_l                10036c18 f i libucrt:_wctype.obj
 0001:00035c3e       __iswcsymf_l               10036c3e f i libucrt:_wctype.obj
 0001:00035c64       __iswdigit_l               10036c64 f i libucrt:_wctype.obj
 0001:00035c77       __iswgraph_l               10036c77 f i libucrt:_wctype.obj
 0001:00035c8d       __iswlower_l               10036c8d f i libucrt:_wctype.obj
 0001:00035ca0       __iswprint_l               10036ca0 f i libucrt:_wctype.obj
 0001:00035cb6       __iswpunct_l               10036cb6 f i libucrt:_wctype.obj
 0001:00035cc9       __iswspace_l               10036cc9 f i libucrt:_wctype.obj
 0001:00035cdc       __iswupper_l               10036cdc f i libucrt:_wctype.obj
 0001:00035cef       __iswxdigit_l              10036cef f i libucrt:_wctype.obj
 0001:00035d05       _isleadbyte                10036d05 f i libucrt:_wctype.obj
 0001:00035d18       _iswalnum                  10036d18 f i libucrt:_wctype.obj
 0001:00035d2e       _iswalpha                  10036d2e f i libucrt:_wctype.obj
 0001:00035d44       _iswascii                  10036d44 f i libucrt:_wctype.obj
 0001:00035d58       _iswblank                  10036d58 f i libucrt:_wctype.obj
 0001:00035d75       _iswcntrl                  10036d75 f i libucrt:_wctype.obj
 0001:00035d88       _iswdigit                  10036d88 f i libucrt:_wctype.obj
 0001:00035d9b       _iswgraph                  10036d9b f i libucrt:_wctype.obj
 0001:00035db1       _iswlower                  10036db1 f i libucrt:_wctype.obj
 0001:00035dc4       _iswprint                  10036dc4 f i libucrt:_wctype.obj
 0001:00035dda       _iswpunct                  10036dda f i libucrt:_wctype.obj
 0001:00035ded       _iswspace                  10036ded f i libucrt:_wctype.obj
 0001:00035e00       _iswupper                  10036e00 f i libucrt:_wctype.obj
 0001:00035e13       _iswxdigit                 10036e13 f i libucrt:_wctype.obj
 0001:00035e29       _wcscmp                    10036e29 f   libucrt:wcscmp.obj
 0001:00035e69       ___ascii_tolower           10036e69 f i libucrt:wcsicmp.obj
 0001:00035e80       ___ascii_towlower          10036e80 f i libucrt:wcsicmp.obj
 0001:00035e97       ___ascii_wcsicmp           10036e97 f   libucrt:wcsicmp.obj
 0001:00035ed4       __towlower_fast_internal   10036ed4 f i libucrt:wcsicmp.obj
 0001:00035eff       __towlower_internal        10036eff f i libucrt:wcsicmp.obj
 0001:00035f3e       __wcsicmp                  10036f3e f   libucrt:wcsicmp.obj
 0001:00035f87       __wcsicmp_l                10036f87 f   libucrt:wcsicmp.obj
 0001:0003603f       ??B?$__crt_scoped_stack_ptr@_W@@QBE_NXZ 1003703f f i libucrt:wcslwr.obj
 0001:000361bf       __wcslwr                   100371bf f   libucrt:wcslwr.obj
 0001:0003622c       __wcslwr_l                 1003722c f   libucrt:wcslwr.obj
 0001:00036246       __wcslwr_s                 10037246 f   libucrt:wcslwr.obj
 0001:0003625d       __wcslwr_s_l               1003725d f   libucrt:wcslwr.obj
 0001:00036294       ??$?RPAU__crt_stdio_stream_data@@@__crt_internal_free_policy@@QBEXQBQAU__crt_stdio_stream_data@@@Z 10037294 f i libucrt:_file.obj
 0001:000362a6       ??0?$__crt_unique_heap_ptr@PAU__crt_stdio_stream_data@@U__crt_internal_free_policy@@@@QAE@QAPAU__crt_stdio_stream_data@@@Z 100372a6 f i libucrt:_file.obj
 0001:000362b6       ??1?$__crt_unique_heap_ptr@PAU__crt_stdio_stream_data@@U__crt_internal_free_policy@@@@QAE@XZ 100372b6 f i libucrt:_file.obj
 0001:000362c8       ?detach@?$__crt_unique_heap_ptr@PAU__crt_stdio_stream_data@@U__crt_internal_free_policy@@@@QAEPAPAU__crt_stdio_stream_data@@XZ 100372c8 f i libucrt:_file.obj
 0001:000362ce       ?release@?$__crt_unique_heap_ptr@PAU__crt_stdio_stream_data@@U__crt_internal_free_policy@@@@QAEXXZ 100372ce f i libucrt:_file.obj
 0001:000362e0       ___acrt_initialize_stdio   100372e0 f   libucrt:_file.obj
 0001:000363a8       ___acrt_iob_func           100373a8 f   libucrt:_file.obj
 0001:000363b8       ___acrt_uninitialize_stdio 100373b8 f   libucrt:_file.obj
 0001:00036404       __get_stream_buffer_pointers 10037404 f   libucrt:_file.obj
 0001:0003644a       __lock_file                1003744a f   libucrt:_file.obj
 0001:0003645e       __unlock_file              1003745e f   libucrt:_file.obj
 0001:0003661e       _fputws                    1003761e f   libucrt:fputws.obj
 0001:0003689d       ??$open_file@ABQBDABQBDABHPAU_iobuf@@@?$__crt_char_traits@D@@SAPAU_iobuf@@ABQBD0ABH$$QAPAU1@@Z 1003789d f i libucrt:fopen.obj
 0001:000368c0       ??$open_file@ABQB_WABQB_WABHPAU_iobuf@@@?$__crt_char_traits@_W@@SAPAU_iobuf@@ABQB_W0ABH$$QAPAU1@@Z 100378c0 f i libucrt:fopen.obj
 0001:000368e3       ?unlock@__crt_stdio_stream@@QBEXXZ 100378e3 f i libucrt:fopen.obj
 0001:000368ec       __fsopen                   100378ec f   libucrt:fopen.obj
 0001:000368f7       __wfopen                   100378f7 f   libucrt:fopen.obj
 0001:0003690e       __wfopen_s                 1003790e f   libucrt:fopen.obj
 0001:00036955       __wfsopen                  10037955 f   libucrt:fopen.obj
 0001:00036960       _fopen                     10037960 f   libucrt:fopen.obj
 0001:00036977       _fopen_s                   10037977 f   libucrt:fopen.obj
 0001:000369be       ??$?R_W@__crt_internal_free_policy@@QBEXQB_W@Z 100379be f i libucrt:wcsftime.obj
 0001:000369d0       ??$__crt_time_is_leap_year@H@@YA_NH@Z 100379d0 f i libucrt:wcsftime.obj
 0001:00036a13       ??0?$__crt_unique_heap_ptr@_WU__crt_internal_free_policy@@@@QAE@QA_W@Z 10037a13 f i libucrt:wcsftime.obj
 0001:00036a23       ??1?$__crt_unique_heap_ptr@_WU__crt_internal_free_policy@@@@QAE@XZ 10037a23 f i libucrt:wcsftime.obj
 0001:00036a35       ?__crt_get_2digit_year@@YAHH@Z 10037a35 f i libucrt:wcsftime.obj
 0001:00036a4c       ?__crt_get_century@@YAHH@Z 10037a4c f i libucrt:wcsftime.obj
 0001:00036b89       ?detach@?$__crt_unique_heap_ptr@_WU__crt_internal_free_policy@@@@QAEPA_WXZ 10037b89 f i libucrt:wcsftime.obj
 0001:00037563       ?get@?$__crt_unique_heap_ptr@_WU__crt_internal_free_policy@@@@QBEPA_WXZ 10038563 f i libucrt:wcsftime.obj
 0001:00037566       ?release@?$__crt_unique_heap_ptr@_WU__crt_internal_free_policy@@@@QAEXXZ 10038566 f i libucrt:wcsftime.obj
 0001:00037af6       __W_Getdays                10038af6 f   libucrt:wcsftime.obj
 0001:00037c55       __W_Getmonths              10038c55 f   libucrt:wcsftime.obj
 0001:00037db4       __W_Gettnames              10038db4 f   libucrt:wcsftime.obj
 0001:000384b0       __Wcsftime                 100394b0 f   libucrt:wcsftime.obj
 0001:000384d0       __Wcsftime_l               100394d0 f   libucrt:wcsftime.obj
 0001:00038630       __invoke_watson_if_error   10039630 f i libucrt:wcsftime.obj
 0001:00038652       __wcsftime_l               10039652 f   libucrt:wcsftime.obj
 0001:00038672       _wcsftime                  10039672 f   libucrt:wcsftime.obj
 0001:000387b6       ?is_in_use@__crt_stdio_stream@@QBE_NXZ 100397b6 f i libucrt:fclose.obj
 0001:000387c2       __fclose_nolock            100397c2 f   libucrt:fclose.obj
 0001:000387f2       _fclose                    100397f2 f   libucrt:fclose.obj
 0001:00038a5f       _fputs                     10039a5f f   libucrt:fputs.obj
 0001:00038a93       ??$?RU__acrt_thread_parameter@@@__crt_internal_free_policy@@QBEXQBU__acrt_thread_parameter@@@Z 10039a93 f i libucrt:thread.obj
 0001:00038ba3       ??0?$__crt_unique_heap_ptr@U__acrt_thread_parameter@@U__crt_internal_free_policy@@@@QAE@QAU__acrt_thread_parameter@@@Z 10039ba3 f i libucrt:thread.obj
 0001:00038bc3       ??1?$__crt_unique_heap_ptr@U__acrt_thread_parameter@@U__crt_internal_free_policy@@@@QAE@XZ 10039bc3 f i libucrt:thread.obj
 0001:00038cf1       ?detach@?$__crt_unique_heap_ptr@U__acrt_thread_parameter@@U__crt_internal_free_policy@@@@QAEPAU__acrt_thread_parameter@@XZ 10039cf1 f i libucrt:thread.obj
 0001:00038d07       ?release@?$__crt_unique_heap_ptr@U__acrt_thread_parameter@@U__crt_internal_free_policy@@@@QAEXXZ 10039d07 f i libucrt:thread.obj
 0001:00038d50       __beginthread              10039d50 f   libucrt:thread.obj
 0001:00038dde       __beginthreadex            10039dde f   libucrt:thread.obj
 0001:00038e61       __endthread                10039e61 f   libucrt:thread.obj
 0001:00038e69       __endthreadex              10039e69 f   libucrt:thread.obj
 0001:00038e77       ??$?B$$A6AXH@Z@__crt_fast_encoded_nullptr_t@@QBEP6AXH@ZXZ 10039e77 f i libucrt:signal.obj
 0001:00038f0b       ??$__crt_fast_decode_pointer@P6AXH@Z@@YAP6AXH@ZQ6AXH@Z@Z 10039f0b f i libucrt:signal.obj
 0001:00038f26       ??$__crt_fast_encode_pointer@P6AXH@Z@@YAP6AXH@ZQ6AXH@Z@Z 10039f26 f i libucrt:signal.obj
 0001:00039082       ?initialize@?$dual_state_global@P6AXH@Z@__crt_state_management@@QAEXQ6AXH@Z@Z 1003a082 f i libucrt:signal.obj
 0001:0003912c       ?value@?$dual_state_global@P6AXH@Z@__crt_state_management@@QAEAAP6AXH@ZXZ 1003a12c f i libucrt:signal.obj
 0001:0003912f       ___acrt_get_sigabrt_handler 1003a12f f   libucrt:signal.obj
 0001:00039156       ___acrt_initialize_signal_handlers 1003a156 f   libucrt:signal.obj
 0001:00039174       ___fpecode                 1003a174 f   libucrt:signal.obj
 0001:0003917d       ___pxcptinfoptrs           1003a17d f   libucrt:signal.obj
 0001:00039186       _raise                     1003a186 f   libucrt:signal.obj
 0001:00039378       _signal                    1003a378 f   libucrt:signal.obj
 0001:00039a38       ??$gmtime_s@ABQAUtm@@ABQBJ@?$__crt_integer_traits@J@@SAHABQAUtm@@ABQBJ@Z 1003aa38 f i libucrt:localtime.obj
 0001:00039a50       ??$gmtime_s@ABQAUtm@@ABQB_J@?$__crt_integer_traits@_J@@SAHABQAUtm@@ABQB_J@Z 1003aa50 f i libucrt:localtime.obj
 0001:00039a68       ??$gmtime_s@ABQAUtm@@PAJ@?$__crt_integer_traits@J@@SAHABQAUtm@@$$QAPAJ@Z 1003aa68 f i libucrt:localtime.obj
 0001:00039a80       ??$gmtime_s@ABQAUtm@@PA_J@?$__crt_integer_traits@_J@@SAHABQAUtm@@$$QAPA_J@Z 1003aa80 f i libucrt:localtime.obj
 0001:00039a98       ??$localtime_s@ABQAUtm@@ABQBJ@?$__crt_integer_traits@J@@SAHABQAUtm@@ABQBJ@Z 1003aa98 f i libucrt:localtime.obj
 0001:00039ab1       ??$localtime_s@ABQAUtm@@ABQB_J@?$__crt_integer_traits@_J@@SAHABQAUtm@@ABQB_J@Z 1003aab1 f i libucrt:localtime.obj
 0001:00039aca       __localtime32              1003aaca f   libucrt:localtime.obj
 0001:00039af1       __localtime32_s            1003aaf1 f   libucrt:localtime.obj
 0001:00039afc       __localtime64              1003aafc f   libucrt:localtime.obj
 0001:00039b23       __localtime64_s            1003ab23 f   libucrt:localtime.obj
 0001:00039e3d       __time32                   1003ae3d f   libucrt:time.obj
 0001:00039e9c       __time64                   1003ae9c f   libucrt:time.obj
 0001:00039f04       __timespec32_get           1003af04 f   libucrt:time.obj
 0001:00039f0f       __timespec64_get           1003af0f f   libucrt:time.obj
 0001:00039f30       __get_terminate            1003af30 f   libucrt:terminate.obj
 0001:00039f42       _set_terminate             1003af42 f   libucrt:terminate.obj
 0001:00039f62       _terminate                 1003af62 f   libucrt:terminate.obj
 0001:00039f9e       __recalloc                 1003af9e f   libucrt:recalloc.obj
 0001:00039fa9       __recalloc_base            1003afa9 f   libucrt:recalloc.obj
 0001:0003a020       _strlen                    1003b020 f   libucrt:strlen.obj
 0001:0003a0ab       ??$?B$$A6AHI@Z@__crt_fast_encoded_nullptr_t@@QBEP6AHI@ZXZ 1003b0ab f i libucrt:new_handler.obj
 0001:0003a0b1       ??$__crt_fast_decode_pointer@P6AHI@Z@@YAP6AHI@ZQ6AHI@Z@Z 1003b0b1 f i libucrt:new_handler.obj
 0001:0003a0cc       ??$__crt_fast_encode_pointer@P6AHI@Z@@YAP6AHI@ZQ6AHI@Z@Z 1003b0cc f i libucrt:new_handler.obj
 0001:0003a0eb       ?_set_new_handler@@YAP6AHI@ZH@Z 1003b0eb f   libucrt:new_handler.obj
 0001:0003a0f8       ?initialize@?$dual_state_global@P6AHI@Z@__crt_state_management@@QAEXQ6AHI@Z@Z 1003b0f8 f i libucrt:new_handler.obj
 0001:0003a114       ?value@?$dual_state_global@P6AHI@Z@__crt_state_management@@QAEAAP6AHI@ZXZ 1003b114 f i libucrt:new_handler.obj
 0001:0003a117       ___acrt_initialize_new_handler 1003b117 f   libucrt:new_handler.obj
 0001:0003a126       __callnewh                 1003b126 f   libucrt:new_handler.obj
 0001:0003a152       __query_new_handler        1003b152 f   libucrt:new_handler.obj
 0001:0003a1a9       __set_new_handler          1003b1a9 f   libucrt:new_handler.obj
 0001:0003a232       __seh_filter_dll           1003b232 f   libucrt:exception_filter.obj
 0001:0003a252       __seh_filter_exe           1003b252 f   libucrt:exception_filter.obj
 0001:0003a398       ??$?RE@__crt_internal_free_policy@@QBEXQBE@Z 1003b398 f i libucrt:argv_parsing.obj
 0001:0003a3aa       ??$?RPAD@__crt_internal_free_policy@@QBEXQBQAD@Z 1003b3aa f i libucrt:argv_parsing.obj
 0001:0003a3bc       ??$?RPA_W@__crt_internal_free_policy@@QBEXQBQA_W@Z 1003b3bc f i libucrt:argv_parsing.obj
 0001:0003a641       ??$get_module_file_name@$$TAAY0BAF@DH@?$__crt_char_traits@D@@SAK$$QA$$TAAY0BAF@D$$QAH@Z 1003b641 f i libucrt:argv_parsing.obj
 0001:0003a65d       ??$get_module_file_name@$$TAAY0BAF@_WH@?$__crt_char_traits@_W@@SAK$$QA$$TAAY0BAF@_W$$QAH@Z 1003b65d f i libucrt:argv_parsing.obj
 0001:0003a98c       ??$set_program_name@PAD@?$__crt_char_traits@D@@SAX$$QAPAD@Z 1003b98c f i libucrt:argv_parsing.obj
 0001:0003a99d       ??$set_program_name@PA_W@?$__crt_char_traits@_W@@SAX$$QAPA_W@Z 1003b99d f i libucrt:argv_parsing.obj
 0001:0003a9ce       ??0?$__crt_unique_heap_ptr@EU__crt_internal_free_policy@@@@QAE@QAE@Z 1003b9ce f i libucrt:argv_parsing.obj
 0001:0003a9de       ??0?$__crt_unique_heap_ptr@PADU__crt_internal_free_policy@@@@QAE@QAPAD@Z 1003b9de f i libucrt:argv_parsing.obj
 0001:0003a9ee       ??0?$__crt_unique_heap_ptr@PA_WU__crt_internal_free_policy@@@@QAE@QAPA_W@Z 1003b9ee f i libucrt:argv_parsing.obj
 0001:0003a9fe       ??1?$__crt_unique_heap_ptr@EU__crt_internal_free_policy@@@@QAE@XZ 1003b9fe f i libucrt:argv_parsing.obj
 0001:0003aa10       ??1?$__crt_unique_heap_ptr@PADU__crt_internal_free_policy@@@@QAE@XZ 1003ba10 f i libucrt:argv_parsing.obj
 0001:0003aa22       ??1?$__crt_unique_heap_ptr@PA_WU__crt_internal_free_policy@@@@QAE@XZ 1003ba22 f i libucrt:argv_parsing.obj
 0001:0003aa34       ??B?$__crt_unique_heap_ptr@EU__crt_internal_free_policy@@@@QBE_NXZ 1003ba34 f i libucrt:argv_parsing.obj
 0001:0003aa67       ?detach@?$__crt_unique_heap_ptr@EU__crt_internal_free_policy@@@@QAEPAEXZ 1003ba67 f i libucrt:argv_parsing.obj
 0001:0003aa6d       ?detach@?$__crt_unique_heap_ptr@PADU__crt_internal_free_policy@@@@QAEPAPADXZ 1003ba6d f i libucrt:argv_parsing.obj
 0001:0003aa73       ?detach@?$__crt_unique_heap_ptr@PA_WU__crt_internal_free_policy@@@@QAEPAPA_WXZ 1003ba73 f i libucrt:argv_parsing.obj
 0001:0003aa97       ?get@?$__crt_unique_heap_ptr@EU__crt_internal_free_policy@@@@QBEPAEXZ 1003ba97 f i libucrt:argv_parsing.obj
 0001:0003aa9a       ?get@?$__crt_unique_heap_ptr@PADU__crt_internal_free_policy@@@@QBEPAPADXZ 1003ba9a f i libucrt:argv_parsing.obj
 0001:0003aa9d       ?get@?$__crt_unique_heap_ptr@PA_WU__crt_internal_free_policy@@@@QBEPAPA_WXZ 1003ba9d f i libucrt:argv_parsing.obj
 0001:0003aaa0       ?get_address_of@?$__crt_unique_heap_ptr@PADU__crt_internal_free_policy@@@@QAEPAPAPADXZ 1003baa0 f i libucrt:argv_parsing.obj
 0001:0003aaa3       ?get_address_of@?$__crt_unique_heap_ptr@PA_WU__crt_internal_free_policy@@@@QAEPAPAPA_WXZ 1003baa3 f i libucrt:argv_parsing.obj
 0001:0003aabe       ?is_valid@?$__crt_unique_heap_ptr@EU__crt_internal_free_policy@@@@QBE_NXZ 1003babe f i libucrt:argv_parsing.obj
 0001:0003aac5       ?release@?$__crt_unique_heap_ptr@EU__crt_internal_free_policy@@@@QAEXXZ 1003bac5 f i libucrt:argv_parsing.obj
 0001:0003aad7       ?release@?$__crt_unique_heap_ptr@PADU__crt_internal_free_policy@@@@QAEXXZ 1003bad7 f i libucrt:argv_parsing.obj
 0001:0003aae9       ?release@?$__crt_unique_heap_ptr@PA_WU__crt_internal_free_policy@@@@QAEXXZ 1003bae9 f i libucrt:argv_parsing.obj
 0001:0003ab15       ___acrt_allocate_buffer_for_argv 1003bb15 f   libucrt:argv_parsing.obj
 0001:0003ab64       __configure_narrow_argv    1003bb64 f   libucrt:argv_parsing.obj
 0001:0003ab6f       __configure_wide_argv      1003bb6f f   libucrt:argv_parsing.obj
 0001:0003ab7a       __set_pgmptr               1003bb7a f i libucrt:argv_parsing.obj
 0001:0003ab89       __set_wpgmptr              1003bb89 f i libucrt:argv_parsing.obj
 0001:0003afa2       ??$get_environment_from_os@$$V@?$__crt_char_traits@D@@SAPADXZ 1003bfa2 f i libucrt:environment_initialization.obj
 0001:0003afa7       ??$get_environment_from_os@$$V@?$__crt_char_traits@_W@@SAPA_WXZ 1003bfa7 f i libucrt:environment_initialization.obj
 0001:0003b0b0       ??$set_variable_in_environment_nolock@PADH@?$__crt_char_traits@D@@SAH$$QAPAD$$QAH@Z 1003c0b0 f i libucrt:environment_initialization.obj
 0001:0003b0c8       ??$set_variable_in_environment_nolock@PA_WH@?$__crt_char_traits@_W@@SAH$$QAPA_W$$QAH@Z 1003c0c8 f i libucrt:environment_initialization.obj
 0001:0003b0e0       ??$tcscpy_s@PADABIAAPAD@?$__crt_char_traits@D@@SAH$$QAPADABIAAPAD@Z 1003c0e0 f i libucrt:environment_initialization.obj
 0001:0003b0fe       ??$tcscpy_s@PA_WABIAAPA_W@?$__crt_char_traits@_W@@SAH$$QAPA_WABIAAPA_W@Z 1003c0fe f i libucrt:environment_initialization.obj
 0001:0003b11c       ??$tcslen@AAPAD@?$__crt_char_traits@D@@SAIAAPAD@Z 1003c11c f i libucrt:environment_initialization.obj
 0001:0003b134       ??$tcslen@AAPA_W@?$__crt_char_traits@_W@@SAIAAPA_W@Z 1003c134 f i libucrt:environment_initialization.obj
 0001:0003b152       ??$uninitialize@A6AXAAPAPAD@_E@?$dual_state_global@PAPAD@__crt_state_management@@QAEXA6AXAAPAPAD@_E@Z 1003c152 f i libucrt:environment_initialization.obj
 0001:0003b1aa       ??$uninitialize@A6AXAAPAPA_W@_E@?$dual_state_global@PAPA_W@__crt_state_management@@QAEXA6AXAAPAPA_W@_E@Z 1003c1aa f i libucrt:environment_initialization.obj
 0001:0003b238       ??B?$__crt_unique_heap_ptr@PADU__crt_internal_free_policy@@@@QBE_NXZ 1003c238 f i libucrt:environment_initialization.obj
 0001:0003b23f       ??B?$__crt_unique_heap_ptr@PA_WU__crt_internal_free_policy@@@@QBE_NXZ 1003c23f f i libucrt:environment_initialization.obj
 0001:0003b246       ??B?$__crt_unique_heap_ptr@_WU__crt_internal_free_policy@@@@QBE_NXZ 1003c246 f i libucrt:environment_initialization.obj
 0001:0003b24d       ?__crt_compute_required_transform_buffer_count@@YAIIQBD@Z 1003c24d f i libucrt:environment_initialization.obj
 0001:0003b269       ?__crt_compute_required_transform_buffer_count@@YAIIQB_W@Z 1003c269 f i libucrt:environment_initialization.obj
 0001:0003b287       ?__crt_transform_string@@YAIIQBDQA_WI@Z 1003c287 f i libucrt:environment_initialization.obj
 0001:0003b2a6       ?__crt_transform_string@@YAIIQB_WQADI@Z 1003c2a6 f i libucrt:environment_initialization.obj
 0001:0003b2c8       ?detach@?$__crt_unique_heap_ptr@DU__crt_internal_free_policy@@@@QAEPADXZ 1003c2c8 f i libucrt:environment_initialization.obj
 0001:0003b2f2       ?initialize@?$dual_state_global@PAPAD@__crt_state_management@@QAEXQAPAD@Z 1003c2f2 f i libucrt:environment_initialization.obj
 0001:0003b30e       ?initialize@?$dual_state_global@PAPA_W@__crt_state_management@@QAEXQAPA_W@Z 1003c30e f i libucrt:environment_initialization.obj
 0001:0003b32a       ?is_valid@?$__crt_unique_heap_ptr@PADU__crt_internal_free_policy@@@@QBE_NXZ 1003c32a f i libucrt:environment_initialization.obj
 0001:0003b331       ?is_valid@?$__crt_unique_heap_ptr@PA_WU__crt_internal_free_policy@@@@QBE_NXZ 1003c331 f i libucrt:environment_initialization.obj
 0001:0003b338       ?is_valid@?$__crt_unique_heap_ptr@_WU__crt_internal_free_policy@@@@QBE_NXZ 1003c338 f i libucrt:environment_initialization.obj
 0001:0003b347       ?value@?$dual_state_global@PAPAD@__crt_state_management@@QAEAAPAPADXZ 1003c347 f i libucrt:environment_initialization.obj
 0001:0003b34a       ?value@?$dual_state_global@PAPA_W@__crt_state_management@@QAEAAPAPA_WXZ 1003c34a f i libucrt:environment_initialization.obj
 0001:0003b34d       ___dcrt_get_or_create_narrow_environment_nolock 1003c34d f   libucrt:environment_initialization.obj
 0001:0003b352       ___dcrt_get_or_create_wide_environment_nolock 1003c352 f   libucrt:environment_initialization.obj
 0001:0003b357       ___dcrt_uninitialize_environments_nolock 1003c357 f   libucrt:environment_initialization.obj
 0001:0003b3a8       ___p__environ              1003c3a8 f   libucrt:environment_initialization.obj
 0001:0003b3ae       ___p__wenviron             1003c3ae f   libucrt:environment_initialization.obj
 0001:0003b3b4       __get_initial_narrow_environment 1003c3b4 f   libucrt:environment_initialization.obj
 0001:0003b3c8       __get_initial_wide_environment 1003c3c8 f   libucrt:environment_initialization.obj
 0001:0003b3dc       __initialize_narrow_environment 1003c3dc f   libucrt:environment_initialization.obj
 0001:0003b3e1       __initialize_wide_environment 1003c3e1 f   libucrt:environment_initialization.obj
 0001:0003b3e6       ??$?B$$A6AXXZ@__crt_fast_encoded_nullptr_t@@QBEP6AXXZXZ 1003c3e6 f i libucrt:onexit.obj
 0001:0003b3ec       ??$?BP6AXXZ@__crt_fast_encoded_nullptr_t@@QBEPAP6AXXZXZ 1003c3ec f i libucrt:onexit.obj
 0001:0003b3f2       ??$?RP6AXXZ@__crt_internal_free_policy@@QBEXQBQ6AXXZ@Z 1003c3f2 f i libucrt:onexit.obj
 0001:0003b535       ??$__crt_fast_decode_pointer@P6AXXZ@@YAP6AXXZQ6AXXZ@Z 1003c535 f i libucrt:onexit.obj
 0001:0003b550       ??$__crt_fast_decode_pointer@PAP6AXXZ@@YAPAP6AXXZQAP6AXXZ@Z 1003c550 f i libucrt:onexit.obj
 0001:0003b56b       ??$__crt_fast_encode_pointer@P6AHXZ@@YAP6AHXZQ6AHXZ@Z 1003c56b f i libucrt:onexit.obj
 0001:0003b58a       ??$__crt_fast_encode_pointer@P6AXXZ@@YAP6AXXZQ6AXXZ@Z 1003c58a f i libucrt:onexit.obj
 0001:0003b5a9       ??$__crt_fast_encode_pointer@PAP6AXXZ@@YAPAP6AXXZQAP6AXXZ@Z 1003c5a9 f i libucrt:onexit.obj
 0001:0003b636       ??0?$__crt_unique_heap_ptr@P6AXXZU__crt_internal_free_policy@@@@QAE@QAP6AXXZ@Z 1003c636 f i libucrt:onexit.obj
 0001:0003b646       ??1?$__crt_unique_heap_ptr@P6AXXZU__crt_internal_free_policy@@@@QAE@XZ 1003c646 f i libucrt:onexit.obj
 0001:0003b658       ??1scoped_global_state_reset@__crt_state_management@@QAE@XZ 1003c658 f i libucrt:onexit.obj
 0001:0003b85b       ?detach@?$__crt_unique_heap_ptr@P6AXXZU__crt_internal_free_policy@@@@QAEPAP6AXXZXZ 1003c85b f i libucrt:onexit.obj
 0001:0003b861       ?release@?$__crt_unique_heap_ptr@P6AXXZU__crt_internal_free_policy@@@@QAEXXZ 1003c861 f i libucrt:onexit.obj
 0001:0003b873       __crt_at_quick_exit        1003c873 f   libucrt:onexit.obj
 0001:0003b889       __crt_atexit               1003c889 f   libucrt:onexit.obj
 0001:0003b89f       __execute_onexit_table     1003c89f f   libucrt:onexit.obj
 0001:0003b8dd       __initialize_onexit_table  1003c8dd f   libucrt:onexit.obj
 0001:0003b906       __register_onexit_function 1003c906 f   libucrt:onexit.obj
 0001:0003ba15       ??$?BX@__crt_fast_encoded_nullptr_t@@QBEPAXXZ 1003ca15 f i libucrt:initialization.obj
 0001:0003ba1b       ??$__crt_fast_encode_pointer@PAX@@YAPAXQAX@Z 1003ca1b f i libucrt:initialization.obj
 0001:0003ba8c       ?__acrt_stdio_is_initialized@@YA_NXZ 1003ca8c f i libucrt:initialization.obj
 0001:0003ba97       ?initialize@?$dual_state_global@PAU__crt_locale_data@@@__crt_state_management@@QAEXQAU__crt_locale_data@@@Z 1003ca97 f i libucrt:initialization.obj
 0001:0003bab3       ___acrt_initialize         1003cab3 f   libucrt:initialization.obj
 0001:0003bac5       ___acrt_thread_attach      1003cac5 f   libucrt:initialization.obj
 0001:0003bad0       ___acrt_thread_detach      1003cad0 f   libucrt:initialization.obj
 0001:0003bad8       ___acrt_uninitialize       1003cad8 f   libucrt:initialization.obj
 0001:0003bb08       ___acrt_uninitialize_critical 1003cb08 f   libucrt:initialization.obj
 0001:0003bb1a       ?should_round_up@__crt_strtox@@YA_N_N000@Z 1003cb1a f i libucrt:fpexcept.obj
 0001:0003bb67       __errcode                  1003cb67 f   libucrt:fpexcept.obj
 0001:0003bb9b       __except1                  1003cb9b f   libucrt:fpexcept.obj
 0001:0003bc69       __except2                  1003cc69 f   libucrt:fpexcept.obj
 0001:0003bd71       __handle_exc               1003cd71 f   libucrt:fpexcept.obj
 0001:0003bff1       __handle_qnan2             1003cff1 f   libucrt:fpexcept.obj
 0001:0003bffe       __raise_exc                1003cffe f   libucrt:fpexcept.obj
 0001:0003c021       __raise_exc_ex             1003d021 f   libucrt:fpexcept.obj
 0001:0003c312       __raise_excf               1003d312 f   libucrt:fpexcept.obj
 0001:0003c335       __set_errno_from_matherr   1003d335 f   libucrt:fpexcept.obj
 0001:0003c366       __umatherr                 1003d366 f   libucrt:fpexcept.obj
 0001:0003c406       __initterm                 1003d406 f   libucrt:initterm.obj
 0001:0003c431       __initterm_e               1003d431 f   libucrt:initterm.obj
 0001:0003c4b9       _strcpy_s                  1003d4b9 f   libucrt:strcpy_s.obj
 0001:0003c513       _calloc                    1003d513 f   libucrt:calloc.obj
 0001:0003c51e       ??$is_overflow_condition@_K@__crt_strtox@@YA_NI_K@Z 1003d51e f i libucrt:atox.obj
 0001:0003c55f       ??$make_c_string_character_source@D$$T@__crt_strtox@@YA?AV?$c_string_character_source@D@0@QBD$$T@Z 1003d55f f i libucrt:atox.obj
 0001:0003c57a       ??$make_c_string_character_source@_W$$T@__crt_strtox@@YA?AV?$c_string_character_source@_W@0@QB_W$$T@Z 1003d57a f i libucrt:atox.obj
 0001:0003c595       ??$parse_integer@KV?$c_string_character_source@D@__crt_strtox@@$00@__crt_strtox@@YAKAAV__crt_cached_ptd_host@@V?$c_string_character_source@D@0@H_N@Z 1003d595 f i libucrt:atox.obj
 0001:0003c7dc       ??$parse_integer@KV?$c_string_character_source@_W@__crt_strtox@@$00@__crt_strtox@@YAKAAV__crt_cached_ptd_host@@V?$c_string_character_source@_W@0@H_N@Z 1003d7dc f i libucrt:atox.obj
 0001:0003cdea       ??$parse_integer@_KV?$c_string_character_source@D@__crt_strtox@@$00@__crt_strtox@@YA_KAAV__crt_cached_ptd_host@@V?$c_string_character_source@D@0@H_N@Z 1003ddea f i libucrt:atox.obj
 0001:0003d0b2       ??$parse_integer@_KV?$c_string_character_source@_W@__crt_strtox@@$00@__crt_strtox@@YA_KAAV__crt_cached_ptd_host@@V?$c_string_character_source@_W@0@H_N@Z 1003e0b2 f i libucrt:atox.obj
 0001:0003d738       ??$parse_integer_from_string@JD$$T@__crt_strtox@@YAJQBD$$THQAU__crt_locale_pointers@@@Z 1003e738 f i libucrt:atox.obj
 0001:0003d77f       ??$parse_integer_from_string@J_W$$T@__crt_strtox@@YAJQB_W$$THQAU__crt_locale_pointers@@@Z 1003e77f f i libucrt:atox.obj
 0001:0003d7c6       ??$parse_integer_from_string@_JD$$T@__crt_strtox@@YA_JQBD$$THQAU__crt_locale_pointers@@@Z 1003e7c6 f i libucrt:atox.obj
 0001:0003d813       ??$parse_integer_from_string@_J_W$$T@__crt_strtox@@YA_JQB_W$$THQAU__crt_locale_pointers@@@Z 1003e813 f i libucrt:atox.obj
 0001:0003d860       ?is_space@__crt_strtox@@YA_NDQAU__crt_locale_pointers@@@Z 1003e860 f i libucrt:atox.obj
 0001:0003d87e       ?is_space@__crt_strtox@@YA_N_WPAU__crt_locale_pointers@@@Z 1003e87e f i libucrt:atox.obj
 0001:0003d896       ?maximum_signed_value@__crt_strtox@@YA_J_K@Z 1003e896 f i libucrt:atox.obj
 0001:0003d89f       ?minimum_signed_value@__crt_strtox@@YA_J_K@Z 1003e89f f i libucrt:atox.obj
 0001:0003d8a7       ___acrt_get_locale_data_prefix 1003e8a7 f i libucrt:atox.obj
 0001:0003d8b3       __atoi64                   1003e8b3 f   libucrt:atox.obj
 0001:0003d8f8       __atoi64_l                 1003e8f8 f   libucrt:atox.obj
 0001:0003d93e       __atoi_l                   1003e93e f   libucrt:atox.obj
 0001:0003d97e       __atol_l                   1003e97e f   libucrt:atox.obj
 0001:0003d9be       __atoll_l                  1003e9be f   libucrt:atox.obj
 0001:0003da04       __chvalidchk_l             1003ea04 f i libucrt:atox.obj
 0001:0003da2c       __ischartype_l             1003ea2c f i libucrt:atox.obj
 0001:0003da83       __wtoi                     1003ea83 f   libucrt:atox.obj
 0001:0003dac2       __wtoi64                   1003eac2 f   libucrt:atox.obj
 0001:0003db07       __wtoi64_l                 1003eb07 f   libucrt:atox.obj
 0001:0003db4d       __wtoi_l                   1003eb4d f   libucrt:atox.obj
 0001:0003db8d       __wtol                     1003eb8d f   libucrt:atox.obj
 0001:0003dbcc       __wtol_l                   1003ebcc f   libucrt:atox.obj
 0001:0003dc0c       __wtoll                    1003ec0c f   libucrt:atox.obj
 0001:0003dc51       __wtoll_l                  1003ec51 f   libucrt:atox.obj
 0001:0003dc97       _atoi                      1003ec97 f   libucrt:atox.obj
 0001:0003dcd6       _atol                      1003ecd6 f   libucrt:atox.obj
 0001:0003dd15       _atoll                     1003ed15 f   libucrt:atox.obj
 0001:0003dd60       _strncmp                   1003ed60 f   libucrt:strncmp.obj
 0001:0003ddd8       ??$?RU__acrt_ptd@@@__crt_internal_free_policy@@QBEXQBU__acrt_ptd@@@Z 1003edd8 f i libucrt:per_thread_data.obj
 0001:0003e0c4       ??0?$__crt_unique_heap_ptr@U__acrt_ptd@@U__crt_internal_free_policy@@@@QAE@QAU__acrt_ptd@@@Z 1003f0c4 f i libucrt:per_thread_data.obj
 0001:0003e0d4       ??1?$__crt_unique_heap_ptr@U__acrt_ptd@@U__crt_internal_free_policy@@@@QAE@XZ 1003f0d4 f i libucrt:per_thread_data.obj
 0001:0003e0e6       ??B?$__crt_unique_heap_ptr@U__acrt_ptd@@U__crt_internal_free_policy@@@@QBE_NXZ 1003f0e6 f i libucrt:per_thread_data.obj
 0001:0003e234       ?dangerous_get_state_array@?$dual_state_global@PAU__crt_locale_data@@@__crt_state_management@@QAEPAPAU__crt_locale_data@@XZ 1003f234 f i libucrt:per_thread_data.obj
 0001:0003e32a       ?detach@?$__crt_unique_heap_ptr@U__acrt_ptd@@U__crt_internal_free_policy@@@@QAEPAU__acrt_ptd@@XZ 1003f32a f i libucrt:per_thread_data.obj
 0001:0003e330       ?get@?$__crt_unique_heap_ptr@U__acrt_ptd@@U__crt_internal_free_policy@@@@QBEPAU__acrt_ptd@@XZ 1003f330 f i libucrt:per_thread_data.obj
 0001:0003e515       ?is_valid@?$__crt_unique_heap_ptr@U__acrt_ptd@@U__crt_internal_free_policy@@@@QBE_NXZ 1003f515 f i libucrt:per_thread_data.obj
 0001:0003e51c       ?release@?$__crt_unique_heap_ptr@U__acrt_ptd@@U__crt_internal_free_policy@@@@QAEXXZ 1003f51c f i libucrt:per_thread_data.obj
 0001:0003e58d       ?value@?$dual_state_global@PAU__crt_locale_data@@@__crt_state_management@@QAEAAPAU__crt_locale_data@@XZ 1003f58d f i libucrt:per_thread_data.obj
 0001:0003e590       ___acrt_freeptd            1003f590 f   libucrt:per_thread_data.obj
 0001:0003e5bc       ___acrt_getptd             1003f5bc f   libucrt:per_thread_data.obj
 0001:0003e677       ___acrt_getptd_head        1003f677 f   libucrt:per_thread_data.obj
 0001:0003e70d       ___acrt_getptd_noexit      1003f70d f   libucrt:per_thread_data.obj
 0001:0003e7be       ___acrt_getptd_noexit_explicit 1003f7be f   libucrt:per_thread_data.obj
 0001:0003e861       ___acrt_initialize_ptd     1003f861 f   libucrt:per_thread_data.obj
 0001:0003e88d       ___acrt_uninitialize_ptd   1003f88d f   libucrt:per_thread_data.obj
 0001:0003e8a7       ___threadhandle            1003f8a7 f   libucrt:per_thread_data.obj
 0001:0003e8ad       ___threadid                1003f8ad f   libucrt:per_thread_data.obj
 0001:0003e8b6       ??$?RU__crt_locale_data@@@__crt_internal_free_policy@@QBEXQBU__crt_locale_data@@@Z 1003f8b6 f i libucrt:wsetlocale.obj
 0001:0003e8c8       ??$?RU__crt_locale_pointers@@@__crt_internal_free_policy@@QBEXQBU__crt_locale_pointers@@@Z 1003f8c8 f i libucrt:wsetlocale.obj
 0001:0003e8da       ??$?RU__crt_multibyte_data@@@__crt_internal_free_policy@@QBEXQBU__crt_multibyte_data@@@Z 1003f8da f i libucrt:wsetlocale.obj
 0001:0003ec83       ??0?$__crt_unique_heap_ptr@U__crt_locale_data@@U__crt_internal_free_policy@@@@QAE@QAU__crt_locale_data@@@Z 1003fc83 f i libucrt:wsetlocale.obj
 0001:0003ec93       ??0?$__crt_unique_heap_ptr@U__crt_locale_pointers@@U__crt_internal_free_policy@@@@QAE@QAU__crt_locale_pointers@@@Z 1003fc93 f i libucrt:wsetlocale.obj
 0001:0003eca3       ??0?$__crt_unique_heap_ptr@U__crt_multibyte_data@@U__crt_internal_free_policy@@@@QAE@QAU__crt_multibyte_data@@@Z 1003fca3 f i libucrt:wsetlocale.obj
 0001:0003ecb3       ??0_expandlocale_locale_name_cache@@QAE@QA_WIQAU__crt_qualified_locale_data@@@Z 1003fcb3 f i libucrt:wsetlocale.obj
 0001:0003ecfd       ??1?$__crt_unique_heap_ptr@U__crt_locale_data@@U__crt_internal_free_policy@@@@QAE@XZ 1003fcfd f i libucrt:wsetlocale.obj
 0001:0003ed0f       ??1?$__crt_unique_heap_ptr@U__crt_locale_pointers@@U__crt_internal_free_policy@@@@QAE@XZ 1003fd0f f i libucrt:wsetlocale.obj
 0001:0003ed21       ??1?$__crt_unique_heap_ptr@U__crt_multibyte_data@@U__crt_internal_free_policy@@@@QAE@XZ 1003fd21 f i libucrt:wsetlocale.obj
 0001:0003ed33       ??1_expandlocale_locale_name_cache@@QAE@XZ 1003fd33 f i libucrt:wsetlocale.obj
 0001:0003ed63       ??B?$__crt_unique_heap_ptr@U__crt_locale_data@@U__crt_internal_free_policy@@@@QBE_NXZ 1003fd63 f i libucrt:wsetlocale.obj
 0001:0003ed6a       ??B?$__crt_unique_heap_ptr@U__crt_locale_pointers@@U__crt_internal_free_policy@@@@QBE_NXZ 1003fd6a f i libucrt:wsetlocale.obj
 0001:0003ed71       ??B?$__crt_unique_heap_ptr@U__crt_multibyte_data@@U__crt_internal_free_policy@@@@QBE_NXZ 1003fd71 f i libucrt:wsetlocale.obj
 0001:0003ef91       ?commit_locale_name@_expandlocale_locale_name_cache@@QAEXQB_WI@Z 1003ff91 f i libucrt:wsetlocale.obj
 0001:0003efd5       ?commit_locale_name_cache_already_updated@_expandlocale_locale_name_cache@@QAEXQB_WI@Z 1003ffd5 f i libucrt:wsetlocale.obj
 0001:0003f00a       ?detach@?$__crt_unique_heap_ptr@U__crt_locale_data@@U__crt_internal_free_policy@@@@QAEPAU__crt_locale_data@@XZ 1004000a f i libucrt:wsetlocale.obj
 0001:0003f010       ?detach@?$__crt_unique_heap_ptr@U__crt_locale_pointers@@U__crt_internal_free_policy@@@@QAEPAU__crt_locale_pointers@@XZ 10040010 f i libucrt:wsetlocale.obj
 0001:0003f016       ?detach@?$__crt_unique_heap_ptr@U__crt_multibyte_data@@U__crt_internal_free_policy@@@@QAEPAU__crt_multibyte_data@@XZ 10040016 f i libucrt:wsetlocale.obj
 0001:0003f01c       ?get@?$__crt_unique_heap_ptr@U__crt_locale_data@@U__crt_internal_free_policy@@@@QBEPAU__crt_locale_data@@XZ 1004001c f i libucrt:wsetlocale.obj
 0001:0003f01f       ?get@?$__crt_unique_heap_ptr@U__crt_locale_pointers@@U__crt_internal_free_policy@@@@QBEPAU__crt_locale_pointers@@XZ 1004001f f i libucrt:wsetlocale.obj
 0001:0003f022       ?get@?$__crt_unique_heap_ptr@U__crt_multibyte_data@@U__crt_internal_free_policy@@@@QBEPAU__crt_multibyte_data@@XZ 10040022 f i libucrt:wsetlocale.obj
 0001:0003f025       ?is_valid@?$__crt_unique_heap_ptr@U__crt_locale_data@@U__crt_internal_free_policy@@@@QBE_NXZ 10040025 f i libucrt:wsetlocale.obj
 0001:0003f02c       ?is_valid@?$__crt_unique_heap_ptr@U__crt_locale_pointers@@U__crt_internal_free_policy@@@@QBE_NXZ 1004002c f i libucrt:wsetlocale.obj
 0001:0003f033       ?is_valid@?$__crt_unique_heap_ptr@U__crt_multibyte_data@@U__crt_internal_free_policy@@@@QBE_NXZ 10040033 f i libucrt:wsetlocale.obj
 0001:0003f03a       ?release@?$__crt_unique_heap_ptr@U__crt_locale_data@@U__crt_internal_free_policy@@@@QAEXXZ 1004003a f i libucrt:wsetlocale.obj
 0001:0003f04c       ?release@?$__crt_unique_heap_ptr@U__crt_locale_pointers@@U__crt_internal_free_policy@@@@QAEXXZ 1004004c f i libucrt:wsetlocale.obj
 0001:0003f05e       ?release@?$__crt_unique_heap_ptr@U__crt_multibyte_data@@U__crt_internal_free_policy@@@@QAEXXZ 1004005e f i libucrt:wsetlocale.obj
 0001:0003f070       ___acrt_copy_locale_name   10040070 f   libucrt:wsetlocale.obj
 0001:0003f0d0       ___acrt_set_locale_changed 100400d0 f   libucrt:wsetlocale.obj
 0001:0003f0db       ___acrt_uninitialize_locale 100400db f   libucrt:wsetlocale.obj
 0001:0003f102       ___lc_lctowcs              10040102 f   libucrt:wsetlocale.obj
 0001:0003f172       ___lc_wcstolc              10040172 f   libucrt:wsetlocale.obj
 0001:0003f2af       __configthreadlocale       100402af f   libucrt:wsetlocale.obj
 0001:0003f340       __create_locale            10040340 f   libucrt:wsetlocale.obj
 0001:0003f76a       __free_locale              1004076a f   libucrt:wsetlocale.obj
 0001:0003f82c       __get_current_locale       1004082c f   libucrt:wsetlocale.obj
 0001:0003f8c7       __wcreate_locale           100408c7 f   libucrt:wsetlocale.obj
 0001:0003f9ce       __wcscats                  100409ce f   libucrt:wsetlocale.obj
 0001:0003fa0f       __wsetlocale               10040a0f f   libucrt:wsetlocale.obj
 0001:0004078d       ___p___mb_cur_max          1004178d f   libucrt:nlsdata.obj
 0001:000407b8       __free_base                100417b8 f   libucrt:free_base.obj
 0001:000407f2       __malloc_base              100417f2 f   libucrt:malloc_base.obj
 0001:00040840       ?value@?$dual_state_global@PAU__crt_multibyte_data@@@__crt_state_management@@QAEAAPAU__crt_multibyte_data@@XZ 10041840 f i libucrt:locale_update.obj
 0001:00040843       ?value_explicit@?$dual_state_global@PAU__crt_locale_data@@@__crt_state_management@@QAEAAPAU__crt_locale_data@@I@Z 10041843 f i libucrt:locale_update.obj
 0001:00040852       ?value_explicit@?$dual_state_global@PAU__crt_multibyte_data@@@__crt_state_management@@QAEAAPAU__crt_multibyte_data@@I@Z 10041852 f i libucrt:locale_update.obj
 0001:00040861       ___acrt_should_sync_with_global_locale 10041861 f i libucrt:locale_update.obj
 0001:0004087d       ___acrt_update_locale_info 1004187d f   libucrt:locale_update.obj
 0001:000408aa       ___acrt_update_locale_info_explicit 100418aa f   libucrt:locale_update.obj
 0001:000408db       ___acrt_update_multibyte_info 100418db f   libucrt:locale_update.obj
 0001:00040908       ___acrt_update_multibyte_info_explicit 10041908 f   libucrt:locale_update.obj
 0001:00040939       ?__acrt_fp_classify@@YA?AW4__acrt_fp_class@@ABN@Z 10041939 f i libucrt:cvt.obj
 0001:0004099b       ?__acrt_fp_is_negative@@YA_NABN@Z 1004199b f i libucrt:cvt.obj
 0001:0004132a       ?strrchr@@YAPADQADH@Z      1004232a f i libucrt:cvt.obj
 0001:00041335       ___acrt_fp_format          10042335 f   libucrt:cvt.obj
 0001:000414b6       ?value_or@?$cached@H@__crt_cached_ptd_host@@QBEHH@Z 100424b6 f i libucrt:wctomb.obj
 0001:000414cc       __wctomb_internal          100424cc f   libucrt:wctomb.obj
 0001:00041636       __wctomb_l                 10042636 f   libucrt:wctomb.obj
 0001:00041691       __wctomb_s_l               10042691 f   libucrt:wctomb.obj
 0001:000416cc       _wctomb                    100426cc f   libucrt:wctomb.obj
 0001:00041718       _wctomb_s                  10042718 f   libucrt:wctomb.obj
 0001:00041752       __isleadbyte_fast_internal 10042752 f i libucrt:mbtowc.obj
 0001:00041770       __mbtowc_internal          10042770 f   libucrt:mbtowc.obj
 0001:000418a3       __mbtowc_l                 100428a3 f   libucrt:mbtowc.obj
 0001:000418db       _mbtowc                    100428db f   libucrt:mbtowc.obj
 0001:00041912       ?lowio_handle@__crt_stdio_stream@@QBEHXZ 10042912 f i libucrt:fileno.obj
 0001:00041919       __fileno                   10042919 f   libucrt:fileno.obj
 0001:00041940       __get_printf_count_output  10042940 f   libucrt:printf_count_output.obj
 0001:00041955       __set_printf_count_output  10042955 f   libucrt:printf_count_output.obj
 0001:00041a43       __fputwc_nolock            10042a43 f   libucrt:fputwc.obj
 0001:00041a79       __fputwc_nolock_internal   10042a79 f   libucrt:fputwc.obj
 0001:00041bb1       __fputwchar                10042bb1 f   libucrt:fputwc.obj
 0001:00041bcb       __putwc_nolock             10042bcb f   libucrt:fputwc.obj
 0001:00041bd6       _fputwc                    10042bd6 f   libucrt:fputwc.obj
 0001:00041c0c       _putwc                     10042c0c f   libucrt:fputwc.obj
 0001:00041c17       _putwchar                  10042c17 f   libucrt:fputwc.obj
 0001:00041d56       __fputc_nolock             10042d56 f   libucrt:fputc.obj
 0001:00041d8a       __fputc_nolock_internal    10042d8a f   libucrt:fputc.obj
 0001:00041db7       __fputchar                 10042db7 f   libucrt:fputc.obj
 0001:00041dd1       __putc_nolock              10042dd1 f   libucrt:fputc.obj
 0001:00041ddc       _fputc                     10042ddc f   libucrt:fputc.obj
 0001:00041e10       _putc                      10042e10 f   libucrt:fputc.obj
 0001:00041e1b       _putchar                   10042e1b f   libucrt:fputc.obj
 0001:00041e26       ?has_any_buffer@__crt_stdio_stream@@QBE_NXZ 10042e26 f i libucrt:_sftbuf.obj
 0001:00041e35       ?has_any_of@__crt_stdio_stream@@QBE_NJ@Z 10042e35 f i libucrt:_sftbuf.obj
 0001:00041e4a       ?has_temporary_buffer@__crt_stdio_stream@@QBE_NXZ 10042e4a f i libucrt:_sftbuf.obj
 0001:00041e56       ?set_flags@__crt_stdio_stream@@QBE_NJ@Z 10042e56 f i libucrt:_sftbuf.obj
 0001:00041e7a       ?unset_flags@__crt_stdio_stream@@QBE_NJ@Z 10042e7a f i libucrt:_sftbuf.obj
 0001:00041ea3       ___acrt_should_use_temporary_buffer 10042ea3 f   libucrt:_sftbuf.obj
 0001:00041ee1       ___acrt_stdio_begin_temporary_buffering_nolock 10042ee1 f   libucrt:_sftbuf.obj
 0001:00041f8c       ___acrt_stdio_end_temporary_buffering_nolock 10042f8c f   libucrt:_sftbuf.obj
 0001:00042152       ___acrt_initialize_lowio   10043152 f   libucrt:ioinit.obj
 0001:000421b2       ___acrt_uninitialize_lowio 100431b2 f   libucrt:ioinit.obj
 0001:000421de       ___acrt_LCMapStringW       100431de f   libucrt:lcmapstringw.obj
 0001:0004221c       __realloc_base             1004321c f   libucrt:realloc_base.obj
 0001:00042285       ___acrt_initialize_locks   10043285 f   libucrt:locks.obj
 0001:000422c6       ___acrt_lock               100432c6 f   libucrt:locks.obj
 0001:000422dd       ___acrt_uninitialize_locks 100432dd f   libucrt:locks.obj
 0001:0004230e       ___acrt_unlock             1004330e f   libucrt:locks.obj
 0001:00042325       __lock_locales             10043325 f   libucrt:locks.obj
 0001:00042333       __unlock_locales           10043333 f   libucrt:locks.obj
 0001:0004233c       ___acrt_app_verifier_enabled 1004333c f   libucrt:peb_access.obj
 0001:0004234e       ___acrt_is_secure_process  1004334e f   libucrt:peb_access.obj
 0001:000424fa       ___acrt_get_begin_thread_init_policy 100434fa f   libucrt:win_policies.obj
 0001:00042534       ___acrt_get_developer_information_policy 10043534 f   libucrt:win_policies.obj
 0001:00042572       ___acrt_get_process_end_policy 10043572 f   libucrt:win_policies.obj
 0001:00042599       ___acrt_get_windowing_model_policy 10043599 f   libucrt:win_policies.obj
 0001:000425f4       __iswctype_l               100435f4 f   libucrt:iswctype.obj
 0001:00042608       _iswctype                  10043608 f   libucrt:iswctype.obj
 0001:00042671       __towlower_l               10043671 f   libucrt:towlower.obj
 0001:00042745       _towlower                  10043745 f   libucrt:towlower.obj
 0001:00042758       ___pctype_func             10043758 f   libucrt:ctype.obj
 0001:0004277c       ___pwctype_func            1004377c f   libucrt:ctype.obj
 0001:00042782       __calloc_base              10043782 f   libucrt:calloc_base.obj
 0001:000427ec       ??$?B$$A6GHPA_WKJ@Z@__crt_fast_encoded_nullptr_t@@QBEP6GHPA_WKJ@ZXZ 100437ec f i libucrt:winapi_thunks.obj
 0001:00042894       ??$__crt_fast_decode_pointer@P6GHPA_WKJ@Z@@YAP6GHPA_WKJ@ZQ6GH0KJ@Z@Z 10043894 f i libucrt:winapi_thunks.obj
 0001:000428af       ??$__crt_fast_decode_pointer@PAX@@YAPAXQAX@Z 100438af f i libucrt:winapi_thunks.obj
 0001:000428ca       ??$__crt_fast_encode_pointer@P6GHPA_WKJ@Z@@YAP6GHPA_WKJ@ZQ6GH0KJ@Z@Z 100438ca f i libucrt:winapi_thunks.obj
 0001:00042f7a       _GetCurrentThreadEffectiveToken 10043f7a f i libucrt:winapi_thunks.obj
 0001:00042f7e       ___acrt_AppPolicyGetProcessTerminationMethodInternal@4 10043f7e f   libucrt:winapi_thunks.obj
 0001:00042fbe       ___acrt_AppPolicyGetShowDeveloperDiagnosticInternal@4 10043fbe f   libucrt:winapi_thunks.obj
 0001:00042ffe       ___acrt_AppPolicyGetThreadInitializationTypeInternal@4 10043ffe f   libucrt:winapi_thunks.obj
 0001:0004303e       ___acrt_AppPolicyGetWindowingModelInternal@4 1004403e f   libucrt:winapi_thunks.obj
 0001:0004307e       ___acrt_AreFileApisANSI@0  1004407e f   libucrt:winapi_thunks.obj
 0001:0004309d       ___acrt_CompareStringEx@36 1004409d f   libucrt:winapi_thunks.obj
 0001:000430fa       ___acrt_EnumSystemLocalesEx@16 100440fa f   libucrt:winapi_thunks.obj
 0001:0004314e       ___acrt_FlsAlloc@4         1004414e f   libucrt:winapi_thunks.obj
 0001:0004318d       ___acrt_FlsFree@4          1004418d f   libucrt:winapi_thunks.obj
 0001:000431cc       ___acrt_FlsGetValue@4      100441cc f   libucrt:winapi_thunks.obj
 0001:0004320b       ___acrt_FlsSetValue@8      1004420b f   libucrt:winapi_thunks.obj
 0001:0004324d       ___acrt_GetDateFormatEx@28 1004424d f   libucrt:winapi_thunks.obj
 0001:000432a4       ___acrt_GetEnabledXStateFeatures@0 100442a4 f   libucrt:winapi_thunks.obj
 0001:000432d8       ___acrt_GetLocaleInfoEx@16 100442d8 f   libucrt:winapi_thunks.obj
 0001:00043317       ___acrt_GetSystemTimePreciseAsFileTime@4 10044317 f   libucrt:winapi_thunks.obj
 0001:00043356       ___acrt_GetTempPath2W@8    10044356 f   libucrt:winapi_thunks.obj
 0001:00043398       ___acrt_GetTimeFormatEx@24 10044398 f   libucrt:winapi_thunks.obj
 0001:000433dd       ___acrt_GetUserDefaultLocaleName@8 100443dd f   libucrt:winapi_thunks.obj
 0001:00043419       ___acrt_GetXStateFeaturesMask@8 10044419 f   libucrt:winapi_thunks.obj
 0001:00043459       ___acrt_InitializeCriticalSectionEx@12 10044459 f   libucrt:winapi_thunks.obj
 0001:000434a4       ___acrt_IsValidLocaleName@4 100444a4 f   libucrt:winapi_thunks.obj
 0001:000434dc       ___acrt_LCIDToLocaleName@16 100444dc f   libucrt:winapi_thunks.obj
 0001:0004351b       ___acrt_LCMapStringEx@36   1004451b f   libucrt:winapi_thunks.obj
 0001:00043578       ___acrt_LocaleNameToLCID@8 10044578 f   libucrt:winapi_thunks.obj
 0001:000435a9       ___acrt_LocateXStateFeature@12 100445a9 f   libucrt:winapi_thunks.obj
 0001:000435d8       ___acrt_MessageBoxA@16     100445d8 f   libucrt:winapi_thunks.obj
 0001:0004360a       ___acrt_MessageBoxW@16     1004460a f   libucrt:winapi_thunks.obj
 0001:0004363c       ___acrt_RoInitialize@4     1004463c f   libucrt:winapi_thunks.obj
 0001:00043677       ___acrt_RoUninitialize@0   10044677 f   libucrt:winapi_thunks.obj
 0001:000436a5       ___acrt_RtlGenRandom@8     100446a5 f   libucrt:winapi_thunks.obj
 0001:000436e5       ___acrt_SetThreadStackGuarantee@4 100446e5 f   libucrt:winapi_thunks.obj
 0001:00043720       ___acrt_can_show_message_box 10044720 f   libucrt:winapi_thunks.obj
 0001:00043747       ___acrt_can_use_vista_locale_apis 10044747 f   libucrt:winapi_thunks.obj
 0001:00043752       ___acrt_can_use_xstate_apis 10044752 f   libucrt:winapi_thunks.obj
 0001:0004375d       ___acrt_eagerly_load_locale_apis 1004475d f   libucrt:winapi_thunks.obj
 0001:00043794       ___acrt_get_parent_window  10044794 f   libucrt:winapi_thunks.obj
 0001:000437fc       ___acrt_initialize_winapi_thunks 100447fc f   libucrt:winapi_thunks.obj
 0001:00043810       ___acrt_is_interactive     10044810 f   libucrt:winapi_thunks.obj
 0001:000438b0       ___acrt_uninitialize_winapi_thunks 100448b0 f   libucrt:winapi_thunks.obj
 0001:000438e6       ??0__crt_stdio_stream@@QAE@QAU__crt_stdio_stream_data@@@Z 100448e6 f i libucrt:closeall.obj
 0001:000438f6       __fcloseall                100448f6 f   libucrt:closeall.obj
 0001:00043d61       ?__acrt_stdio_reset_buffer@@YAXV__crt_stdio_stream@@@Z 10044d61 f i libucrt:fflush.obj
 0001:00043e43       ?has_all_of@__crt_stdio_stream@@QBE_NJ@Z 10044e43 f i libucrt:fflush.obj
 0001:00043ea8       ___acrt_stdio_flush_nolock 10044ea8 f   libucrt:fflush.obj
 0001:00043f11       __fflush_nolock            10044f11 f   libucrt:fflush.obj
 0001:00043f76       __flushall                 10044f76 f   libucrt:fflush.obj
 0001:00043f7f       _fflush                    10044f7f f   libucrt:fflush.obj
 0001:00043fd2       ?has_crt_buffer@__crt_stdio_stream@@QBE_NXZ 10044fd2 f i libucrt:_freebuf.obj
 0001:00043fde       ___acrt_stdio_free_buffer_nolock 10044fde f   libucrt:_freebuf.obj
 0001:0004401e       ??$?RU__crt_stdio_stream_data@@@__crt_internal_free_policy@@QBEXQBU__crt_stdio_stream_data@@@Z 1004501e f i libucrt:stream.obj
 0001:00044030       ??0?$__crt_unique_heap_ptr@U__crt_stdio_stream_data@@U__crt_internal_free_policy@@@@QAE@QAU__crt_stdio_stream_data@@@Z 10045030 f i libucrt:stream.obj
 0001:00044040       ??0__crt_stdio_stream@@QAE@XZ 10045040 f i libucrt:stream.obj
 0001:00044046       ??1?$__crt_unique_heap_ptr@U__crt_stdio_stream_data@@U__crt_internal_free_policy@@@@QAE@XZ 10045046 f i libucrt:stream.obj
 0001:00044058       ?__acrt_stdio_allocate_stream@@YA?AV__crt_stdio_stream@@XZ 10045058 f   libucrt:stream.obj
 0001:000440c1       ?__acrt_stdio_free_stream@@YAXV__crt_stdio_stream@@@Z 100450c1 f   libucrt:stream.obj
 0001:000440fc       ?deallocate@__crt_stdio_stream@@QAEXXZ 100450fc f i libucrt:stream.obj
 0001:00044106       ?detach@?$__crt_unique_heap_ptr@U__crt_stdio_stream_data@@U__crt_internal_free_policy@@@@QAEPAU__crt_stdio_stream_data@@XZ 10045106 f i libucrt:stream.obj
 0001:000441ce       ?lock@__crt_stdio_stream@@QBEXXZ 100451ce f i libucrt:stream.obj
 0001:000441d7       ?release@?$__crt_unique_heap_ptr@U__crt_stdio_stream_data@@U__crt_internal_free_policy@@@@QAEXXZ 100451d7 f i libucrt:stream.obj
 0001:000441e9       ?try_allocate@__crt_stdio_stream@@QAE_NXZ 100451e9 f i libucrt:stream.obj
 0001:00044209       ??$__acrt_stdio_parse_mode@D@@YA?AU__acrt_stdio_stream_mode@@QBD@Z 10045209 f i libucrt:openfile.obj
 0001:00044433       ??$__acrt_stdio_parse_mode@_W@@YA?AU__acrt_stdio_stream_mode@@QB_W@Z 10045433 f i libucrt:openfile.obj
 0001:000447a4       ??$tcsncmp@AAPBDAAY02$$CBDI@?$__crt_char_traits@D@@SAHAAPBDAAY02$$CBD$$QAI@Z 100457a4 f i libucrt:openfile.obj
 0001:000447c0       ??$tcsncmp@AAPB_WAAY02$$CB_WI@?$__crt_char_traits@_W@@SAHAAPB_WAAY02$$CB_W$$QAI@Z 100457c0 f i libucrt:openfile.obj
 0001:000447dc       ??$tcsnicmp@AAPBDAAY04$$CBDI@?$__crt_char_traits@D@@SAHAAPBDAAY04$$CBD$$QAI@Z 100457dc f i libucrt:openfile.obj
 0001:000447f8       ??$tcsnicmp@AAPBDAAY06$$CBDI@?$__crt_char_traits@D@@SAHAAPBDAAY06$$CBD$$QAI@Z 100457f8 f i libucrt:openfile.obj
 0001:00044814       ??$tcsnicmp@AAPBDAAY07$$CBDI@?$__crt_char_traits@D@@SAHAAPBDAAY07$$CBD$$QAI@Z 10045814 f i libucrt:openfile.obj
 0001:00044830       ??$tcsnicmp@AAPB_WAAY04$$CB_WI@?$__crt_char_traits@_W@@SAHAAPB_WAAY04$$CB_W$$QAI@Z 10045830 f i libucrt:openfile.obj
 0001:0004484c       ??$tcsnicmp@AAPB_WAAY06$$CB_WI@?$__crt_char_traits@_W@@SAHAAPB_WAAY06$$CB_W$$QAI@Z 1004584c f i libucrt:openfile.obj
 0001:00044868       ??$tcsnicmp@AAPB_WAAY07$$CB_WI@?$__crt_char_traits@_W@@SAHAAPB_WAAY07$$CB_W$$QAI@Z 10045868 f i libucrt:openfile.obj
 0001:00044884       ??$tsopen_s@PAHABQBDABHABHH@?$__crt_char_traits@D@@SAH$$QAPAHABQBDABH2$$QAH@Z 10045884 f i libucrt:openfile.obj
 0001:000448ac       ??$tsopen_s@PAHABQB_WABHABHH@?$__crt_char_traits@_W@@SAH$$QAPAHABQB_WABH2$$QAH@Z 100458ac f i libucrt:openfile.obj
 0001:000448d4       ?__acrt_stdio_parse_mode_D@@YA_NAAU__acrt_stdio_stream_mode@@@Z 100458d4 f i libucrt:openfile.obj
 0001:000448ef       ?__acrt_stdio_parse_mode_N@@YA_NAAU__acrt_stdio_stream_mode@@@Z 100458ef f i libucrt:openfile.obj
 0001:00044901       ?__acrt_stdio_parse_mode_R@@YA_NAAU__acrt_stdio_stream_mode@@AA_N@Z 10045901 f i libucrt:openfile.obj
 0001:0004491f       ?__acrt_stdio_parse_mode_S@@YA_NAAU__acrt_stdio_stream_mode@@AA_N@Z 1004591f f i libucrt:openfile.obj
 0001:0004493d       ?__acrt_stdio_parse_mode_T@@YA_NAAU__acrt_stdio_stream_mode@@@Z 1004593d f i libucrt:openfile.obj
 0001:0004495c       ?__acrt_stdio_parse_mode_b@@YA_NAAU__acrt_stdio_stream_mode@@@Z 1004595c f i libucrt:openfile.obj
 0001:0004497c       ?__acrt_stdio_parse_mode_c@@YA_NAAU__acrt_stdio_stream_mode@@AA_N@Z 1004597c f i libucrt:openfile.obj
 0001:0004499e       ?__acrt_stdio_parse_mode_n@@YA_NAAU__acrt_stdio_stream_mode@@AA_N@Z 1004599e f i libucrt:openfile.obj
 0001:000449c0       ?__acrt_stdio_parse_mode_plus@@YA_NAAU__acrt_stdio_stream_mode@@AA_N@Z 100459c0 f i libucrt:openfile.obj
 0001:000449f6       ?__acrt_stdio_parse_mode_t@@YA_NAAU__acrt_stdio_stream_mode@@@Z 100459f6 f i libucrt:openfile.obj
 0001:00044a16       ?__acrt_stdio_parse_mode_x@@YA_NAAU__acrt_stdio_stream_mode@@@Z 10045a16 f i libucrt:openfile.obj
 0001:00044a36       __openfile                 10045a36 f   libucrt:openfile.obj
 0001:00044a41       __wopenfile                10045a41 f   libucrt:openfile.obj
 0001:00044a4c       ?dangerous_get_state_array@?$dual_state_global@PAPAD@__crt_state_management@@QAEPAPAPADXZ 10045a4c f i libucrt:timeset.obj
 0001:00044a4f       ?dangerous_get_state_array@?$dual_state_global@PAPA_W@__crt_state_management@@QAEPAPAPA_WXZ 10045a4f f i libucrt:timeset.obj
 0001:00044a52       ?initialize@?$dual_state_global@H@__crt_state_management@@QAEXH@Z 10045a52 f i libucrt:timeset.obj
 0001:00044a6e       ?initialize@?$dual_state_global@J@__crt_state_management@@QAEXJ@Z 10045a6e f i libucrt:timeset.obj
 0001:00044a8a       ?value@?$dual_state_global@H@__crt_state_management@@QAEAAHXZ 10045a8a f i libucrt:timeset.obj
 0001:00044a8d       ?value@?$dual_state_global@J@__crt_state_management@@QAEAAJXZ 10045a8d f i libucrt:timeset.obj
 0001:00044a90       ___acrt_initialize_timeset 10045a90 f   libucrt:timeset.obj
 0001:00044ac5       ___daylight                10045ac5 f   libucrt:timeset.obj
 0001:00044acb       ___dstbias                 10045acb f   libucrt:timeset.obj
 0001:00044ad1       ___timezone                10045ad1 f   libucrt:timeset.obj
 0001:00044ad7       ___tzname                  10045ad7 f   libucrt:timeset.obj
 0001:00044add       ___wide_tzname             10045add f   libucrt:timeset.obj
 0001:00044ae3       __get_daylight             10045ae3 f   libucrt:timeset.obj
 0001:00044b0f       __get_dstbias              10045b0f f   libucrt:timeset.obj
 0001:00044b3b       __get_timezone             10045b3b f   libucrt:timeset.obj
 0001:00044b67       __get_tzname               10045b67 f   libucrt:timeset.obj
 0001:00044c14       ??$__crt_time_elapsed_leap_years@H@@YAHH@Z 10045c14 f i libucrt:tzset.obj
 0001:00044c4e       ?__acrt_get_utf8_acp_compatibility_codepage@@YAIXZ 10045c4e f i libucrt:tzset.obj
 0001:00044ea7       ?_set_daylight@@YAXH@Z     10045ea7 f i libucrt:tzset.obj
 0001:00044eb8       ?_set_dstbias@@YAXJ@Z      10045eb8 f i libucrt:tzset.obj
 0001:00044ec9       ?_set_timezone@@YAXJ@Z     10045ec9 f i libucrt:tzset.obj
 0001:0004501d       ?dangerous_get_state_array@?$dual_state_global@J@__crt_state_management@@QAEPAJXZ 1004601d f i libucrt:tzset.obj
 0001:00045582       ___tzset                   10046582 f   libucrt:tzset.obj
 0001:000455df       __isindst                  100465df f   libucrt:tzset.obj
 0001:00045633       __tzset                    10046633 f   libucrt:tzset.obj
 0001:00045822       __close                    10046822 f   libucrt:close.obj
 0001:00045852       __close_internal           10046852 f   libucrt:close.obj
 0001:000458f5       __close_nolock             100468f5 f   libucrt:close.obj
 0001:00045925       __close_nolock_internal    10046925 f   libucrt:close.obj
 0001:00045af0       ?has_big_buffer@__crt_stdio_stream@@QBE_NXZ 10046af0 f i libucrt:fwrite.obj
 0001:00045afc       __fwrite_internal          10046afc f   libucrt:fwrite.obj
 0001:00045b73       __fwrite_nolock            10046b73 f   libucrt:fwrite.obj
 0001:00045bad       __fwrite_nolock_internal   10046bad f   libucrt:fwrite.obj
 0001:00045d54       _fwrite                    10046d54 f   libucrt:fwrite.obj
 0001:00045d8e       ??$?RUtm@@@__crt_internal_free_policy@@QBEXQBUtm@@@Z 10046d8e f i libucrt:gmtime.obj
 0001:00046044       ??0?$__crt_unique_heap_ptr@Utm@@U__crt_internal_free_policy@@@@QAE@QAUtm@@@Z 10047044 f i libucrt:gmtime.obj
 0001:00046054       ??1?$__crt_unique_heap_ptr@Utm@@U__crt_internal_free_policy@@@@QAE@XZ 10047054 f i libucrt:gmtime.obj
 0001:00046181       ?detach@?$__crt_unique_heap_ptr@Utm@@U__crt_internal_free_policy@@@@QAEPAUtm@@XZ 10047181 f i libucrt:gmtime.obj
 0001:00046187       ?release@?$__crt_unique_heap_ptr@Utm@@U__crt_internal_free_policy@@@@QAEXXZ 10047187 f i libucrt:gmtime.obj
 0001:00046199       ___getgmtimebuf            10047199 f   libucrt:gmtime.obj
 0001:000461d7       __gmtime32                 100471d7 f   libucrt:gmtime.obj
 0001:000461fe       __gmtime32_s               100471fe f   libucrt:gmtime.obj
 0001:00046209       __gmtime64                 10047209 f   libucrt:gmtime.obj
 0001:00046230       __gmtime64_s               10047230 f   libucrt:gmtime.obj
 0001:0004623b       __msize                    1004723b f   libucrt:msize.obj
 0001:00046246       __msize_base               10047246 f   libucrt:msize.obj
 0001:000462a9       ??$__acrt_convert_wcs_mbs_cp@D_WV<lambda_62f6974d9771e494a5ea317cc32e971c>@@U__crt_win32_buffer_internal_dynamic_resizing@@@@YAHQBDAAV?$__crt_win32_buffer@_WU__crt_win32_buffer_internal_dynamic_resizing@@@@ABV<lambda_62f6974d9771e494a5ea317cc32e971c>@@I@Z 100472a9 f i libucrt:argv_wildcards.obj
 0001:0004635b       ??$__acrt_convert_wcs_mbs_cp@_WDV<lambda_28bda7af82a03b66c1cb3803a755f95d>@@U__crt_win32_buffer_internal_dynamic_resizing@@@@YAHQB_WAAV?$__crt_win32_buffer@DU__crt_win32_buffer_internal_dynamic_resizing@@@@ABV<lambda_28bda7af82a03b66c1cb3803a755f95d>@@I@Z 1004735b f i libucrt:argv_wildcards.obj
 0001:00046421       ??$__acrt_mbs_to_wcs_cp@U__crt_win32_buffer_internal_dynamic_resizing@@@@YAHQBDAAV?$__crt_win32_buffer@_WU__crt_win32_buffer_internal_dynamic_resizing@@@@I@Z 10047421 f i libucrt:argv_wildcards.obj
 0001:0004643e       ??$__acrt_wcs_to_mbs_cp@U__crt_win32_buffer_internal_dynamic_resizing@@@@YAHQB_WAAV?$__crt_win32_buffer@DU__crt_win32_buffer_internal_dynamic_resizing@@@@I@Z 1004743e f i libucrt:argv_wildcards.obj
 0001:00046cf0       ??$tcslen@ABQBD@?$__crt_char_traits@D@@SAIABQBD@Z 10047cf0 f i libucrt:argv_wildcards.obj
 0001:00046d08       ??$tcslen@ABQB_W@?$__crt_char_traits@_W@@SAIABQB_W@Z 10047d08 f i libucrt:argv_wildcards.obj
 0001:00046d26       ??$tcsncpy_s@AAPADIAAPADABI@?$__crt_char_traits@D@@SAHAAPAD$$QAI0ABI@Z 10047d26 f i libucrt:argv_wildcards.obj
 0001:00046d49       ??$tcsncpy_s@AAPA_WIAAPA_WABI@?$__crt_char_traits@_W@@SAHAAPA_W$$QAI0ABI@Z 10047d49 f i libucrt:argv_wildcards.obj
 0001:00046d6c       ??$tcsncpy_s@PADABIABQBDABI@?$__crt_char_traits@D@@SAH$$QAPADABIABQBD1@Z 10047d6c f i libucrt:argv_wildcards.obj
 0001:00046d8f       ??$tcsncpy_s@PADIABQBDABI@?$__crt_char_traits@D@@SAH$$QAPAD$$QAIABQBDABI@Z 10047d8f f i libucrt:argv_wildcards.obj
 0001:00046db2       ??$tcsncpy_s@PA_WABIABQB_WABI@?$__crt_char_traits@_W@@SAH$$QAPA_WABIABQB_W1@Z 10047db2 f i libucrt:argv_wildcards.obj
 0001:00046dd5       ??$tcsncpy_s@PA_WIABQB_WABI@?$__crt_char_traits@_W@@SAH$$QAPA_W$$QAIABQB_WABI@Z 10047dd5 f i libucrt:argv_wildcards.obj
 0001:00046df8       ??$tcspbrk@AAPADAAY02$$CBD@?$__crt_char_traits@D@@SAPADAAPADAAY02$$CBD@Z 10047df8 f i libucrt:argv_wildcards.obj
 0001:00046e0e       ??$tcspbrk@AAPA_WAAY02$$CB_W@?$__crt_char_traits@_W@@SAPA_WAAPA_WAAY02$$CB_W@Z 10047e0e f i libucrt:argv_wildcards.obj
 0001:00046e24       ??0?$__crt_unique_handle_t@U__crt_findfile_traits@@@@QAE@QAX@Z 10047e24 f i libucrt:argv_wildcards.obj
 0001:00046e34       ??0?$__crt_win32_buffer@DU__crt_win32_buffer_internal_dynamic_resizing@@@@QAE@XZ 10047e34 f i libucrt:argv_wildcards.obj
 0001:00046e4a       ??0?$__crt_win32_buffer@_WU__crt_win32_buffer_internal_dynamic_resizing@@@@QAE@XZ 10047e4a f i libucrt:argv_wildcards.obj
 0001:00046e7a       ??1?$__crt_unique_handle_t@U__crt_findfile_traits@@@@QAE@XZ 10047e7a f i libucrt:argv_wildcards.obj
 0001:00046e91       ??1?$__crt_win32_buffer@DU__crt_win32_buffer_internal_dynamic_resizing@@@@QAE@XZ 10047e91 f i libucrt:argv_wildcards.obj
 0001:00046e96       ??1?$__crt_win32_buffer@_WU__crt_win32_buffer_internal_dynamic_resizing@@@@QAE@XZ 10047e96 f i libucrt:argv_wildcards.obj
 0001:00046ef1       ??R<lambda_28bda7af82a03b66c1cb3803a755f95d>@@QBE@IQB_WQADI@Z 10047ef1 f i libucrt:argv_wildcards.obj
 0001:00046f33       ??R<lambda_62f6974d9771e494a5ea317cc32e971c>@@QBE@IQBDQA_WI@Z 10047f33 f i libucrt:argv_wildcards.obj
 0001:00046fac       ?_deallocate@?$__crt_win32_buffer@DU__crt_win32_buffer_internal_dynamic_resizing@@@@AAEXXZ 10047fac f i libucrt:argv_wildcards.obj
 0001:00046fc6       ?_deallocate@?$__crt_win32_buffer@_WU__crt_win32_buffer_internal_dynamic_resizing@@@@AAEXXZ 10047fc6 f i libucrt:argv_wildcards.obj
 0001:00046fe0       ?allocate@?$__crt_win32_buffer@DU__crt_win32_buffer_internal_dynamic_resizing@@@@QAEHI@Z 10047fe0 f i libucrt:argv_wildcards.obj
 0001:0004701c       ?allocate@?$__crt_win32_buffer@_WU__crt_win32_buffer_internal_dynamic_resizing@@@@QAEHI@Z 1004801c f i libucrt:argv_wildcards.obj
 0001:0004705b       ?allocate@__crt_win32_buffer_internal_dynamic_resizing@@SAHQAPAXIABV__crt_win32_buffer_empty_debug_info@@@Z 1004805b f i libucrt:argv_wildcards.obj
 0001:000470ea       ?capacity@?$__crt_win32_buffer@DU__crt_win32_buffer_internal_dynamic_resizing@@@@QBEIXZ 100480ea f i libucrt:argv_wildcards.obj
 0001:000470ee       ?capacity@?$__crt_win32_buffer@_WU__crt_win32_buffer_internal_dynamic_resizing@@@@QBEIXZ 100480ee f i libucrt:argv_wildcards.obj
 0001:000470f2       ?close@?$__crt_unique_handle_t@U__crt_findfile_traits@@@@QAEXXZ 100480f2 f i libucrt:argv_wildcards.obj
 0001:00047109       ?close@__crt_findfile_traits@@SA_NPAX@Z 10048109 f i libucrt:argv_wildcards.obj
 0001:0004711e       ?data@?$__crt_win32_buffer@DU__crt_win32_buffer_internal_dynamic_resizing@@@@QAEPADXZ 1004811e f i libucrt:argv_wildcards.obj
 0001:00047122       ?data@?$__crt_win32_buffer@_WU__crt_win32_buffer_internal_dynamic_resizing@@@@QAEPA_WXZ 10048122 f i libucrt:argv_wildcards.obj
 0001:00047126       ?deallocate@__crt_win32_buffer_internal_dynamic_resizing@@SAXQAXABV__crt_win32_buffer_empty_debug_info@@@Z 10048126 f i libucrt:argv_wildcards.obj
 0001:00047136       ?debug_info@?$__crt_win32_buffer@DU__crt_win32_buffer_internal_dynamic_resizing@@@@QBEABV__crt_win32_buffer_empty_debug_info@@XZ 10048136 f i libucrt:argv_wildcards.obj
 0001:00047139       ?debug_info@?$__crt_win32_buffer@_WU__crt_win32_buffer_internal_dynamic_resizing@@@@QBEABV__crt_win32_buffer_empty_debug_info@@XZ 10048139 f i libucrt:argv_wildcards.obj
 0001:00047252       ?get@?$__crt_unique_handle_t@U__crt_findfile_traits@@@@QBEPAXXZ 10048252 f i libucrt:argv_wildcards.obj
 0001:00047288       ?get_invalid_value@__crt_findfile_traits@@SAPAXXZ 10048288 f i libucrt:argv_wildcards.obj
 0001:000472d7       ?set_to_nullptr@?$__crt_win32_buffer@DU__crt_win32_buffer_internal_dynamic_resizing@@@@QAEXXZ 100482d7 f i libucrt:argv_wildcards.obj
 0001:000472ee       ?set_to_nullptr@?$__crt_win32_buffer@_WU__crt_win32_buffer_internal_dynamic_resizing@@@@QAEXXZ 100482ee f i libucrt:argv_wildcards.obj
 0001:00047305       ?size@?$__crt_win32_buffer@DU__crt_win32_buffer_internal_dynamic_resizing@@@@QAEXI@Z 10048305 f i libucrt:argv_wildcards.obj
 0001:00047314       ?size@?$__crt_win32_buffer@_WU__crt_win32_buffer_internal_dynamic_resizing@@@@QAEXI@Z 10048314 f i libucrt:argv_wildcards.obj
 0001:00047335       ?strpbrk@@YAPADQADQBD@Z    10048335 f i libucrt:argv_wildcards.obj
 0001:00047340       ?wcspbrk@@YAPA_WPA_WPB_W@Z 10048340 f i libucrt:argv_wildcards.obj
 0001:0004734b       ___acrt_expand_narrow_argv_wildcards 1004834b f   libucrt:argv_wildcards.obj
 0001:00047356       ___acrt_expand_wide_argv_wildcards 10048356 f   libucrt:argv_wildcards.obj
 0001:00047361       ??$__acrt_convert_wcs_mbs_cp@_WDV<lambda_0fec1a7b3f42a53036604e18c2d5e07e>@@U__crt_win32_buffer_no_resizing@@@@YAHQB_WAAV?$__crt_win32_buffer@DU__crt_win32_buffer_no_resizing@@@@ABV<lambda_0fec1a7b3f42a53036604e18c2d5e07e>@@I@Z 10048361 f i libucrt:getmodulefilenamea.obj
 0001:00047423       ??$__acrt_wcs_to_mbs_cp@U__crt_win32_buffer_no_resizing@@@@YAHQB_WAAV?$__crt_win32_buffer@DU__crt_win32_buffer_no_resizing@@@@I@Z 10048423 f i libucrt:getmodulefilenamea.obj
 0001:00047440       ??0?$__crt_win32_buffer@DU__crt_win32_buffer_no_resizing@@@@QAE@QADI@Z 10048440 f i libucrt:getmodulefilenamea.obj
 0001:00047464       ??1?$__crt_win32_buffer@DU__crt_win32_buffer_no_resizing@@@@QAE@XZ 10048464 f i libucrt:getmodulefilenamea.obj
 0001:0004746f       ??R<lambda_0fec1a7b3f42a53036604e18c2d5e07e>@@QBE@IQB_WQADI@Z 1004846f f i libucrt:getmodulefilenamea.obj
 0001:00047493       ?_deallocate@?$__crt_win32_buffer@DU__crt_win32_buffer_no_resizing@@@@AAEXXZ 10048493 f i libucrt:getmodulefilenamea.obj
 0001:0004749e       ?allocate@?$__crt_win32_buffer@DU__crt_win32_buffer_no_resizing@@@@QAEHI@Z 1004849e f i libucrt:getmodulefilenamea.obj
 0001:000474c5       ?allocate@__crt_win32_buffer_no_resizing@@SAHQAPAXIABV__crt_win32_buffer_empty_debug_info@@@Z 100484c5 f i libucrt:getmodulefilenamea.obj
 0001:000474d2       ?capacity@?$__crt_win32_buffer@DU__crt_win32_buffer_no_resizing@@@@QBEIXZ 100484d2 f i libucrt:getmodulefilenamea.obj
 0001:000474d6       ?data@?$__crt_win32_buffer@DU__crt_win32_buffer_no_resizing@@@@QAEPADXZ 100484d6 f i libucrt:getmodulefilenamea.obj
 0001:000474da       ?deallocate@__crt_win32_buffer_no_resizing@@SAXQAXABV__crt_win32_buffer_empty_debug_info@@@Z 100484da f i libucrt:getmodulefilenamea.obj
 0001:000474dd       ?debug_info@?$__crt_win32_buffer@DU__crt_win32_buffer_no_resizing@@@@QBEABV__crt_win32_buffer_empty_debug_info@@XZ 100484dd f i libucrt:getmodulefilenamea.obj
 0001:000474e0       ?set_to_nullptr@?$__crt_win32_buffer@DU__crt_win32_buffer_no_resizing@@@@QAEXXZ 100484e0 f i libucrt:getmodulefilenamea.obj
 0001:000474f4       ?size@?$__crt_win32_buffer@DU__crt_win32_buffer_no_resizing@@@@QAEXI@Z 100484f4 f i libucrt:getmodulefilenamea.obj
 0001:00047503       ?size@?$__crt_win32_buffer@DU__crt_win32_buffer_no_resizing@@@@QBEIXZ 10048503 f i libucrt:getmodulefilenamea.obj
 0001:00047507       ___acrt_GetModuleFileNameA 10048507 f   libucrt:getmodulefilenamea.obj
 0001:0004761b       ??$initialize_from_array@$$BY10BAA@E@?$dual_state_global@PAE@__crt_state_management@@QAAXAAY10BAA@E@Z 1004861b f i libucrt:mbctype.obj
 0001:0004762a       ??$initialize_from_array@$$BY10BAB@E@?$dual_state_global@PAE@__crt_state_management@@QAAXAAY10BAB@E@Z 1004862a f i libucrt:mbctype.obj
 0001:00047746       ?dangerous_get_state_array@?$dual_state_global@PAE@__crt_state_management@@QAEPAPAEXZ 10048746 f i libucrt:mbctype.obj
 0001:00047749       ?dangerous_get_state_array@?$dual_state_global@PAU__crt_multibyte_data@@@__crt_state_management@@QAEPAPAU__crt_multibyte_data@@XZ 10048749 f i libucrt:mbctype.obj
 0001:000477bd       ?initialize@?$dual_state_global@PAU__crt_multibyte_data@@@__crt_state_management@@QAEXQAU__crt_multibyte_data@@@Z 100487bd f i libucrt:mbctype.obj
 0001:00047bd6       ?value@?$dual_state_global@PAE@__crt_state_management@@QAEAAPAEXZ 10048bd6 f i libucrt:mbctype.obj
 0001:00047bd9       ___acrt_initialize_multibyte 10048bd9 f   libucrt:mbctype.obj
 0001:00047c21       ___acrt_update_thread_multibyte_data 10048c21 f   libucrt:mbctype.obj
 0001:00047c34       ___p__mbcasemap            10048c34 f   libucrt:mbctype.obj
 0001:00047c3a       ___p__mbctype              10048c3a f   libucrt:mbctype.obj
 0001:00047c40       __getmbcp                  10048c40 f   libucrt:mbctype.obj
 0001:00047c74       __setmbcp                  10048c74 f   libucrt:mbctype.obj
 0001:00047c93       __setmbcp_nolock           10048c93 f   libucrt:mbctype.obj
 0001:00047f69       __ismbbalnum               10048f69 f   libucrt:ismbbyte.obj
 0001:00047f84       __ismbbalnum_l             10048f84 f   libucrt:ismbbyte.obj
 0001:00047fa0       __ismbbalpha               10048fa0 f   libucrt:ismbbyte.obj
 0001:00047fbb       __ismbbalpha_l             10048fbb f   libucrt:ismbbyte.obj
 0001:00047fd7       __ismbbblank               10048fd7 f   libucrt:ismbbyte.obj
 0001:00047ffa       __ismbbblank_l             10048ffa f   libucrt:ismbbyte.obj
 0001:0004801e       __ismbbgraph               1004901e f   libucrt:ismbbyte.obj
 0001:00048039       __ismbbgraph_l             10049039 f   libucrt:ismbbyte.obj
 0001:00048055       __ismbbkalnum              10049055 f   libucrt:ismbbyte.obj
 0001:0004806d       __ismbbkalnum_l            1004906d f   libucrt:ismbbyte.obj
 0001:00048086       __ismbbkana                10049086 f   libucrt:ismbbyte.obj
 0001:00048099       __ismbbkana_l              10049099 f   libucrt:ismbbyte.obj
 0001:000480e8       __ismbbkprint              100490e8 f   libucrt:ismbbyte.obj
 0001:00048100       __ismbbkprint_l            10049100 f   libucrt:ismbbyte.obj
 0001:00048119       __ismbbkpunct              10049119 f   libucrt:ismbbyte.obj
 0001:00048131       __ismbbkpunct_l            10049131 f   libucrt:ismbbyte.obj
 0001:0004814a       __ismbblead                1004914a f   libucrt:ismbbyte.obj
 0001:00048162       __ismbblead_l              10049162 f   libucrt:ismbbyte.obj
 0001:0004817b       __ismbbprint               1004917b f   libucrt:ismbbyte.obj
 0001:00048196       __ismbbprint_l             10049196 f   libucrt:ismbbyte.obj
 0001:000481b2       __ismbbpunct               100491b2 f   libucrt:ismbbyte.obj
 0001:000481ca       __ismbbpunct_l             100491ca f   libucrt:ismbbyte.obj
 0001:000481e3       __ismbbtrail               100491e3 f   libucrt:ismbbyte.obj
 0001:000481fb       __ismbbtrail_l             100491fb f   libucrt:ismbbyte.obj
 0001:00048214       ___acrt_initialize_command_line 10049214 f   libucrt:argv_data.obj
 0001:0004822d       ___acrt_uninitialize_command_line 1004922d f   libucrt:argv_data.obj
 0001:00048230       ___p___argc                10049230 f   libucrt:argv_data.obj
 0001:00048236       ___p___argv                10049236 f   libucrt:argv_data.obj
 0001:0004823c       ___p___wargv               1004923c f   libucrt:argv_data.obj
 0001:00048242       ___p__acmdln               10049242 f   libucrt:argv_data.obj
 0001:00048248       ___p__pgmptr               10049248 f   libucrt:argv_data.obj
 0001:0004824e       ___p__wcmdln               1004924e f   libucrt:argv_data.obj
 0001:00048254       ___p__wpgmptr              10049254 f   libucrt:argv_data.obj
 0001:0004825a       __get_pgmptr               1004925a f   libucrt:argv_data.obj
 0001:0004828b       __get_wpgmptr              1004928b f   libucrt:argv_data.obj
 0001:00048354       ___acrt_MultiByteToWideChar 10049354 f   libucrt:multibytetowidechar.obj
 0001:0004840e       ___acrt_WideCharToMultiByte 1004940e f   libucrt:widechartomultibyte.obj
 0001:00048515       ___dcrt_get_narrow_environment_from_os 10049515 f   libucrt:get_environment_from_os.obj
 0001:000485b5       ___dcrt_get_wide_environment_from_os 100495b5 f   libucrt:get_environment_from_os.obj
 0001:00048d3d       ??$get_or_create_environment_nolock@$$V@?$__crt_char_traits@D@@SAPAPADXZ 10049d3d f i libucrt:setenv.obj
 0001:00048d42       ??$get_or_create_environment_nolock@$$V@?$__crt_char_traits@_W@@SAPAPA_WXZ 10049d42 f i libucrt:setenv.obj
 0001:00048d47       ??$set_environment_variable@ABQADQAD@?$__crt_char_traits@D@@SAHABQAD$$QBQAD@Z 10049d47 f i libucrt:setenv.obj
 0001:00048d5f       ??$set_environment_variable@ABQA_WQA_W@?$__crt_char_traits@_W@@SAHABQA_W$$QBQA_W@Z 10049d5f f i libucrt:setenv.obj
 0001:00048d76       ??$tcschr@ABQADD@?$__crt_char_traits@D@@SAPADABQAD$$QAD@Z 10049d76 f i libucrt:setenv.obj
 0001:00048d90       ??$tcschr@ABQA_WD@?$__crt_char_traits@_W@@SAPA_WABQA_W$$QAD@Z 10049d90 f i libucrt:setenv.obj
 0001:00048dae       ??$tcscpy_s@AAPADABIAAPAD@?$__crt_char_traits@D@@SAHAAPADABI0@Z 10049dae f i libucrt:setenv.obj
 0001:00048dcc       ??$tcscpy_s@AAPA_WABIAAPA_W@?$__crt_char_traits@_W@@SAHAAPA_WABI0@Z 10049dcc f i libucrt:setenv.obj
 0001:00048dea       ??$tcscpy_s@ABQADABIABQAD@?$__crt_char_traits@D@@SAHABQADABI0@Z 10049dea f i libucrt:setenv.obj
 0001:00048e08       ??$tcscpy_s@ABQA_WABIABQA_W@?$__crt_char_traits@_W@@SAHABQA_WABI0@Z 10049e08 f i libucrt:setenv.obj
 0001:00048e26       ??$tcslen@ABQAD@?$__crt_char_traits@D@@SAIABQAD@Z 10049e26 f i libucrt:setenv.obj
 0001:00048e3e       ??$tcslen@ABQA_W@?$__crt_char_traits@_W@@SAIABQA_W@Z 10049e3e f i libucrt:setenv.obj
 0001:00048e5c       ??$tcsnicoll@ABQBDAAPADABI@?$__crt_char_traits@D@@SAHABQBDAAPADABI@Z 10049e5c f i libucrt:setenv.obj
 0001:00048e7a       ??$tcsnicoll@ABQB_WAAPA_WABI@?$__crt_char_traits@_W@@SAHABQB_WAAPA_WABI@Z 10049e7a f i libucrt:setenv.obj
 0001:00048ebc       ?strchr@@YAPADQADH@Z       10049ebc f i libucrt:setenv.obj
 0001:00048ec7       ?wcschr@@YAPA_WPA_W_W@Z    10049ec7 f i libucrt:setenv.obj
 0001:00048ed2       ___dcrt_set_variable_in_narrow_environment_nolock 10049ed2 f   libucrt:setenv.obj
 0001:00048edd       ___dcrt_set_variable_in_wide_environment_nolock 10049edd f   libucrt:setenv.obj
 0001:00048ee8       ___acrt_getheap            10049ee8 f   libucrt:heap_handle.obj
 0001:00048eee       ___acrt_initialize_heap    10049eee f   libucrt:heap_handle.obj
 0001:00048eff       ___acrt_uninitialize_heap  10049eff f   libucrt:heap_handle.obj
 0001:00048f09       __get_heap_handle          10049f09 f   libucrt:heap_handle.obj
 0001:00048f0f       ___acrt_execute_initializers 10049f0f f   libucrt:shared_initialization.obj
 0001:00048f77       ___acrt_execute_uninitializers 10049f77 f   libucrt:shared_initialization.obj
 0001:00048fa8       ??$__crt_fast_decode_pointer@P6AHPAU_exception@@@Z@@YAP6AHPAU_exception@@@ZQ6AH0@Z@Z 10049fa8 f i libucrt:matherr.obj
 0001:00048fc3       ??$__crt_fast_encode_pointer@P6AHPAU_exception@@@Z@@YAP6AHPAU_exception@@@ZQ6AH0@Z@Z 10049fc3 f i libucrt:matherr.obj
 0001:00048fe2       ?initialize@?$dual_state_global@P6AHPAU_exception@@@Z@__crt_state_management@@QAEXQ6AHPAU_exception@@@Z@Z 10049fe2 f i libucrt:matherr.obj
 0001:00048ffe       ?value@?$dual_state_global@P6AHPAU_exception@@@Z@__crt_state_management@@QAEAAP6AHPAU_exception@@@ZXZ 10049ffe f i libucrt:matherr.obj
 0001:00049001       ___acrt_has_user_matherr   1004a001 f   libucrt:matherr.obj
 0001:0004901e       ___acrt_initialize_user_matherr 1004a01e f   libucrt:matherr.obj
 0001:0004902d       ___acrt_invoke_user_matherr 1004a02d f   libucrt:matherr.obj
 0001:00049063       ___setusermatherr          1004a063 f   libucrt:matherr.obj
 0001:00049078       ___fpe_flt_rounds          1004a078 f   libucrt:fegetround.obj
 0001:000490ac       _fegetround                1004a0ac f   libucrt:fegetround.obj
 0001:000490b9       __add_exp                  1004a0b9 f   libucrt:util.obj
 0001:000490e8       __decomp                   1004a0e8 f   libucrt:util.obj
 0001:000491ba       __get_exp                  1004a1ba f   libucrt:util.obj
 0001:000491d2       __set_bexp                 1004a1d2 f   libucrt:util.obj
 0001:000491f9       __set_exp                  1004a1f9 f   libucrt:util.obj
 0001:00049226       __sptype                   1004a226 f   libucrt:util.obj
 0001:00049289       ___clrfp_sse2              1004a289 f   libucrt:fpctrl.obj
 0001:000492bb       ___ctrlfp_sse2             1004a2bb f   libucrt:fpctrl.obj
 0001:000492f6       ___fclrf_sse2              1004a2f6 f   libucrt:fpctrl.obj
 0001:00049313       ___get_fpsr_sse2           1004a313 f   libucrt:fpctrl.obj
 0001:0004932f       ___set_fpsr_sse2           1004a32f f   libucrt:fpctrl.obj
 0001:000493af       ___set_statfp_sse2         1004a3af f   libucrt:fpctrl.obj
 0001:000493ca       ___statfp_sse2             1004a3ca f   libucrt:fpctrl.obj
 0001:000493df       __clrfp                    1004a3df f   libucrt:fpctrl.obj
 0001:000493f0       __ctrlfp                   1004a3f0 f   libucrt:fpctrl.obj
 0001:0004941a       __set_statfp               1004a41a f   libucrt:fpctrl.obj
 0001:00049473       __statfp                   1004a473 f   libucrt:fpctrl.obj
 0001:00049483       __isctype                  1004a483 f   libucrt:isctype.obj
 0001:000494b6       __isctype_l                1004a4b6 f   libucrt:isctype.obj
 0001:00049581       ___acrt_add_locale_ref     1004a581 f   libucrt:locale_refcounting.obj
 0001:000495fe       ___acrt_free_locale        1004a5fe f   libucrt:locale_refcounting.obj
 0001:00049746       ___acrt_locale_add_lc_time_reference 1004a746 f   libucrt:locale_refcounting.obj
 0001:0004976f       ___acrt_locale_free_lc_time_if_unreferenced 1004a76f f   libucrt:locale_refcounting.obj
 0001:000497a0       ___acrt_locale_release_lc_time_reference 1004a7a0 f   libucrt:locale_refcounting.obj
 0001:000497c9       ___acrt_release_locale_ref 1004a7c9 f   libucrt:locale_refcounting.obj
 0001:0004984a       ___acrt_update_thread_locale_data 1004a84a f   libucrt:locale_refcounting.obj
 0001:000498cb       __updatetlocinfoEx_nolock  1004a8cb f   libucrt:locale_refcounting.obj
 0001:0004991b       ??$?RG@__crt_internal_free_policy@@QBEXQBG@Z 1004a91b f i libucrt:initctype.obj
 0001:0004992d       ??$?RJ@__crt_internal_free_policy@@QBEXQBJ@Z 1004a92d f i libucrt:initctype.obj
 0001:0004993f       ??0?$__crt_unique_heap_ptr@GU__crt_internal_free_policy@@@@QAE@QAG@Z 1004a93f f i libucrt:initctype.obj
 0001:0004994f       ??0?$__crt_unique_heap_ptr@JU__crt_internal_free_policy@@@@QAE@QAJ@Z 1004a94f f i libucrt:initctype.obj
 0001:0004995f       ??1?$__crt_unique_heap_ptr@GU__crt_internal_free_policy@@@@QAE@XZ 1004a95f f i libucrt:initctype.obj
 0001:00049971       ??1?$__crt_unique_heap_ptr@JU__crt_internal_free_policy@@@@QAE@XZ 1004a971 f i libucrt:initctype.obj
 0001:00049983       ?detach@?$__crt_unique_heap_ptr@GU__crt_internal_free_policy@@@@QAEPAGXZ 1004a983 f i libucrt:initctype.obj
 0001:00049989       ?detach@?$__crt_unique_heap_ptr@JU__crt_internal_free_policy@@@@QAEPAJXZ 1004a989 f i libucrt:initctype.obj
 0001:0004998f       ?release@?$__crt_unique_heap_ptr@GU__crt_internal_free_policy@@@@QAEXXZ 1004a98f f i libucrt:initctype.obj
 0001:000499a1       ?release@?$__crt_unique_heap_ptr@JU__crt_internal_free_policy@@@@QAEXXZ 1004a9a1 f i libucrt:initctype.obj
 0001:000499b3       ____lc_codepage_func       1004a9b3 f   libucrt:initctype.obj
 0001:000499d8       ____lc_collate_cp_func     1004a9d8 f   libucrt:initctype.obj
 0001:000499fd       ____lc_locale_name_func    1004a9fd f   libucrt:initctype.obj
 0001:00049a24       ____mb_cur_max_func        1004aa24 f   libucrt:initctype.obj
 0001:00049a49       ____mb_cur_max_l_func      1004aa49 f   libucrt:initctype.obj
 0001:00049a62       ___acrt_locale_initialize_ctype 1004aa62 f   libucrt:initctype.obj
 0001:00049ebf       ??$?RUlconv@@@__crt_internal_free_policy@@QBEXQBUlconv@@@Z 1004aebf f i libucrt:initmon.obj
 0001:00049ed1       ??0?$__crt_unique_heap_ptr@Ulconv@@U__crt_internal_free_policy@@@@QAE@QAUlconv@@@Z 1004aed1 f i libucrt:initmon.obj
 0001:00049ee1       ??1?$__crt_unique_heap_ptr@Ulconv@@U__crt_internal_free_policy@@@@QAE@XZ 1004aee1 f i libucrt:initmon.obj
 0001:00049ef3       ?detach@?$__crt_unique_heap_ptr@Ulconv@@U__crt_internal_free_policy@@@@QAEPAUlconv@@XZ 1004aef3 f i libucrt:initmon.obj
 0001:00049ef9       ?release@?$__crt_unique_heap_ptr@Ulconv@@U__crt_internal_free_policy@@@@QAEXXZ 1004aef9 f i libucrt:initmon.obj
 0001:00049f0b       ___acrt_locale_free_monetary 1004af0b f   libucrt:initmon.obj
 0001:0004a009       ___acrt_locale_initialize_monetary 1004b009 f   libucrt:initmon.obj
 0001:0004a3a1       ___acrt_locale_free_numeric 1004b3a1 f   libucrt:initnum.obj
 0001:0004a40a       ___acrt_locale_initialize_numeric 1004b40a f   libucrt:initnum.obj
 0001:0004a65e       ??$?RU__crt_lc_time_data@@@__crt_internal_free_policy@@QBEXQBU__crt_lc_time_data@@@Z 1004b65e f i libucrt:inittime.obj
 0001:0004a6e2       ??0?$__crt_unique_heap_ptr@U__crt_lc_time_data@@U__crt_internal_free_policy@@@@QAE@QAU__crt_lc_time_data@@@Z 1004b6e2 f i libucrt:inittime.obj
 0001:0004a6f2       ??1?$__crt_unique_heap_ptr@U__crt_lc_time_data@@U__crt_internal_free_policy@@@@QAE@XZ 1004b6f2 f i libucrt:inittime.obj
 0001:0004a704       ??B?$__crt_unique_heap_ptr@U__crt_lc_time_data@@U__crt_internal_free_policy@@@@QBE_NXZ 1004b704 f i libucrt:inittime.obj
 0001:0004a70b       ?detach@?$__crt_unique_heap_ptr@U__crt_lc_time_data@@U__crt_internal_free_policy@@@@QAEPAU__crt_lc_time_data@@XZ 1004b70b f i libucrt:inittime.obj
 0001:0004a736       ?get@?$__crt_unique_heap_ptr@U__crt_lc_time_data@@U__crt_internal_free_policy@@@@QBEPAU__crt_lc_time_data@@XZ 1004b736 f i libucrt:inittime.obj
 0001:0004aa21       ?is_valid@?$__crt_unique_heap_ptr@U__crt_lc_time_data@@U__crt_internal_free_policy@@@@QBE_NXZ 1004ba21 f i libucrt:inittime.obj
 0001:0004aa28       ?release@?$__crt_unique_heap_ptr@U__crt_lc_time_data@@U__crt_internal_free_policy@@@@QAEXXZ 1004ba28 f i libucrt:inittime.obj
 0001:0004aa3a       ___acrt_locale_free_time   1004ba3a f   libucrt:inittime.obj
 0001:0004ab1e       ___acrt_locale_initialize_time 1004bb1e f   libucrt:inittime.obj
 0001:0004ac09       _wcscat_s                  1004bc09 f   libucrt:wcscat_s.obj
 0001:0004ad60       _wcsncat_s                 1004bd60 f   libucrt:wcsncat_s.obj
 0001:0004ad6b       _wcscspn                   1004bd6b f   libucrt:wcscspn.obj
 0001:0004adc4       _wcspbrk                   1004bdc4 f   libucrt:wcspbrk.obj
 0001:0004ae12       ___acrt_GetStringTypeA     1004be12 f   libucrt:getstringtypea.obj
 0001:0004b653       ___acrt_get_qualified_locale 1004c653 f   libucrt:get_qualified_locale.obj
 0001:0004bfe6       ___acrt_get_qualified_locale_downlevel 1004cfe6 f   libucrt:getqloc_downlevel.obj
 0001:0004c1d6       _localeconv                1004d1d6 f   libucrt:localeconv.obj
 0001:0004c1fe       __query_new_mode           1004d1fe f   libucrt:new_mode.obj
 0001:0004c205       __set_new_mode             1004d205 f   libucrt:new_mode.obj
 0001:0004c2e5       ___acrt_fp_strflt_to_string 1004d2e5 f   libucrt:_fptostr.obj
 0001:0004d6a0       ??0big_integer@__crt_strtox@@QAE@ABU01@@Z 1004e6a0 f i libucrt:cfout.obj
 0001:0004d6e0       ??0big_integer@__crt_strtox@@QAE@XZ 1004e6e0 f i libucrt:cfout.obj
 0001:0004d770       ??4big_integer@__crt_strtox@@QAEAAU01@ABU01@@Z 1004e770 f i libucrt:cfout.obj
 0001:0004d7b0       ??8__crt_strtox@@YA_NABUbig_integer@0@0@Z 1004e7b0 f i libucrt:cfout.obj
 0001:0004d7f0       ??9__crt_strtox@@YA_NABUbig_integer@0@0@Z 1004e7f0 f i libucrt:cfout.obj
 0001:0004d830       ?add_carry@__crt_strtox@@YAIAAIII@Z 1004e830 f i libucrt:cfout.obj
 0001:0004d850       ?add_multiply_carry@__crt_strtox@@YAIAAIIII@Z 1004e850 f i libucrt:cfout.obj
 0001:0004d880       ?bit_scan_reverse@__crt_strtox@@YAII@Z 1004e880 f i libucrt:cfout.obj
 0001:0004d8a0       ?count_sequential_high_zeroes@__crt_strtox@@YAII@Z 1004e8a0 f i libucrt:cfout.obj
 0001:0004d8c0       ?divide@__crt_strtox@@YA_KAAUbig_integer@1@ABU21@@Z 1004e8c0 f i libucrt:cfout.obj
 0001:0004dd70       ?is_zero@__crt_strtox@@YA_NABUbig_integer@1@@Z 1004ed70 f i libucrt:cfout.obj
 0001:0004dd80       ?make_big_integer@__crt_strtox@@YA?AUbig_integer@1@_K@Z 1004ed80 f i libucrt:cfout.obj
 0001:0004dda0       ?make_big_integer_power_of_two@__crt_strtox@@YA?AUbig_integer@1@I@Z 1004eda0 f i libucrt:cfout.obj
 0001:0004ddf0       ?multiply@__crt_strtox@@YA_NAAUbig_integer@1@ABU21@@Z 1004edf0 f i libucrt:cfout.obj
 0001:0004e150       ?multiply@__crt_strtox@@YA_NAAUbig_integer@1@I@Z 1004f150 f i libucrt:cfout.obj
 0001:0004e220       ?multiply_64_32@__crt_strtox@@YA_K_KI@Z 1004f220 f i libucrt:cfout.obj
 0001:0004e240       ?multiply_by_power_of_ten@__crt_strtox@@YA_NAAUbig_integer@1@I@Z 1004f240 f i libucrt:cfout.obj
 0001:0004e7d0       ?multiply_core@__crt_strtox@@YAIQAIII@Z 1004f7d0 f i libucrt:cfout.obj
 0001:0004e810       ?shift_left@__crt_strtox@@YA_NAAUbig_integer@1@I@Z 1004f810 f i libucrt:cfout.obj
 0001:0004e93f       ___acrt_fltout             1004f93f f   libucrt:cfout.obj
 0001:0004ffa8       ?__c32rtomb_utf8@__crt_mbstring@@YAIPAD_UPAU_Mbstatet@@AAV__crt_cached_ptd_host@@@Z 10050fa8 f   libucrt:c32rtomb.obj
 0001:00050058       _c32rtomb                  10051058 f   libucrt:c32rtomb.obj
 0001:000500bb       ?__mbrtowc_utf8@__crt_mbstring@@YAIPA_WPBDIPAU_Mbstatet@@AAV__crt_cached_ptd_host@@@Z 100510bb f   libucrt:mbrtowc.obj
 0001:000500fe       ?__mbsrtowcs_utf8@__crt_mbstring@@YAIPA_WPAPBDIPAU_Mbstatet@@AAV__crt_cached_ptd_host@@@Z 100510fe f   libucrt:mbrtowc.obj
 0001:00050638       _btowc                     10051638 f   libucrt:mbrtowc.obj
 0001:000506a9       _mbrlen                    100516a9 f   libucrt:mbrtowc.obj
 0001:000506f1       _mbrtowc                   100516f1 f   libucrt:mbrtowc.obj
 0001:00050758       _mbsrtowcs                 10051758 f   libucrt:mbrtowc.obj
 0001:00050792       _mbsrtowcs_s               10051792 f   libucrt:mbrtowc.obj
 0001:00050bed       ___acrt_stdio_flush_and_write_narrow_nolock 10051bed f   libucrt:_flsbuf.obj
 0001:00050bf8       ___acrt_stdio_flush_and_write_wide_nolock 10051bf8 f   libucrt:_flsbuf.obj
 0001:00050c03       __isatty                   10051c03 f   libucrt:isatty.obj
 0001:00050c59       ??$?RU__crt_lowio_handle_data@@@__crt_internal_free_policy@@QBEXQBU__crt_lowio_handle_data@@@Z 10051c59 f i libucrt:osfinfo.obj
 0001:00050c6b       ??0?$__crt_unique_heap_ptr@U__crt_lowio_handle_data@@U__crt_internal_free_policy@@@@QAE@QAU__crt_lowio_handle_data@@@Z 10051c6b f i libucrt:osfinfo.obj
 0001:00050c7b       ??1?$__crt_unique_heap_ptr@U__crt_lowio_handle_data@@U__crt_internal_free_policy@@@@QAE@XZ 10051c7b f i libucrt:osfinfo.obj
 0001:00050c8d       ??B?$__crt_unique_heap_ptr@U__crt_lowio_handle_data@@U__crt_internal_free_policy@@@@QBE_NXZ 10051c8d f i libucrt:osfinfo.obj
 0001:00050c94       ?detach@?$__crt_unique_heap_ptr@U__crt_lowio_handle_data@@U__crt_internal_free_policy@@@@QAEPAU__crt_lowio_handle_data@@XZ 10051c94 f i libucrt:osfinfo.obj
 0001:00050c9a       ?get@?$__crt_unique_heap_ptr@U__crt_lowio_handle_data@@U__crt_internal_free_policy@@@@QBEPAU__crt_lowio_handle_data@@XZ 10051c9a f i libucrt:osfinfo.obj
 0001:00050c9d       ?is_valid@?$__crt_unique_heap_ptr@U__crt_lowio_handle_data@@U__crt_internal_free_policy@@@@QBE_NXZ 10051c9d f i libucrt:osfinfo.obj
 0001:00050ca4       ?release@?$__crt_unique_heap_ptr@U__crt_lowio_handle_data@@U__crt_internal_free_policy@@@@QAEXXZ 10051ca4 f i libucrt:osfinfo.obj
 0001:00050cb6       ___acrt_lowio_create_handle_array 10051cb6 f   libucrt:osfinfo.obj
 0001:00050d31       ___acrt_lowio_destroy_handle_array 10051d31 f   libucrt:osfinfo.obj
 0001:00050d66       ___acrt_lowio_ensure_fh_exists 10051d66 f   libucrt:osfinfo.obj
 0001:00050e04       ___acrt_lowio_lock_fh      10051e04 f   libucrt:osfinfo.obj
 0001:00050e27       ___acrt_lowio_set_os_handle 10051e27 f   libucrt:osfinfo.obj
 0001:00050eb9       ___acrt_lowio_unlock_fh    10051eb9 f   libucrt:osfinfo.obj
 0001:00050edc       __alloc_osfhnd             10051edc f   libucrt:osfinfo.obj
 0001:00050fef       __free_osfhnd              10051fef f   libucrt:osfinfo.obj
 0001:00051080       __get_osfhandle            10052080 f   libucrt:osfinfo.obj
 0001:000510ea       __open_osfhandle           100520ea f   libucrt:osfinfo.obj
 0001:0005121a       ___acrt_GetStringTypeW     1005221a f   libucrt:getstringtypew.obj
 0001:000512ba       ___acrt_DownlevelLCIDToLocaleName 100522ba f   libucrt:lcidtoname_downlevel.obj
 0001:0005135d       ___acrt_DownlevelLocaleNameToLCID 1005235d f   libucrt:lcidtoname_downlevel.obj
 0001:000514ec       __commit                   100524ec f   libucrt:commit.obj
 0001:00051d5a       __utf8_no_of_trailbytes    10052d5a f i libucrt:write.obj
 0001:00051d6b       __write                    10052d6b f   libucrt:write.obj
 0001:00051da2       __write_internal           10052da2 f   libucrt:write.obj
 0001:00051eb3       __write_nolock             10052eb3 f   libucrt:write.obj
 0001:000520cf       ___ascii_wcsnicmp          100530cf f   libucrt:wcsnicmp.obj
 0001:0005211e       __wcsnicmp                 1005311e f   libucrt:wcsnicmp.obj
 0001:0005216a       __wcsnicmp_l               1005316a f   libucrt:wcsnicmp.obj
 0001:0005223d       __strnicmp                 1005323d f   libucrt:strnicmp.obj
 0001:000522aa       __strnicmp_l               100532aa f   libucrt:strnicmp.obj
 0001:000526cd       ??$tsopen_nolock@PAHABQAHABQBDABHABHABHABH@?$__crt_char_traits@D@@SAH$$QAPAHABQAHABQBDABH333@Z 100536cd f i libucrt:open.obj
 0001:000526ff       ??$tsopen_nolock@PAHABQAHABQB_WABHABHABHABH@?$__crt_char_traits@_W@@SAH$$QAPAHABQAHABQB_WABH333@Z 100536ff f i libucrt:open.obj
 0001:00052731       ??$tsopen_nolock@PAHPAHABQBDABHHABHH@?$__crt_char_traits@D@@SAH$$QAPAH0ABQBDABH$$QAH23@Z 10053731 f i libucrt:open.obj
 0001:00052763       ??$tsopen_nolock@PAHPAHABQB_WABHHABHH@?$__crt_char_traits@_W@@SAH$$QAPAH0ABQB_WABH$$QAH23@Z 10053763 f i libucrt:open.obj
 0001:00052d9d       __open                     10053d9d f   libucrt:open.obj
 0001:00052db5       __sopen                    10053db5 f   libucrt:open.obj
 0001:00052de8       __sopen_dispatch           10053de8 f   libucrt:open.obj
 0001:00052df3       __sopen_nolock             10053df3 f   libucrt:open.obj
 0001:00052e61       __sopen_s                  10053e61 f   libucrt:open.obj
 0001:00052e81       __wopen                    10053e81 f   libucrt:open.obj
 0001:00052e99       __wsopen                   10053e99 f   libucrt:open.obj
 0001:00052ecc       __wsopen_dispatch          10053ecc f   libucrt:open.obj
 0001:00052ed7       __wsopen_nolock            10053ed7 f   libucrt:open.obj
 0001:00053201       __wsopen_s                 10054201 f   libucrt:open.obj
 0001:00053221       ___p__commode              10054221 f   libucrt:ncommode.obj
 0001:00053227       ??$parse_integer_from_string@JDPAPAD@__crt_strtox@@YAJQBDQAPADHQAU__crt_locale_pointers@@@Z 10054227 f i libucrt:strtox.obj
 0001:0005326e       ??$parse_integer_from_string@J_WPAPA_W@__crt_strtox@@YAJQB_WQAPA_WHQAU__crt_locale_pointers@@@Z 1005426e f i libucrt:strtox.obj
 0001:000532b5       ??$parse_integer_from_string@KDPAPAD@__crt_strtox@@YAKQBDQAPADHQAU__crt_locale_pointers@@@Z 100542b5 f i libucrt:strtox.obj
 0001:000532fc       ??$parse_integer_from_string@K_WPAPA_W@__crt_strtox@@YAKQB_WQAPA_WHQAU__crt_locale_pointers@@@Z 100542fc f i libucrt:strtox.obj
 0001:00053343       ??$parse_integer_from_string@_JDPAPAD@__crt_strtox@@YA_JQBDQAPADHQAU__crt_locale_pointers@@@Z 10054343 f i libucrt:strtox.obj
 0001:00053390       ??$parse_integer_from_string@_J_WPAPA_W@__crt_strtox@@YA_JQB_WQAPA_WHQAU__crt_locale_pointers@@@Z 10054390 f i libucrt:strtox.obj
 0001:000533dd       ??$parse_integer_from_string@_KDPAPAD@__crt_strtox@@YA_KQBDQAPADHQAU__crt_locale_pointers@@@Z 100543dd f i libucrt:strtox.obj
 0001:0005342a       ??$parse_integer_from_string@_K_WPAPA_W@__crt_strtox@@YA_KQB_WQAPA_WHQAU__crt_locale_pointers@@@Z 1005442a f i libucrt:strtox.obj
 0001:00053477       __strtoi64                 10054477 f   libucrt:strtox.obj
 0001:000534c3       __strtoi64_l               100544c3 f   libucrt:strtox.obj
 0001:00053510       __strtoimax_l              10054510 f   libucrt:strtox.obj
 0001:0005355d       __strtol_l                 1005455d f   libucrt:strtox.obj
 0001:000535a4       __strtoll_l                100545a4 f   libucrt:strtox.obj
 0001:000535f1       __strtoui64                100545f1 f   libucrt:strtox.obj
 0001:0005363d       __strtoui64_l              1005463d f   libucrt:strtox.obj
 0001:0005368a       __strtoul_l                1005468a f   libucrt:strtox.obj
 0001:000536d1       __strtoull_l               100546d1 f   libucrt:strtox.obj
 0001:0005371e       __strtoumax_l              1005471e f   libucrt:strtox.obj
 0001:0005376b       __wcstoi64                 1005476b f   libucrt:strtox.obj
 0001:000537b7       __wcstoi64_l               100547b7 f   libucrt:strtox.obj
 0001:00053804       __wcstoimax_l              10054804 f   libucrt:strtox.obj
 0001:00053851       __wcstol_l                 10054851 f   libucrt:strtox.obj
 0001:00053898       __wcstoll_l                10054898 f   libucrt:strtox.obj
 0001:000538e5       __wcstoui64                100548e5 f   libucrt:strtox.obj
 0001:00053931       __wcstoui64_l              10054931 f   libucrt:strtox.obj
 0001:0005397e       __wcstoul_l                1005497e f   libucrt:strtox.obj
 0001:000539c5       __wcstoull_l               100549c5 f   libucrt:strtox.obj
 0001:00053a12       __wcstoumax_l              10054a12 f   libucrt:strtox.obj
 0001:00053a5f       _strtoimax                 10054a5f f   libucrt:strtox.obj
 0001:00053aab       _strtol                    10054aab f   libucrt:strtox.obj
 0001:00053af1       _strtoll                   10054af1 f   libucrt:strtox.obj
 0001:00053b3d       _strtoul                   10054b3d f   libucrt:strtox.obj
 0001:00053b83       _strtoull                  10054b83 f   libucrt:strtox.obj
 0001:00053bcf       _strtoumax                 10054bcf f   libucrt:strtox.obj
 0001:00053c1b       _wcstoimax                 10054c1b f   libucrt:strtox.obj
 0001:00053c67       _wcstol                    10054c67 f   libucrt:strtox.obj
 0001:00053cad       _wcstoll                   10054cad f   libucrt:strtox.obj
 0001:00053cf9       _wcstoul                   10054cf9 f   libucrt:strtox.obj
 0001:00053d3f       _wcstoull                  10054d3f f   libucrt:strtox.obj
 0001:00053d8b       _wcstoumax                 10054d8b f   libucrt:strtox.obj
 0001:000543ed       ??$tcscpy_s@AAPADABIABQBD@?$__crt_char_traits@D@@SAHAAPADABIABQBD@Z 100553ed f i libucrt:getenv.obj
 0001:0005440b       ??$tcscpy_s@AAPA_WABIABQB_W@?$__crt_char_traits@_W@@SAHAAPA_WABIABQB_W@Z 1005540b f i libucrt:getenv.obj
 0001:00054429       ??$tcscpy_s@ABQADABIABQBD@?$__crt_char_traits@D@@SAHABQADABIABQBD@Z 10055429 f i libucrt:getenv.obj
 0001:00054447       ??$tcscpy_s@ABQA_WABIABQB_W@?$__crt_char_traits@_W@@SAHABQA_WABIABQB_W@Z 10055447 f i libucrt:getenv.obj
 0001:00054465       ??$tcsnicoll@AAPADABQBDABI@?$__crt_char_traits@D@@SAHAAPADABQBDABI@Z 10055465 f i libucrt:getenv.obj
 0001:00054483       ??$tcsnicoll@AAPA_WABQB_WABI@?$__crt_char_traits@_W@@SAHAAPA_WABQB_WABI@Z 10055483 f i libucrt:getenv.obj
 0001:000544a1       ??$tcsnlen@ABQBDH@?$__crt_char_traits@D@@SAIABQBD$$QAH@Z 100554a1 f i libucrt:getenv.obj
 0001:000544b9       ??$tcsnlen@ABQB_WH@?$__crt_char_traits@_W@@SAIABQB_W$$QAH@Z 100554b9 f i libucrt:getenv.obj
 0001:000544d1       __dupenv_s                 100554d1 f   libucrt:getenv.obj
 0001:000544ef       __wdupenv_s                100554ef f   libucrt:getenv.obj
 0001:0005450d       __wgetenv                  1005550d f   libucrt:getenv.obj
 0001:00054518       __wgetenv_s                10055518 f   libucrt:getenv.obj
 0001:00054523       _getenv                    10055523 f   libucrt:getenv.obj
 0001:0005452e       _getenv_s                  1005552e f   libucrt:getenv.obj
 0001:00054600       _qsort                     10055600 f   libucrt:qsort.obj
 0001:00054ba5       _strncpy_s                 10055ba5 f   libucrt:strncpy_s.obj
 0001:00054bb0       _strpbrk                   10055bb0 f   libucrt:strpbrk.obj
 0001:00054bf0       __mbsdec                   10055bf0 f   libucrt:mbsdec.obj
 0001:00054c07       __mbsdec_l                 10055c07 f   libucrt:mbsdec.obj
 0001:00054e83       ___acrt_LCMapStringA       10055e83 f   libucrt:lcmapstringa.obj
 0001:00054edb       __wcsnicoll                10055edb f   libucrt:wcsnicol.obj
 0001:00054f48       __wcsnicoll_l              10055f48 f   libucrt:wcsnicol.obj
 0001:00055008       __strnicoll                10056008 f   libucrt:strnicol.obj
 0001:00055031       __strnicoll_l              10056031 f   libucrt:strnicol.obj
 0001:000550f9       ___acrt_SetEnvironmentVariableA 100560f9 f   libucrt:setenvironmentvariablea.obj
 0001:0005518e       ??$__acrt_fenv_shift_bits@W4__acrt_fenv_abstract_control@@@@YA?AW4__acrt_fenv_abstract_control@@W40@0I@Z 1005618e f i libucrt:_fenvutils.obj
 0001:000551a0       ??$__acrt_fenv_shift_bits@W4__acrt_fenv_abstract_status@@@@YA?AW4__acrt_fenv_abstract_status@@W40@0I@Z 100561a0 f i libucrt:_fenvutils.obj
 0001:000551b2       ??$__acrt_fenv_translate_bit@W4__acrt_fenv_abstract_control@@W4__acrt_fenv_machine_sse_control@@@@YA?AW4__acrt_fenv_abstract_control@@W4__acrt_fenv_machine_sse_control@@0W40@1@Z 100561b2 f i libucrt:_fenvutils.obj
 0001:000551ca       ??$__acrt_fenv_translate_bit@W4__acrt_fenv_abstract_control@@W4__acrt_fenv_machine_x87_control@@@@YA?AW4__acrt_fenv_abstract_control@@W4__acrt_fenv_machine_x87_control@@0W40@1@Z 100561ca f i libucrt:_fenvutils.obj
 0001:000551e2       ??$__acrt_fenv_translate_bit@W4__acrt_fenv_abstract_status@@W4__acrt_fenv_machine_sse_status@@@@YA?AW4__acrt_fenv_abstract_status@@W4__acrt_fenv_machine_sse_status@@0W40@1@Z 100561e2 f i libucrt:_fenvutils.obj
 0001:000551f7       ??$__acrt_fenv_translate_bit@W4__acrt_fenv_abstract_status@@W4__acrt_fenv_machine_x87_status@@@@YA?AW4__acrt_fenv_abstract_status@@W4__acrt_fenv_machine_x87_status@@0W40@1@Z 100561f7 f i libucrt:_fenvutils.obj
 0001:0005520c       ??$__acrt_fenv_translate_bit@W4__acrt_fenv_machine_sse_control@@W4__acrt_fenv_abstract_control@@@@YA?AW4__acrt_fenv_machine_sse_control@@W4__acrt_fenv_abstract_control@@0W40@1@Z 1005620c f i libucrt:_fenvutils.obj
 0001:00055223       ??$__acrt_fenv_translate_bit@W4__acrt_fenv_machine_sse_status@@W4__acrt_fenv_abstract_status@@@@YA?AW4__acrt_fenv_machine_sse_status@@W4__acrt_fenv_abstract_status@@0W40@1@Z 10056223 f i libucrt:_fenvutils.obj
 0001:00055238       ??$__acrt_fenv_translate_bit@W4__acrt_fenv_machine_x87_control@@W4__acrt_fenv_abstract_control@@@@YA?AW4__acrt_fenv_machine_x87_control@@W4__acrt_fenv_abstract_control@@0W40@1@Z 10056238 f i libucrt:_fenvutils.obj
 0001:0005524f       ??$__acrt_fenv_translate_bit@W4__acrt_fenv_machine_x87_status@@W4__acrt_fenv_abstract_status@@@@YA?AW4__acrt_fenv_machine_x87_status@@W4__acrt_fenv_abstract_status@@0W40@1@Z 1005624f f i libucrt:_fenvutils.obj
 0001:00055264       ??$__acrt_fenv_unshift_bits@W4__acrt_fenv_abstract_control@@@@YA?AW4__acrt_fenv_abstract_control@@W40@0I@Z 10056264 f i libucrt:_fenvutils.obj
 0001:00055276       ??$__acrt_fenv_unshift_bits@W4__acrt_fenv_abstract_status@@@@YA?AW4__acrt_fenv_abstract_status@@W40@0I@Z 10056276 f i libucrt:_fenvutils.obj
 0001:0005566b       ??I@YA?AW4__acrt_fenv_abstract_control@@W40@0@Z 1005666b f i libucrt:_fenvutils.obj
 0001:00055678       ??I@YA?AW4__acrt_fenv_abstract_status@@W40@0@Z 10056678 f i libucrt:_fenvutils.obj
 0001:00055685       ??I@YA?AW4__acrt_fenv_machine_sse_control@@W40@0@Z 10056685 f i libucrt:_fenvutils.obj
 0001:00055692       ??I@YA?AW4__acrt_fenv_machine_sse_status@@W40@0@Z 10056692 f i libucrt:_fenvutils.obj
 0001:0005569f       ??I@YA?AW4__acrt_fenv_machine_x87_control@@W40@0@Z 1005669f f i libucrt:_fenvutils.obj
 0001:000556ac       ??I@YA?AW4__acrt_fenv_machine_x87_status@@W40@0@Z 100566ac f i libucrt:_fenvutils.obj
 0001:000556b9       ??U@YA?AW4__acrt_fenv_abstract_control@@W40@0@Z 100566b9 f i libucrt:_fenvutils.obj
 0001:000556c6       ??U@YA?AW4__acrt_fenv_abstract_status@@W40@0@Z 100566c6 f i libucrt:_fenvutils.obj
 0001:000556d3       ??U@YA?AW4__acrt_fenv_machine_sse_control@@W40@0@Z 100566d3 f i libucrt:_fenvutils.obj
 0001:000556e0       ??U@YA?AW4__acrt_fenv_machine_x87_control@@W40@0@Z 100566e0 f i libucrt:_fenvutils.obj
 0001:000556ed       ??_5@YAAAW4__acrt_fenv_abstract_control@@AAW40@W40@@Z 100566ed f i libucrt:_fenvutils.obj
 0001:000556fc       ??_5@YAAAW4__acrt_fenv_abstract_status@@AAW40@W40@@Z 100566fc f i libucrt:_fenvutils.obj
 0001:0005570b       ??_5@YAAAW4__acrt_fenv_machine_sse_control@@AAW40@W40@@Z 1005670b f i libucrt:_fenvutils.obj
 0001:0005571c       ??_5@YAAAW4__acrt_fenv_machine_sse_status@@AAW40@W40@@Z 1005671c f i libucrt:_fenvutils.obj
 0001:0005572b       ??_5@YAAAW4__acrt_fenv_machine_x87_control@@AAW40@W40@@Z 1005672b f i libucrt:_fenvutils.obj
 0001:0005573c       ??_5@YAAAW4__acrt_fenv_machine_x87_status@@AAW40@W40@@Z 1005673c f i libucrt:_fenvutils.obj
 0001:0005574b       ?__acrt_fenv_shift_abstract_sse_control@@YA?AW4__acrt_fenv_abstract_control@@W41@@Z 1005674b f i libucrt:_fenvutils.obj
 0001:00055768       ?__acrt_fenv_shift_abstract_sse_status@@YA?AW4__acrt_fenv_abstract_status@@W41@@Z 10056768 f i libucrt:_fenvutils.obj
 0001:00055778       ?__acrt_fenv_shift_abstract_x87_control@@YA?AW4__acrt_fenv_abstract_control@@W41@@Z 10056778 f i libucrt:_fenvutils.obj
 0001:00055795       ?__acrt_fenv_shift_abstract_x87_status@@YA?AW4__acrt_fenv_abstract_status@@W41@@Z 10056795 f i libucrt:_fenvutils.obj
 0001:000557a5       ?__acrt_fenv_unshift_abstract_sse_control@@YA?AW4__acrt_fenv_abstract_control@@W41@@Z 100567a5 f i libucrt:_fenvutils.obj
 0001:000557c4       ?__acrt_fenv_unshift_abstract_sse_status@@YA?AW4__acrt_fenv_abstract_status@@W41@@Z 100567c4 f i libucrt:_fenvutils.obj
 0001:000557d4       ?__acrt_fenv_unshift_abstract_x87_control@@YA?AW4__acrt_fenv_abstract_control@@W41@@Z 100567d4 f i libucrt:_fenvutils.obj
 0001:000557f3       ?__acrt_fenv_unshift_abstract_x87_status@@YA?AW4__acrt_fenv_abstract_status@@W41@@Z 100567f3 f i libucrt:_fenvutils.obj
 0001:00055d06       ___acrt_fenv_expand_round_control 10056d06 f   libucrt:_fenvutils.obj
 0001:00055d3c       ___acrt_fenv_get_common_round_control 10056d3c f   libucrt:_fenvutils.obj
 0001:00055d5e       ___acrt_fenv_get_control   10056d5e f   libucrt:_fenvutils.obj
 0001:00055dde       ___acrt_fenv_get_fp_status_word_from_exception_mask 10056dde f   libucrt:_fenvutils.obj
 0001:00055df8       ___acrt_fenv_get_status    10056df8 f   libucrt:_fenvutils.obj
 0001:00055ea2       ___acrt_fenv_set_control   10056ea2 f   libucrt:_fenvutils.obj
 0001:00055f1d       ___acrt_fenv_set_status    10056f1d f   libucrt:_fenvutils.obj
 0001:000560f8       ___acrt_GetLocaleInfoA     100570f8 f   libucrt:getlocaleinfoa.obj
 0001:000567aa       __i64toa                   100577aa f   libucrt:xtoa.obj
 0001:000567eb       __i64toa_s                 100577eb f   libucrt:xtoa.obj
 0001:0005682a       __i64tow                   1005782a f   libucrt:xtoa.obj
 0001:0005686b       __i64tow_s                 1005786b f   libucrt:xtoa.obj
 0001:000568aa       __itoa                     100578aa f   libucrt:xtoa.obj
 0001:000568df       __itoa_s                   100578df f   libucrt:xtoa.obj
 0001:00056912       __itow                     10057912 f   libucrt:xtoa.obj
 0001:00056947       __itow_s                   10057947 f   libucrt:xtoa.obj
 0001:0005697a       __ltoa                     1005797a f   libucrt:xtoa.obj
 0001:000569af       __ltoa_s                   100579af f   libucrt:xtoa.obj
 0001:000569e2       __ltow                     100579e2 f   libucrt:xtoa.obj
 0001:00056a17       __ltow_s                   10057a17 f   libucrt:xtoa.obj
 0001:00056a4a       __ui64toa                  10057a4a f   libucrt:xtoa.obj
 0001:00056a6c       __ui64toa_s                10057a6c f   libucrt:xtoa.obj
 0001:00056a8c       __ui64tow                  10057a8c f   libucrt:xtoa.obj
 0001:00056aae       __ui64tow_s                10057aae f   libucrt:xtoa.obj
 0001:00056ace       __ultoa                    10057ace f   libucrt:xtoa.obj
 0001:00056aed       __ultoa_s                  10057aed f   libucrt:xtoa.obj
 0001:00056b0a       __ultow                    10057b0a f   libucrt:xtoa.obj
 0001:00056b29       __ultow_s                  10057b29 f   libucrt:xtoa.obj
 0001:00056b46       __controlfp_s              10057b46 f   libucrt:contrlfp.obj
 0001:00056ba5       _fegetenv                  10057ba5 f   libucrt:fegetenv.obj
 0001:00056bc2       _fesetenv                  10057bc2 f   libucrt:fesetenv.obj
 0001:00056c0e       _feholdexcept              10057c0e f   libucrt:feholdexcept.obj
 0001:00056c60       __CIlog10                  10057c60 f   libucrt:log10_impl.obj
 0001:00056c9b       __CIlog10_default          10057c9b f   libucrt:log10_impl.obj
 0001:00056caf       __log10_default            10057caf     libucrt:log10_impl.obj
 0001:00056d70       _ceil                      10057d70 f   libucrt:ceil_pentium4.obj
 0001:00056db0       __ceil_pentium4            10057db0 f   libucrt:ceil_pentium4.obj
 0001:00056e8d       ?reset_and_return@__crt_mbstring@@YAIIPAU_Mbstatet@@@Z 10057e8d f   libucrt:common_utf8.obj
 0001:00056ea1       ?return_illegal_sequence@__crt_mbstring@@YAIPAU_Mbstatet@@AAV__crt_cached_ptd_host@@@Z 10057ea1 f   libucrt:common_utf8.obj
 0001:00056ec3       ?__mbrtoc32_utf8@__crt_mbstring@@YAIPA_UPBDIPAU_Mbstatet@@AAV__crt_cached_ptd_host@@@Z 10057ec3 f   libucrt:mbrtoc32.obj
 0001:00057074       _mbrtoc32                  10058074 f   libucrt:mbrtoc32.obj
 0001:0005748e       __lseek                    1005848e f   libucrt:lseek.obj
 0001:000574c5       __lseek_internal           100584c5 f   libucrt:lseek.obj
 0001:000574d0       __lseek_nolock             100584d0 f   libucrt:lseek.obj
 0001:00057507       __lseek_nolock_internal    10058507 f   libucrt:lseek.obj
 0001:00057512       __lseeki64                 10058512 f   libucrt:lseek.obj
 0001:00057552       __lseeki64_internal        10058552 f   libucrt:lseek.obj
 0001:00057570       __lseeki64_nolock          10058570 f   libucrt:lseek.obj
 0001:000575b0       __lseeki64_nolock_internal 100585b0 f   libucrt:lseek.obj
 0001:000575ce       ___acrt_stdio_allocate_buffer_nolock 100585ce f   libucrt:_getbuf.obj
 0001:000576ca       ___acrt_report_runtime_error 100586ca f   libucrt:report_runtime_error.obj
 0001:000577df       __query_app_type           100587df f   libucrt:report_runtime_error.obj
 0001:000577e5       __set_app_type             100587e5 f   libucrt:report_runtime_error.obj
 0001:000578d5       __putwch                   100588d5 f   libucrt:putwch.obj
 0001:00057902       __putwch_nolock            10058902 f   libucrt:putwch.obj
 0001:00057934       __putwch_nolock_internal   10058934 f   libucrt:putwch.obj
 0001:00057e82       __read                     10058e82 f   libucrt:read.obj
 0001:00057f9b       __read_nolock              10058f9b f   libucrt:read.obj
 0001:00058330       ___ascii_strnicmp          10059330 f   libucrt:_strnicm.obj
 0001:00058391       ??$__crt_interlocked_read@H@@YAHPDH@Z 10059391 f i libucrt:setmode.obj
 0001:0005839e       __get_fmode                1005939e f   libucrt:setmode.obj
 0001:000583cb       __set_fmode                100593cb f   libucrt:setmode.obj
 0001:00058408       __setmode                  10059408 f   libucrt:setmode.obj
 0001:00058528       __setmode_nolock           10059528 f   libucrt:setmode.obj
 0001:000586f3       ??0__crt_seek_guard@@QAE@H_J@Z 100596f3 f i libucrt:chsize.obj
 0001:00058740       ??1__crt_seek_guard@@QAE@XZ 10059740 f i libucrt:chsize.obj
 0001:00058860       ?check@?$cached@K@__crt_cached_ptd_host@@QBE_NK@Z 10059860 f i libucrt:chsize.obj
 0001:0005887c       __chsize                   1005987c f   libucrt:chsize.obj
 0001:00058898       __chsize_nolock            10059898 f   libucrt:chsize.obj
 0001:000588cf       __chsize_nolock_internal   100598cf f   libucrt:chsize.obj
 0001:00058a66       __chsize_s                 10059a66 f   libucrt:chsize.obj
 0001:00058a9d       __umask                    10059a9d f   libucrt:umask.obj
 0001:00058ac0       __umask_s                  10059ac0 f   libucrt:umask.obj
 0001:00058afb       ___strncnt                 10059afb f   libucrt:strncnt.obj
 0001:00058b17       ___acrt_CompareStringW     10059b17 f   libucrt:comparestringw.obj
 0001:00058e1b       ___acrt_CompareStringA     10059e1b f   libucrt:comparestringa.obj
 0001:00058fa4       ___control87_2             10059fa4 f   libucrt:ieee87.obj
 0001:0005943c       ___fpreset_sse2            1005a43c f   libucrt:ieee87.obj
 0001:00059612       __clearfp                  1005a612 f   libucrt:ieee87.obj
 0001:000596f0       __control87                1005a6f0 f   libucrt:ieee87.obj
 0001:000599f1       __controlfp                1005a9f1 f   libucrt:ieee87.obj
 0001:00059a0b       __fpreset                  1005aa0b f   libucrt:ieee87.obj
 0001:00059ae1       __set_controlfp            1005aae1 f   libucrt:ieee87.obj
 0001:00059b54       __statusfp                 1005ab54 f   libucrt:ieee87.obj
 0001:00059bef       __statusfp2                1005abef f   libucrt:ieee87.obj
 0001:00059c52       ___acrt_initialize_sse2    1005ac52 f   libucrt:mathfcns.obj
 0001:00059c62       __set_SSE2_enable          1005ac62 f   libucrt:mathfcns.obj
 0001:00059c90       __CIlog10_pentium4         1005ac90 f   libucrt:log10_pentium4.obj
 0001:00059ca8       __log10_pentium4           1005aca8     libucrt:log10_pentium4.obj
 0001:00059f40       __fFEXP                    1005af40 f   libucrt:87tran.obj
 0001:00059f97       __rtinfpopse               1005af97     libucrt:87tran.obj
 0001:00059f99       __rtinfnpopse              1005af99     libucrt:87tran.obj
 0001:00059fa9       __fFLN                     1005afa9     libucrt:87tran.obj
 0001:0005a05e       __rtinfpop                 1005b05e     libucrt:87tran.obj
 0001:0005a060       __rtinfnpop                1005b060     libucrt:87tran.obj
 0001:0005a070       __rtforexpinf              1005b070 f   libucrt:87tran.obj
 0001:0005a07d       __ffexpm1                  1005b07d     libucrt:87tran.obj
 0001:0005a130       __trandisp1                1005b130 f   libucrt:87disp.obj
 0001:0005a1a5       __trandisp2                1005b1a5 f   libucrt:87disp.obj
 0001:0005a23f       __rttospopde               1005b23f     libucrt:87disp.obj
 0001:0005a244       __rttospop                 1005b244     libucrt:87disp.obj
 0001:0005a250       __rtnospop                 1005b250 f   libucrt:87disp.obj
 0001:0005a260       __rttosnpop                1005b260 f   libucrt:87disp.obj
 0001:0005a261       __rtnospopde               1005b261     libucrt:87disp.obj
 0001:0005a268       __rtzeropop                1005b268     libucrt:87disp.obj
 0001:0005a26a       __rtzeronpop               1005b26a     libucrt:87disp.obj
 0001:0005a270       __rtzerospop               1005b270 f   libucrt:87disp.obj
 0001:0005a27d       __rtonepop                 1005b27d     libucrt:87disp.obj
 0001:0005a280       __rtonenpop                1005b280 f   libucrt:87disp.obj
 0001:0005a290       __tosnan1                  1005b290 f   libucrt:87disp.obj
 0001:0005a2c0       __nosnan2                  1005b2c0 f   libucrt:87disp.obj
 0001:0005a2d0       __tosnan2                  1005b2d0 f   libucrt:87disp.obj
 0001:0005a300       __nan2                     1005b300 f   libucrt:87disp.obj
 0001:0005a340       __rtindfpop                1005b340 f   libucrt:87disp.obj
 0001:0005a342       __rtindfnpop               1005b342     libucrt:87disp.obj
 0001:0005a353       __rttosnpopde              1005b353     libucrt:87disp.obj
 0001:0005a360       __rtatan2inf               1005b360 f   libucrt:87disp.obj
 0001:0005a37d       __rtchsifneg               1005b37d     libucrt:87disp.obj
 0001:0005a384       ___setfflag                1005b384 f   libucrt:fp_flags.obj
 0001:0005a3a0       __twoToTOS                 1005b3a0 f   libucrt:common.obj
 0001:0005a3b5       __load_CW                  1005b3b5 f   libucrt:common.obj
 0001:0005a3cc       __convertTOStoQNaN         1005b3cc f   libucrt:common.obj
 0001:0005a3e5       __fload_withFB             1005b3e5 f   libucrt:common.obj
 0001:0005a428       __checkTOS_withFB          1005b428 f   libucrt:common.obj
 0001:0005a43e       __fast_exit                1005b43e f   libucrt:common.obj
 0001:0005a44b       __math_exit                1005b44b f   libucrt:common.obj
 0001:0005a475       __check_overflow_exit      1005b475 f   libucrt:common.obj
 0001:0005a489       __check_range_exit         1005b489 f   libucrt:common.obj
 0001:0005a530       __startTwoArgErrorHandling 1005b530 f   libucrt:genexcep.obj
 0001:0005a547       __startOneArgErrorHandling 1005b547 f   libucrt:genexcep.obj
 0001:0005a583       ___libm_error_support      1005b583 f   libucrt:libm_error.obj
 0001:0005a777       ___libm_setusermatherr     1005b777 f   libucrt:libm_error.obj
 0001:0005a79e       __ceil_default             1005b79e f   libucrt:ceil.obj
 0001:0005a85c       __set_error_mode           1005b85c f   libucrt:set_error_mode.obj
 0001:0005a99e       ??$message_box@$$TABQBDABQBDK@?$__crt_char_traits@D@@SAH$$QA$$TABQBD1$$QAK@Z 1005b99e f i libucrt:crtmbox.obj
 0001:0005a9be       ??$message_box@$$TABQB_WABQB_WK@?$__crt_char_traits@_W@@SAH$$QA$$TABQB_W1$$QAK@Z 1005b9be f i libucrt:crtmbox.obj
 0001:0005a9de       ??$message_box@PAUHWND__@@ABQBDABQBDABI@?$__crt_char_traits@D@@SAH$$QAPAUHWND__@@ABQBD1ABI@Z 1005b9de f i libucrt:crtmbox.obj
 0001:0005a9fe       ??$message_box@PAUHWND__@@ABQB_WABQB_WABI@?$__crt_char_traits@_W@@SAH$$QAPAUHWND__@@ABQB_W1ABI@Z 1005b9fe f i libucrt:crtmbox.obj
 0001:0005aa1e       ??$output_debug_string@ABQBD@?$__crt_char_traits@D@@SAXABQBD@Z 1005ba1e f i libucrt:crtmbox.obj
 0001:0005aa2f       ??$output_debug_string@ABQB_W@?$__crt_char_traits@_W@@SAXABQB_W@Z 1005ba2f f i libucrt:crtmbox.obj
 0001:0005aa41       ___acrt_show_narrow_message_box 1005ba41 f   libucrt:crtmbox.obj
 0001:0005aa4c       ___acrt_show_wide_message_box 1005ba4c f   libucrt:crtmbox.obj
 0001:0005ab07       ___dcrt_lowio_ensure_console_output_initialized 1005bb07 f   libucrt:initcon.obj
 0001:0005ab26       ___dcrt_terminate_console_output 1005bb26 f   libucrt:initcon.obj
 0001:0005ab3d       ___dcrt_write_console      1005bb3d f   libucrt:initcon.obj
 0001:0005ab92       ?dangerous_get_state_array@?$dual_state_global@H@__crt_state_management@@QAEPAHXZ 1005bb92 f i libucrt:txtmode.obj
 0001:0005ab95       ___acrt_initialize_fmode   1005bb95 f   libucrt:txtmode.obj
 0001:0005abab       ___p__fmode                1005bbab f   libucrt:txtmode.obj
 0001:0005abb1       __d_inttype                1005bbb1 f   libucrt:powhlp.obj
 0001:0005ac19       __powhlp                   1005bc19 f   libucrt:powhlp.obj
 0001:0005ad44       __87except                 1005bd44 f   libucrt:87except.obj
 0001:0005ae54       __frnd                     1005be54 f   libucrt:frnd.obj
 0001:0005ae68       ___acrt_OutputDebugStringA@4 1005be68 f   libucrt:outputdebugstringa.obj
 0001:0005aed7       __chgsign                  1005bed7 f   libucrt:ieeemisc.obj
 0001:0005aeff       __chgsignf                 1005beff f   libucrt:ieeemisc.obj
 0001:0005af20       __copysign                 1005bf20 f   libucrt:ieeemisc.obj
 0001:0005af43       __copysignf                1005bf43 f   libucrt:ieeemisc.obj
 0001:0005af5f       __finite                   1005bf5f f   libucrt:ieeemisc.obj
 0001:0005af79       __fpclass                  1005bf79 f   libucrt:ieeemisc.obj
 0001:0005b01d       __isnan                    1005c01d f   libucrt:ieeemisc.obj
 0001:0005b054       __logb                     1005c054 f   libucrt:ieeemisc.obj
 0001:0005b124       __nextafter                1005c124 f   libucrt:ieeemisc.obj
 0001:0005b143       __scalb                    1005c143 f   libucrt:ieeemisc.obj
 0001:0005b400       __mbstowcs_l               1005c400 f   libucrt:mbstowcs.obj
 0001:0005b438       __mbstowcs_s_l             1005c438 f   libucrt:mbstowcs.obj
 0001:0005b476       _mbstowcs                  1005c476 f   libucrt:mbstowcs.obj
 0001:0005b4ad       _mbstowcs_s                1005c4ad f   libucrt:mbstowcs.obj
 0001:0005b4ea       _ldexp                     1005c4ea f   libucrt:ldexp.obj
 0001:0005b6dd       _nextafter                 1005c6dd f   libucrt:nextafter.obj
 0001:0005b6fc       _nexttoward                1005c6fc f   libucrt:nexttoward.obj
 0001:0005b8e7       __d_int                    1005c8e7 f   libucrt:_test.obj
 0001:0005b9ed       __dtest                    1005c9ed f   libucrt:_test.obj
 0001:0005ba51       __fd_int                   1005ca51 f   libucrt:_test.obj
 0001:0005bb1e       __fdtest                   1005cb1e f   libucrt:_test.obj
 0001:0005bb6c       __fperrraise               1005cb6c f   libucrt:_test.obj
 0001:0005bb8d       __ld_int                   1005cb8d f   libucrt:_test.obj
 0001:0005bb98       __ldtest                   1005cb98 f   libucrt:_test.obj
 0001:0005bba3       __dclass                   1005cba3 f   libucrt:nan.obj
 0001:0005bbb4       __dpcomp                   1005cbb4 f   libucrt:nan.obj
 0001:0005bc0a       __dsign                    1005cc0a f   libucrt:nan.obj
 0001:0005bc1a       _nan                       1005cc1a f   libucrt:nan.obj
 0001:0005bc21       __ldclass                  1005cc21 f   libucrt:nanl.obj
 0001:0005bc32       __ldpcomp                  1005cc32 f   libucrt:nanl.obj
 0001:0005bc88       __ldsign                   1005cc88 f   libucrt:nanl.obj
 0001:0005bc98       _nanl                      1005cc98 f   libucrt:nanl.obj
 0001:0005bc9f       ??_4@YAAAW4__acrt_fenv_abstract_status@@AAW40@W40@@Z 1005cc9f f i libucrt:fegetexceptflag.obj
 0001:0005bcae       _fegetexceptflag           1005ccae f   libucrt:fegetexceptflag.obj
 0001:0005bcdf       ??S@YA?AW4__acrt_fenv_abstract_status@@W40@@Z 1005ccdf f i libucrt:fesetexceptflag.obj
 0001:0005bceb       _fesetexceptflag           1005cceb f   libucrt:fesetexceptflag.obj
 0001:0005bd4d       _fetestexcept              1005cd4d f   libucrt:fetestexcept.obj
 0001:0005bd6d       _IsDebuggerPresent@0       1005cd6d f   kernel32:KERNEL32.dll
 0001:0005bd73       _SetEvent@4                1005cd73 f   kernel32:KERNEL32.dll
 0001:0005bd79       _ResetEvent@4              1005cd79 f   kernel32:KERNEL32.dll
 0001:0005bd7f       _WaitForSingleObjectEx@12  1005cd7f f   kernel32:KERNEL32.dll
 0001:0005bd85       _CreateEventW@16           1005cd85 f   kernel32:KERNEL32.dll
 0001:0005bd8b       _UnhandledExceptionFilter@4 1005cd8b f   kernel32:KERNEL32.dll
 0001:0005bd91       _IsProcessorFeaturePresent@4 1005cd91 f   kernel32:KERNEL32.dll
 0001:0005bd97       _GetStartupInfoW@4         1005cd97 f   kernel32:KERNEL32.dll
 0001:0005bd9d       _QueryPerformanceCounter@4 1005cd9d f   kernel32:KERNEL32.dll
 0001:0005bda3       _GetSystemTimeAsFileTime@4 1005cda3 f   kernel32:KERNEL32.dll
 0001:0005bda9       _InitializeSListHead@4     1005cda9 f   kernel32:KERNEL32.dll
 0001:0005bdaf       _RtlUnwind@16              1005cdaf f   kernel32:KERNEL32.dll
 0001:0005bdb5       _InterlockedPushEntrySList@8 1005cdb5 f   kernel32:KERNEL32.dll
 0001:0005bdbb       _InterlockedFlushSList@4   1005cdbb f   kernel32:KERNEL32.dll
 0001:0005bdc1       _EncodePointer@4           1005cdc1 f   kernel32:KERNEL32.dll
 0001:0005bdc7       _TlsAlloc@0                1005cdc7 f   kernel32:KERNEL32.dll
 0001:0005bdcd       _TlsGetValue@4             1005cdcd f   kernel32:KERNEL32.dll
 0001:0005bdd3       _TlsSetValue@8             1005cdd3 f   kernel32:KERNEL32.dll
 0001:0005bdd9       _TlsFree@4                 1005cdd9 f   kernel32:KERNEL32.dll
 0001:0005bddf       _ExitProcess@4             1005cddf f   kernel32:KERNEL32.dll
 0001:0005bde5       _GetModuleHandleExW@12     1005cde5 f   kernel32:KERNEL32.dll
 0001:0005bdeb       _CreateThread@24           1005cdeb f   kernel32:KERNEL32.dll
 0001:0005bdf1       _ExitThread@4              1005cdf1 f   kernel32:KERNEL32.dll
 0001:0005bdf7       _FreeLibraryAndExitThread@8 1005cdf7 f   kernel32:KERNEL32.dll
 0001:0005bdfd       _SetConsoleCtrlHandler@8   1005cdfd f   kernel32:KERNEL32.dll
 0001:0005be03       _GetCurrentThread@0        1005ce03 f   kernel32:KERNEL32.dll
 0001:0005be09       _GetStdHandle@4            1005ce09 f   kernel32:KERNEL32.dll
 0001:0005be0f       _GetFileType@4             1005ce0f f   kernel32:KERNEL32.dll
 0001:0005be15       _GetDateFormatW@24         1005ce15 f   kernel32:KERNEL32.dll
 0001:0005be1b       _GetTimeFormatW@24         1005ce1b f   kernel32:KERNEL32.dll
 0001:0005be21       _CompareStringW@24         1005ce21 f   kernel32:KERNEL32.dll
 0001:0005be27       _LCMapStringW@24           1005ce27 f   kernel32:KERNEL32.dll
 0001:0005be2d       _GetLocaleInfoW@16         1005ce2d f   kernel32:KERNEL32.dll
 0001:0005be33       _IsValidLocale@8           1005ce33 f   kernel32:KERNEL32.dll
 0001:0005be39       _GetUserDefaultLCID@0      1005ce39 f   kernel32:KERNEL32.dll
 0001:0005be3f       _EnumSystemLocalesW@8      1005ce3f f   kernel32:KERNEL32.dll
 0001:0005be45       _GetTimeZoneInformation@4  1005ce45 f   kernel32:KERNEL32.dll
 0001:0005be4b       _FindClose@4               1005ce4b f   kernel32:KERNEL32.dll
 0001:0005be51       _FindFirstFileExW@24       1005ce51 f   kernel32:KERNEL32.dll
 0001:0005be57       _FindNextFileW@8           1005ce57 f   kernel32:KERNEL32.dll
 0001:0005be5d       _IsValidCodePage@4         1005ce5d f   kernel32:KERNEL32.dll
 0001:0005be63       _GetACP@0                  1005ce63 f   kernel32:KERNEL32.dll
 0001:0005be69       _GetOEMCP@0                1005ce69 f   kernel32:KERNEL32.dll
 0001:0005be6f       _GetCPInfo@8               1005ce6f f   kernel32:KERNEL32.dll
 0001:0005be75       _GetCommandLineA@0         1005ce75 f   kernel32:KERNEL32.dll
 0001:0005be7b       _GetCommandLineW@0         1005ce7b f   kernel32:KERNEL32.dll
 0001:0005be81       _GetEnvironmentStringsW@0  1005ce81 f   kernel32:KERNEL32.dll
 0001:0005be87       _FreeEnvironmentStringsW@4 1005ce87 f   kernel32:KERNEL32.dll
 0001:0005be8d       _SetEnvironmentVariableW@8 1005ce8d f   kernel32:KERNEL32.dll
 0001:0005be93       _GetStringTypeW@16         1005ce93 f   kernel32:KERNEL32.dll
 0001:0005be99       _GetFileSizeEx@8           1005ce99 f   kernel32:KERNEL32.dll
 0001:0005be9f       _SetFilePointerEx@20       1005ce9f f   kernel32:KERNEL32.dll
 0001:0005bea5       _SetStdHandle@8            1005cea5 f   kernel32:KERNEL32.dll
 0001:0005beab       _FlushFileBuffers@4        1005ceab f   kernel32:KERNEL32.dll
 0001:0005beb1       _WriteFile@20              1005ceb1 f   kernel32:KERNEL32.dll
 0001:0005beb7       _GetConsoleOutputCP@0      1005ceb7 f   kernel32:KERNEL32.dll
 0001:0005bebd       _GetConsoleMode@8          1005cebd f   kernel32:KERNEL32.dll
 0001:0005bec3       _ReadFile@20               1005cec3 f   kernel32:KERNEL32.dll
 0001:0005bec9       _ReadConsoleW@20           1005cec9 f   kernel32:KERNEL32.dll
 0001:0005becf       _SetEndOfFile@4            1005cecf f   kernel32:KERNEL32.dll
 0001:0005bed5       _WriteConsoleW@20          1005ced5 f   kernel32:KERNEL32.dll
 0001:0005bee0       __FindPESection            1005cee0 f   LIBCMT:pesect.obj
 0001:0005bf30       __IsNonwritableInCurrentImage 1005cf30 f   LIBCMT:pesect.obj
 0001:0005bff0       __ValidateImageBase        1005cff0 f   LIBCMT:pesect.obj
 0001:0005c030       __aulldvrm                 1005d030 f   LIBCMT:ulldvrm.obj
 0001:0005c0d0       __aulldiv                  1005d0d0 f   LIBCMT:ulldiv.obj
 0001:0005c140       __aullrem                  1005d140 f   LIBCMT:ullrem.obj
 0001:0005c1c0       __alloca_probe_16          1005d1c0 f   LIBCMT:alloca16.obj
 0001:0005c1d6       __alloca_probe_8           1005d1d6     LIBCMT:alloca16.obj
 0001:0005c1ec       __except_handler4_noexcept 1005d1ec f   LIBCMT:chandler4_noexcept.obj
 0001:0005c240       __allrem                   1005d240 f   LIBCMT:llrem.obj
 0001:0005c300       __ftol2_sse_excpt          1005d300 f   LIBCMT:ftol2.obj
 0001:0005c310       __ftol2_sse                1005d310 f   LIBCMT:ftol2.obj
 0001:0005c320       __ftoi2                    1005d320 f   LIBCMT:ftol2.obj
 0001:0005c3a0       __ftoui2                   1005d3a0 f   LIBCMT:ftol2.obj
 0001:0005c450       __ftol2                    1005d450 f   LIBCMT:ftol2.obj
 0001:0005c500       __ftoul2                   1005d500 f   LIBCMT:ftol2.obj
 0001:0005c5b9       __initialize_default_precision 1005d5b9 f   LIBCMT:default_precision.obj
 0001:0005c5e0       _strrchr                   1005d5e0 f   libvcruntime:strrchr.obj
 0001:0005c720       _strchr                    1005d720 f   libvcruntime:strchr.obj
 0001:0005c78e       ___from_strstr_to_strchr   1005d78e     libvcruntime:strchr.obj
 0001:0005c84b       _wcschr                    1005d84b f   libvcruntime:wcschr.obj
 0001:0005c912       __filter_x86_sse2_floating_point_exception 1005d912 f   LIBCMT:x86_exception_filter.obj
 0001:0005c912       __filter_x86_sse2_floating_point_exception_default 1005d912 f   LIBCMT:x86_exception_filter.obj
 0001:0005db3c       ??__FstrHeap@?1??GetInstance@CAtlStringMgr@ATL@@SAPAUIAtlStringMgr@2@XZ@YAXXZ 1005eb3c f i GenericHTTPClient.obj
 0001:0005db46       ??__FstrMgr@?1??GetInstance@CAtlStringMgr@ATL@@SAPAUIAtlStringMgr@2@XZ@YAXXZ 1005eb46 f i GenericHTTPClient.obj
 0002:00000000       __imp__RegQueryInfoKeyW@48 1005f000     advapi32:ADVAPI32.dll
 0002:00000004       __imp__RegEnumKeyExW@32    1005f004     advapi32:ADVAPI32.dll
 0002:00000008       __imp__RegDeleteValueW@8   1005f008     advapi32:ADVAPI32.dll
 0002:0000000c       __imp__RegDeleteKeyW@8     1005f00c     advapi32:ADVAPI32.dll
 0002:00000010       __imp__RegCreateKeyExW@36  1005f010     advapi32:ADVAPI32.dll
 0002:00000014       __imp__RegSetValueExW@24   1005f014     advapi32:ADVAPI32.dll
 0002:00000018       __imp__RegOpenKeyW@12      1005f018     advapi32:ADVAPI32.dll
 0002:0000001c       __imp__RegCreateKeyW@12    1005f01c     advapi32:ADVAPI32.dll
 0002:00000020       __imp__RegQueryValueExW@24 1005f020     advapi32:ADVAPI32.dll
 0002:00000024       __imp__RegOpenKeyExW@20    1005f024     advapi32:ADVAPI32.dll
 0002:00000028       __imp__RegCloseKey@4       1005f028     advapi32:ADVAPI32.dll
 0002:0000002c       \177ADVAPI32_NULL_THUNK_DATA 1005f02c     advapi32:ADVAPI32.dll
 0002:00000030       __imp__GetACP@0            1005f030     kernel32:KERNEL32.dll
